---
triple:          'arm64-apple-darwin'
binary-path:     executable_debug
relocations:
  - { offsetInCU: 0x3B, offset: 0x3B, size: 0x8, addend: 0x0, symName: _.str, symObjAddr: 0x388E0, symBinAddr: 0x10003D6C0, symSize: 0x0 }
  - { offsetInCU: 0x6B, offset: 0x6B, size: 0x8, addend: 0x0, symName: _.str.1, symObjAddr: 0x38900, symBinAddr: 0x10003D6E0, symSize: 0x0 }
  - { offsetInCU: 0x88, offset: 0x88, size: 0x8, addend: 0x0, symName: _.str.2, symObjAddr: 0x38920, symBinAddr: 0x10003D700, symSize: 0x0 }
  - { offsetInCU: 0xA5, offset: 0xA5, size: 0x8, addend: 0x0, symName: _.str.3, symObjAddr: 0x38940, symBinAddr: 0x10003D720, symSize: 0x0 }
  - { offsetInCU: 0xB6, offset: 0xB6, size: 0x8, addend: 0x0, symName: _.str.4, symObjAddr: 0x38960, symBinAddr: 0x10003D740, symSize: 0x0 }
  - { offsetInCU: 0xC7, offset: 0xC7, size: 0x8, addend: 0x0, symName: _.str.5, symObjAddr: 0x38980, symBinAddr: 0x10003D760, symSize: 0x0 }
  - { offsetInCU: 0xD8, offset: 0xD8, size: 0x8, addend: 0x0, symName: _.str.6, symObjAddr: 0x389A0, symBinAddr: 0x10003D780, symSize: 0x0 }
  - { offsetInCU: 0xE9, offset: 0xE9, size: 0x8, addend: 0x0, symName: _.str.7, symObjAddr: 0x389C0, symBinAddr: 0x10003D7A0, symSize: 0x0 }
  - { offsetInCU: 0xFA, offset: 0xFA, size: 0x8, addend: 0x0, symName: _.str.8, symObjAddr: 0x389E0, symBinAddr: 0x10003D7C0, symSize: 0x0 }
  - { offsetInCU: 0x10B, offset: 0x10B, size: 0x8, addend: 0x0, symName: _.str.9, symObjAddr: 0x38A00, symBinAddr: 0x10003D7E0, symSize: 0x0 }
  - { offsetInCU: 0x11C, offset: 0x11C, size: 0x8, addend: 0x0, symName: _.str.10, symObjAddr: 0x38A20, symBinAddr: 0x10003D800, symSize: 0x0 }
  - { offsetInCU: 0x12D, offset: 0x12D, size: 0x8, addend: 0x0, symName: _.str.11, symObjAddr: 0x38A40, symBinAddr: 0x10003D820, symSize: 0x0 }
  - { offsetInCU: 0x13E, offset: 0x13E, size: 0x8, addend: 0x0, symName: _.str.12, symObjAddr: 0x38A60, symBinAddr: 0x10003D840, symSize: 0x0 }
  - { offsetInCU: 0x153, offset: 0x153, size: 0x8, addend: 0x0, symName: _StringToVal, symObjAddr: 0xCCF40, symBinAddr: 0x100061700, symSize: 0x0 }
  - { offsetInCU: 0x91A1, offset: 0x91A1, size: 0x8, addend: 0x0, symName: __ZNSt3__1L19piecewise_constructE, symObjAddr: 0x43DA0, symBinAddr: 0x100048820, symSize: 0x0 }
  - { offsetInCU: 0xA578, offset: 0xA578, size: 0x8, addend: 0x0, symName: __ZNSt3__124__put_character_sequenceB7v160006IcNS_11char_traitsIcEEEERNS_13basic_ostreamIT_T0_EES7_PKS4_m, symObjAddr: 0x332E8, symBinAddr: 0x100037AD8, symSize: 0x103C }
  - { offsetInCU: 0xC28A, offset: 0xC28A, size: 0x8, addend: 0x0, symName: __ZNSt3__1rsB7v160006IcNS_11char_traitsIcEENS_9allocatorIcEEEERNS_13basic_istreamIT_T0_EES9_RNS_12basic_stringIS6_S7_T1_EE, symObjAddr: 0x161C, symBinAddr: 0x100005E0C, symSize: 0x18BC }
  - { offsetInCU: 0xC363, offset: 0xC363, size: 0x8, addend: 0x0, symName: __ZNSt3__1eqB7v160006ERKNS_19__hash_map_iteratorINS_15__hash_iteratorIPNS_11__hash_nodeINS_17__hash_value_typeINS_12basic_stringIcNS_11char_traitsIcEENS_9allocatorIcEEEE5ValueEEPvEEEEEESI_, symObjAddr: 0x2ED8, symBinAddr: 0x1000076C8, symSize: 0xC0 }
  - { offsetInCU: 0xC3A0, offset: 0xC3A0, size: 0x8, addend: 0x0, symName: __ZNSt3__1eqB7v160006ERKNS_19__hash_map_iteratorINS_15__hash_iteratorIPNS_11__hash_nodeINS_17__hash_value_typeINS_12basic_stringIcNS_11char_traitsIcEENS_9allocatorIcEEEE4SuitEEPvEEEEEESI_, symObjAddr: 0x3668, symBinAddr: 0x100007E58, symSize: 0xC0 }
  - { offsetInCU: 0xC3DD, offset: 0xC3DD, size: 0x8, addend: 0x0, symName: __ZNSt3__14swapB7v160006I5ValueEENS_9enable_ifIXaasr21is_move_constructibleIT_EE5valuesr18is_move_assignableIS3_EE5valueEvE4typeERS3_S6_, symObjAddr: 0x48CC, symBinAddr: 0x1000090BC, symSize: 0x260 }
  - { offsetInCU: 0xC42E, offset: 0xC42E, size: 0x8, addend: 0x0, symName: __ZNSt3__14swapB7v160006I4SuitEENS_9enable_ifIXaasr21is_move_constructibleIT_EE5valuesr18is_move_assignableIS3_EE5valueEvE4typeERS3_S6_, symObjAddr: 0x4B2C, symBinAddr: 0x10000931C, symSize: 0x260 }
  - { offsetInCU: 0xC47F, offset: 0xC47F, size: 0x8, addend: 0x0, symName: __ZNSt3__1lsB7v160006INS_11char_traitsIcEEEERNS_13basic_ostreamIcT_EES6_PKc, symObjAddr: 0x57DC, symBinAddr: 0x100009FCC, symSize: 0xD0 }
  - { offsetInCU: 0xC4C5, offset: 0xC4C5, size: 0x8, addend: 0x0, symName: __ZNSt3__119__debug_db_insert_cB7v160006INS_12basic_stringIcNS_11char_traitsIcEENS_9allocatorIcEEEEEEvPT_, symObjAddr: 0x7374, symBinAddr: 0x10000BB64, symSize: 0x10 }
  - { offsetInCU: 0xC4F6, offset: 0xC4F6, size: 0x8, addend: 0x0, symName: __ZNSt3__118__constexpr_strlenB7v160006EPKc, symObjAddr: 0x7640, symBinAddr: 0x10000BE30, symSize: 0x24 }
  - { offsetInCU: 0xC522, offset: 0xC522, size: 0x8, addend: 0x0, symName: __ZNSt3__119__debug_db_insert_cB7v160006INS_13unordered_mapINS_12basic_stringIcNS_11char_traitsIcEENS_9allocatorIcEEEE5ValueNS_4hashIS7_EENS_8equal_toIS7_EENS5_INS_4pairIKS7_S8_EEEEEEEEvPT_, symObjAddr: 0x7A00, symBinAddr: 0x10000C1F0, symSize: 0x10 }
  - { offsetInCU: 0xC553, offset: 0xC553, size: 0x8, addend: 0x0, symName: __ZNSt3__116__constrain_hashB7v160006Emm, symObjAddr: 0xC088, symBinAddr: 0x100010878, symSize: 0xDC }
  - { offsetInCU: 0xC58D, offset: 0xC58D, size: 0x8, addend: 0x0, symName: __ZNSt3__13maxB7v160006ImEERKT_S3_S3_, symObjAddr: 0xD400, symBinAddr: 0x100011BF0, symSize: 0x104 }
  - { offsetInCU: 0xC5D0, offset: 0xC5D0, size: 0x8, addend: 0x0, symName: __ZNSt3__116__is_hash_power2B7v160006Em, symObjAddr: 0xD504, symBinAddr: 0x100011CF4, symSize: 0x50 }
  - { offsetInCU: 0xC5FC, offset: 0xC5FC, size: 0x8, addend: 0x0, symName: __ZNSt3__116__do_string_hashB7v160006IPKcEEmT_S3_, symObjAddr: 0xE0B4, symBinAddr: 0x1000128A4, symSize: 0x1EC }
  - { offsetInCU: 0xC644, offset: 0xC644, size: 0x8, addend: 0x0, symName: __ZNSt3__110__loadwordB7v160006ImEET_PKv, symObjAddr: 0x11920, symBinAddr: 0x100016110, symSize: 0x214 }
  - { offsetInCU: 0xC68C, offset: 0xC68C, size: 0x8, addend: 0x0, symName: __ZNSt3__14swapB7v160006ImEENS_9enable_ifIXaasr21is_move_constructibleIT_EE5valuesr18is_move_assignableIS2_EE5valueEvE4typeERS2_S5_, symObjAddr: 0x123B4, symBinAddr: 0x100016BA4, symSize: 0x1C0 }
  - { offsetInCU: 0xC6DD, offset: 0xC6DD, size: 0x8, addend: 0x0, symName: __ZNSt3__110__loadwordB7v160006IjEET_PKv, symObjAddr: 0x126C0, symBinAddr: 0x100016EB0, symSize: 0x240 }
  - { offsetInCU: 0xC725, offset: 0xC725, size: 0x8, addend: 0x0, symName: __ZNSt3__112__to_addressB7v160006IKcEEPT_S3_, symObjAddr: 0x12F30, symBinAddr: 0x100017720, symSize: 0x14 }
  - { offsetInCU: 0xC78D, offset: 0xC78D, size: 0x8, addend: 0x0, symName: __ZNSt3__1eqB7v160006INS_9allocatorIcEEEEbRKNS_12basic_stringIcNS_11char_traitsIcEET_EES9_, symObjAddr: 0x14664, symBinAddr: 0x100018E54, symSize: 0x458 }
  - { offsetInCU: 0xC800, offset: 0xC800, size: 0x8, addend: 0x0, symName: __ZNSt3__118__constexpr_memcmpB7v160006IcEEiPKT_S3_m, symObjAddr: 0x14B34, symBinAddr: 0x100019324, symSize: 0x34 }
  - { offsetInCU: 0xC851, offset: 0xC851, size: 0x8, addend: 0x0, symName: __ZNSt3__17launderB7v160006IKNS_4pairIKNS_12basic_stringIcNS_11char_traitsIcEENS_9allocatorIcEEEE5ValueEEEEPT_SD_, symObjAddr: 0x14B68, symBinAddr: 0x100019358, symSize: 0x24 }
  - { offsetInCU: 0xC888, offset: 0xC888, size: 0x8, addend: 0x0, symName: __ZNSt3__19__launderB7v160006IKNS_4pairIKNS_12basic_stringIcNS_11char_traitsIcEENS_9allocatorIcEEEE5ValueEEEEPT_SD_, symObjAddr: 0x14B8C, symBinAddr: 0x10001937C, symSize: 0x14 }
  - { offsetInCU: 0xC910, offset: 0xC910, size: 0x8, addend: 0x0, symName: __ZNSt3__117__libcpp_allocateB7v160006Emm, symObjAddr: 0x152D8, symBinAddr: 0x100019AC8, symSize: 0x60 }
  - { offsetInCU: 0xC96A, offset: 0xC96A, size: 0x8, addend: 0x0, symName: __ZNSt3__124__is_overaligned_for_newB7v160006Em, symObjAddr: 0x15388, symBinAddr: 0x100019B78, symSize: 0x20 }
  - { offsetInCU: 0xC998, offset: 0xC998, size: 0x8, addend: 0x0, symName: __ZNSt3__121__libcpp_operator_newB7v160006IJmSt11align_val_tEEEPvDpT_, symObjAddr: 0x153A8, symBinAddr: 0x100019B98, symSize: 0x6C }
  - { offsetInCU: 0xC9E5, offset: 0xC9E5, size: 0x8, addend: 0x0, symName: __ZNSt3__121__libcpp_operator_newB7v160006IJmEEEPvDpT_, symObjAddr: 0x15414, symBinAddr: 0x100019C04, symSize: 0x24 }
  - { offsetInCU: 0xCA1E, offset: 0xCA1E, size: 0x8, addend: 0x0, symName: __ZNSt3__17launderB7v160006INS_4pairIKNS_12basic_stringIcNS_11char_traitsIcEENS_9allocatorIcEEEE5ValueEEEEPT_SC_, symObjAddr: 0x1609C, symBinAddr: 0x10001A88C, symSize: 0x24 }
  - { offsetInCU: 0xCA55, offset: 0xCA55, size: 0x8, addend: 0x0, symName: __ZNSt3__19__launderB7v160006INS_4pairIKNS_12basic_stringIcNS_11char_traitsIcEENS_9allocatorIcEEEE5ValueEEEEPT_SC_, symObjAddr: 0x160C0, symBinAddr: 0x10001A8B0, symSize: 0x14 }
  - { offsetInCU: 0xCA8C, offset: 0xCA8C, size: 0x8, addend: 0x0, symName: __ZNSt3__116__next_hash_pow2B7v160006Em, symObjAddr: 0x180A4, symBinAddr: 0x10001C894, symSize: 0xCC }
  - { offsetInCU: 0xCAB8, offset: 0xCAB8, size: 0x8, addend: 0x0, symName: __ZNSt3__125__debug_db_invalidate_allB7v160006INS_12__hash_tableINS_17__hash_value_typeINS_12basic_stringIcNS_11char_traitsIcEENS_9allocatorIcEEEE5ValueEENS_22__unordered_map_hasherIS8_SA_NS_4hashIS8_EENS_8equal_toIS8_EELb1EEENS_21__unordered_map_equalIS8_SA_SF_SD_Lb1EEENS6_ISA_EEEEEEvPT_, symObjAddr: 0x18170, symBinAddr: 0x10001C960, symSize: 0x10 }
  - { offsetInCU: 0xCB05, offset: 0xCB05, size: 0x8, addend: 0x0, symName: __ZNSt3__119__libcpp_deallocateB7v160006EPvmm, symObjAddr: 0x18E54, symBinAddr: 0x10001D644, symSize: 0x60 }
  - { offsetInCU: 0xCB6A, offset: 0xCB6A, size: 0x8, addend: 0x0, symName: __ZNSt3__127__do_deallocate_handle_sizeB7v160006IJSt11align_val_tEEEvPvmDpT_, symObjAddr: 0x18EB4, symBinAddr: 0x10001D6A4, symSize: 0x30 }
  - { offsetInCU: 0xCBBD, offset: 0xCBBD, size: 0x8, addend: 0x0, symName: __ZNSt3__127__do_deallocate_handle_sizeB7v160006IJEEEvPvmDpT_, symObjAddr: 0x18EE4, symBinAddr: 0x10001D6D4, symSize: 0x28 }
  - { offsetInCU: 0xCBFB, offset: 0xCBFB, size: 0x8, addend: 0x0, symName: __ZNSt3__124__libcpp_operator_deleteB7v160006IJPvSt11align_val_tEEEvDpT_, symObjAddr: 0x18F0C, symBinAddr: 0x10001D6FC, symSize: 0x2C }
  - { offsetInCU: 0xCC44, offset: 0xCC44, size: 0x8, addend: 0x0, symName: __ZNSt3__124__libcpp_operator_deleteB7v160006IJPvEEEvDpT_, symObjAddr: 0x18F38, symBinAddr: 0x10001D728, symSize: 0x24 }
  - { offsetInCU: 0xCC79, offset: 0xCC79, size: 0x8, addend: 0x0, symName: __ZNSt3__112__libcpp_clzB7v160006Em, symObjAddr: 0x191BC, symBinAddr: 0x10001D9AC, symSize: 0x1C }
  - { offsetInCU: 0xCCA5, offset: 0xCCA5, size: 0x8, addend: 0x0, symName: __ZNSt3__13maxB7v160006ImNS_6__lessImmEEEERKT_S5_S5_T0_, symObjAddr: 0x191D8, symBinAddr: 0x10001D9C8, symSize: 0x2C0 }
  - { offsetInCU: 0xCD40, offset: 0xCD40, size: 0x8, addend: 0x0, symName: __ZNSt3__118__debug_db_erase_cB7v160006INS_12__hash_tableINS_17__hash_value_typeINS_12basic_stringIcNS_11char_traitsIcEENS_9allocatorIcEEEE5ValueEENS_22__unordered_map_hasherIS8_SA_NS_4hashIS8_EENS_8equal_toIS8_EELb1EEENS_21__unordered_map_equalIS8_SA_SF_SD_Lb1EEENS6_ISA_EEEEEEvPT_, symObjAddr: 0x1A864, symBinAddr: 0x10001F054, symSize: 0x10 }
  - { offsetInCU: 0xCD71, offset: 0xCD71, size: 0x8, addend: 0x0, symName: __ZNSt3__119__debug_db_insert_cB7v160006INS_13unordered_mapINS_12basic_stringIcNS_11char_traitsIcEENS_9allocatorIcEEEE4SuitNS_4hashIS7_EENS_8equal_toIS7_EENS5_INS_4pairIKS7_S8_EEEEEEEEvPT_, symObjAddr: 0x1B03C, symBinAddr: 0x10001F82C, symSize: 0x10 }
  - { offsetInCU: 0xCDA2, offset: 0xCDA2, size: 0x8, addend: 0x0, symName: __ZNSt3__17launderB7v160006IKNS_4pairIKNS_12basic_stringIcNS_11char_traitsIcEENS_9allocatorIcEEEE4SuitEEEEPT_SD_, symObjAddr: 0x218A0, symBinAddr: 0x100026090, symSize: 0x24 }
  - { offsetInCU: 0xCDD9, offset: 0xCDD9, size: 0x8, addend: 0x0, symName: __ZNSt3__19__launderB7v160006IKNS_4pairIKNS_12basic_stringIcNS_11char_traitsIcEENS_9allocatorIcEEEE4SuitEEEEPT_SD_, symObjAddr: 0x218C4, symBinAddr: 0x1000260B4, symSize: 0x14 }
  - { offsetInCU: 0xCE61, offset: 0xCE61, size: 0x8, addend: 0x0, symName: __ZNSt3__17launderB7v160006INS_4pairIKNS_12basic_stringIcNS_11char_traitsIcEENS_9allocatorIcEEEE4SuitEEEEPT_SC_, symObjAddr: 0x22C48, symBinAddr: 0x100027438, symSize: 0x24 }
  - { offsetInCU: 0xCE98, offset: 0xCE98, size: 0x8, addend: 0x0, symName: __ZNSt3__19__launderB7v160006INS_4pairIKNS_12basic_stringIcNS_11char_traitsIcEENS_9allocatorIcEEEE4SuitEEEEPT_SC_, symObjAddr: 0x22C6C, symBinAddr: 0x10002745C, symSize: 0x14 }
  - { offsetInCU: 0xCECF, offset: 0xCECF, size: 0x8, addend: 0x0, symName: __ZNSt3__125__debug_db_invalidate_allB7v160006INS_12__hash_tableINS_17__hash_value_typeINS_12basic_stringIcNS_11char_traitsIcEENS_9allocatorIcEEEE4SuitEENS_22__unordered_map_hasherIS8_SA_NS_4hashIS8_EENS_8equal_toIS8_EELb1EEENS_21__unordered_map_equalIS8_SA_SF_SD_Lb1EEENS6_ISA_EEEEEEvPT_, symObjAddr: 0x24AF8, symBinAddr: 0x1000292E8, symSize: 0x10 }
  - { offsetInCU: 0xCF00, offset: 0xCF00, size: 0x8, addend: 0x0, symName: __ZNSt3__118__debug_db_erase_cB7v160006INS_12__hash_tableINS_17__hash_value_typeINS_12basic_stringIcNS_11char_traitsIcEENS_9allocatorIcEEEE4SuitEENS_22__unordered_map_hasherIS8_SA_NS_4hashIS8_EENS_8equal_toIS8_EELb1EEENS_21__unordered_map_equalIS8_SA_SF_SD_Lb1EEENS6_ISA_EEEEEEvPT_, symObjAddr: 0x26D1C, symBinAddr: 0x10002B50C, symSize: 0x10 }
  - { offsetInCU: 0xD6B0, offset: 0xD6B0, size: 0x8, addend: 0x0, symName: __ZNSt3__19use_facetB7v160006INS_5ctypeIcEEEERKT_RKNS_6localeE, symObjAddr: 0x27FF8, symBinAddr: 0x10002C7E8, symSize: 0x188 }
  - { offsetInCU: 0xDA90, offset: 0xDA90, size: 0x8, addend: 0x0, symName: __ZNSt3__125__debug_db_invalidate_allB7v160006INS_12basic_stringIcNS_11char_traitsIcEENS_9allocatorIcEEEEEEvPT_, symObjAddr: 0x2964C, symBinAddr: 0x10002DE3C, symSize: 0x10 }
  - { offsetInCU: 0xDAF4, offset: 0xDAF4, size: 0x8, addend: 0x0, symName: __ZNSt3__1eqB7v160006ERKNS_15__hash_iteratorIPNS_11__hash_nodeINS_17__hash_value_typeINS_12basic_stringIcNS_11char_traitsIcEENS_9allocatorIcEEEE5ValueEEPvEEEESG_, symObjAddr: 0x2B8A4, symBinAddr: 0x100030094, symSize: 0x114 }
  - { offsetInCU: 0xDB31, offset: 0xDB31, size: 0x8, addend: 0x0, symName: __ZNSt3__1eqB7v160006ERKNS_15__hash_iteratorIPNS_11__hash_nodeINS_17__hash_value_typeINS_12basic_stringIcNS_11char_traitsIcEENS_9allocatorIcEEEE4SuitEEPvEEEESG_, symObjAddr: 0x2C9D4, symBinAddr: 0x1000311C4, symSize: 0x114 }
  - { offsetInCU: 0xDBA5, offset: 0xDBA5, size: 0x8, addend: 0x0, symName: __ZNSt3__116forward_as_tupleB7v160006IJRKNS_12basic_stringIcNS_11char_traitsIcEENS_9allocatorIcEEEEEEENS_5tupleIJDpOT_EEESC_, symObjAddr: 0x2E7E8, symBinAddr: 0x100032FD8, symSize: 0x244 }
  - { offsetInCU: 0xDBDF, offset: 0xDBDF, size: 0x8, addend: 0x0, symName: __ZNSt3__116forward_as_tupleB7v160006IJEEENS_5tupleIJDpOT_EEES4_, symObjAddr: 0x2EA2C, symBinAddr: 0x10003321C, symSize: 0x4 }
  - { offsetInCU: 0xDC0E, offset: 0xDC0E, size: 0x8, addend: 0x0, symName: __ZNSt3__13getB7v160006ILm0EJRKNS_12basic_stringIcNS_11char_traitsIcEENS_9allocatorIcEEEEEEERNS_13tuple_elementIXT_ENS_5tupleIJDpT0_EEEE4typeERSD_, symObjAddr: 0x2FD20, symBinAddr: 0x100034510, symSize: 0xE0 }
  - { offsetInCU: 0xDCDB, offset: 0xDCDB, size: 0x8, addend: 0x0, symName: __ZNSt3__116__pad_and_outputB7v160006IcNS_11char_traitsIcEEEENS_19ostreambuf_iteratorIT_T0_EES6_PKS4_S8_S8_RNS_8ios_baseES4_, symObjAddr: 0x34428, symBinAddr: 0x100038C18, symSize: 0xB88 }
  - { offsetInCU: 0xDDB8, offset: 0xDDB8, size: 0x8, addend: 0x0, symName: __ZNSt3__112__to_addressB7v160006IcEEPT_S2_, symObjAddr: 0x35AE8, symBinAddr: 0x10003A2D8, symSize: 0x14 }
  - { offsetInCU: 0xDFF2, offset: 0xDFF2, size: 0x8, addend: 0x0, symName: __ZSt28__throw_bad_array_new_lengthB7v160006v, symObjAddr: 0x1525C, symBinAddr: 0x100019A4C, symSize: 0x7C }
  - { offsetInCU: 0xE7AA, offset: 0xE7AA, size: 0x8, addend: 0x0, symName: _.str.14, symObjAddr: 0x38A80, symBinAddr: 0x10003D860, symSize: 0x0 }
  - { offsetInCU: 0xE7BB, offset: 0xE7BB, size: 0x8, addend: 0x0, symName: _.str.15, symObjAddr: 0x38AA0, symBinAddr: 0x10003D880, symSize: 0x0 }
  - { offsetInCU: 0xE7D8, offset: 0xE7D8, size: 0x8, addend: 0x0, symName: _.str.16, symObjAddr: 0x38AC0, symBinAddr: 0x10003D8A0, symSize: 0x0 }
  - { offsetInCU: 0xE7E9, offset: 0xE7E9, size: 0x8, addend: 0x0, symName: _.str.17, symObjAddr: 0x38AE0, symBinAddr: 0x10003D8C0, symSize: 0x0 }
  - { offsetInCU: 0xE80A, offset: 0xE80A, size: 0x8, addend: 0x0, symName: _StringToSuit, symObjAddr: 0xCCFA0, symBinAddr: 0x100061760, symSize: 0x0 }
  - { offsetInCU: 0xED37, offset: 0xED37, size: 0x8, addend: 0x0, symName: _.str.18, symObjAddr: 0x38B00, symBinAddr: 0x10003D8E0, symSize: 0x0 }
  - { offsetInCU: 0xED48, offset: 0xED48, size: 0x8, addend: 0x0, symName: _.str.19, symObjAddr: 0x38B20, symBinAddr: 0x10003D900, symSize: 0x0 }
  - { offsetInCU: 0xED65, offset: 0xED65, size: 0x8, addend: 0x0, symName: _.str.20, symObjAddr: 0x38B40, symBinAddr: 0x10003D920, symSize: 0x0 }
  - { offsetInCU: 0xED76, offset: 0xED76, size: 0x8, addend: 0x0, symName: _.str.21, symObjAddr: 0x38B60, symBinAddr: 0x10003D940, symSize: 0x0 }
  - { offsetInCU: 0xED93, offset: 0xED93, size: 0x8, addend: 0x0, symName: _.str.23, symObjAddr: 0x38BA0, symBinAddr: 0x10003D980, symSize: 0x0 }
  - { offsetInCU: 0xEDB0, offset: 0xEDB0, size: 0x8, addend: 0x0, symName: _.str.24, symObjAddr: 0x38BE0, symBinAddr: 0x10003D9C0, symSize: 0x0 }
  - { offsetInCU: 0xEDC1, offset: 0xEDC1, size: 0x8, addend: 0x0, symName: _.str.25, symObjAddr: 0x38C00, symBinAddr: 0x10003D9E0, symSize: 0x0 }
  - { offsetInCU: 0xEDD2, offset: 0xEDD2, size: 0x8, addend: 0x0, symName: _.str.28, symObjAddr: 0x38C20, symBinAddr: 0x10003DA00, symSize: 0x0 }
  - { offsetInCU: 0xEDE7, offset: 0xEDE7, size: 0x8, addend: 0x0, symName: __ZL12long_options, symObjAddr: 0x51160, symBinAddr: 0x100050480, symSize: 0x0 }
  - { offsetInCU: 0x1130B, offset: 0x1130B, size: 0x8, addend: 0x0, symName: __ZNSt3__14pairIKNS_12basic_stringIcNS_11char_traitsIcEENS_9allocatorIcEEEE5ValueEC1B7v160006IRA4_KcS8_LPv0EEEOT_OT0_, symObjAddr: 0x0, symBinAddr: 0x1000047F0, symSize: 0x88 }
  - { offsetInCU: 0x1137F, offset: 0x1137F, size: 0x8, addend: 0x0, symName: __ZNSt3__14pairIKNS_12basic_stringIcNS_11char_traitsIcEENS_9allocatorIcEEEE5ValueEC1B7v160006IRA6_KcS8_LPv0EEEOT_OT0_, symObjAddr: 0x88, symBinAddr: 0x100004878, symSize: 0x88 }
  - { offsetInCU: 0x113F3, offset: 0x113F3, size: 0x8, addend: 0x0, symName: __ZNSt3__14pairIKNS_12basic_stringIcNS_11char_traitsIcEENS_9allocatorIcEEEE5ValueEC1B7v160006IRA5_KcS8_LPv0EEEOT_OT0_, symObjAddr: 0x110, symBinAddr: 0x100004900, symSize: 0x88 }
  - { offsetInCU: 0x11451, offset: 0x11451, size: 0x8, addend: 0x0, symName: __ZNSt3__113unordered_mapINS_12basic_stringIcNS_11char_traitsIcEENS_9allocatorIcEEEE5ValueNS_4hashIS6_EENS_8equal_toIS6_EENS4_INS_4pairIKS6_S7_EEEEEC1ESt16initializer_listISE_E, symObjAddr: 0x198, symBinAddr: 0x100004988, symSize: 0x29C }
  - { offsetInCU: 0x11491, offset: 0x11491, size: 0x8, addend: 0x0, symName: __ZNSt3__14pairIKNS_12basic_stringIcNS_11char_traitsIcEENS_9allocatorIcEEEE5ValueED1Ev, symObjAddr: 0x434, symBinAddr: 0x100004C24, symSize: 0x78 }
  - { offsetInCU: 0x114BD, offset: 0x114BD, size: 0x8, addend: 0x0, symName: __ZNSt3__113unordered_mapINS_12basic_stringIcNS_11char_traitsIcEENS_9allocatorIcEEEE5ValueNS_4hashIS6_EENS_8equal_toIS6_EENS4_INS_4pairIKS6_S7_EEEEED1B7v160006Ev, symObjAddr: 0x4AC, symBinAddr: 0x100004C9C, symSize: 0x78 }
  - { offsetInCU: 0x114EC, offset: 0x114EC, size: 0x8, addend: 0x0, symName: __ZNSt3__14pairIKNS_12basic_stringIcNS_11char_traitsIcEENS_9allocatorIcEEEE4SuitEC1B7v160006IRA6_KcS8_LPv0EEEOT_OT0_, symObjAddr: 0x524, symBinAddr: 0x100004D14, symSize: 0x88 }
  - { offsetInCU: 0x11560, offset: 0x11560, size: 0x8, addend: 0x0, symName: __ZNSt3__14pairIKNS_12basic_stringIcNS_11char_traitsIcEENS_9allocatorIcEEEE4SuitEC1B7v160006IRA7_KcS8_LPv0EEEOT_OT0_, symObjAddr: 0x5AC, symBinAddr: 0x100004D9C, symSize: 0x88 }
  - { offsetInCU: 0x115D4, offset: 0x115D4, size: 0x8, addend: 0x0, symName: __ZNSt3__14pairIKNS_12basic_stringIcNS_11char_traitsIcEENS_9allocatorIcEEEE4SuitEC1B7v160006IRA9_KcS8_LPv0EEEOT_OT0_, symObjAddr: 0x634, symBinAddr: 0x100004E24, symSize: 0x88 }
  - { offsetInCU: 0x11632, offset: 0x11632, size: 0x8, addend: 0x0, symName: __ZNSt3__113unordered_mapINS_12basic_stringIcNS_11char_traitsIcEENS_9allocatorIcEEEE4SuitNS_4hashIS6_EENS_8equal_toIS6_EENS4_INS_4pairIKS6_S7_EEEEEC1ESt16initializer_listISE_E, symObjAddr: 0x6BC, symBinAddr: 0x100004EAC, symSize: 0x29C }
  - { offsetInCU: 0x11672, offset: 0x11672, size: 0x8, addend: 0x0, symName: __ZNSt3__14pairIKNS_12basic_stringIcNS_11char_traitsIcEENS_9allocatorIcEEEE4SuitED1Ev, symObjAddr: 0x958, symBinAddr: 0x100005148, symSize: 0x78 }
  - { offsetInCU: 0x1169E, offset: 0x1169E, size: 0x8, addend: 0x0, symName: __ZNSt3__113unordered_mapINS_12basic_stringIcNS_11char_traitsIcEENS_9allocatorIcEEEE4SuitNS_4hashIS6_EENS_8equal_toIS6_EENS4_INS_4pairIKS6_S7_EEEEED1B7v160006Ev, symObjAddr: 0x9D0, symBinAddr: 0x1000051C0, symSize: 0x78 }
  - { offsetInCU: 0x116C7, offset: 0x116C7, size: 0x8, addend: 0x0, symName: __ZrsRNSt3__113basic_istreamIcNS_11char_traitsIcEEEER4Card, symObjAddr: 0xA48, symBinAddr: 0x100005238, symSize: 0xB5C }
  - { offsetInCU: 0x1173B, offset: 0x1173B, size: 0x8, addend: 0x0, symName: __ZNSt3__112basic_stringIcNS_11char_traitsIcEENS_9allocatorIcEEEC1B7v160006Ev, symObjAddr: 0x15A4, symBinAddr: 0x100005D94, symSize: 0x78 }
  - { offsetInCU: 0x11765, offset: 0x11765, size: 0x8, addend: 0x0, symName: __ZNSt3__113unordered_mapINS_12basic_stringIcNS_11char_traitsIcEENS_9allocatorIcEEEE5ValueNS_4hashIS6_EENS_8equal_toIS6_EENS4_INS_4pairIKS6_S7_EEEEE4findB7v160006ERSD_, symObjAddr: 0x2F98, symBinAddr: 0x100007788, symSize: 0x390 }
  - { offsetInCU: 0x1179C, offset: 0x1179C, size: 0x8, addend: 0x0, symName: __ZNSt3__113unordered_mapINS_12basic_stringIcNS_11char_traitsIcEENS_9allocatorIcEEEE5ValueNS_4hashIS6_EENS_8equal_toIS6_EENS4_INS_4pairIKS6_S7_EEEEE3endB7v160006Ev, symObjAddr: 0x3328, symBinAddr: 0x100007B18, symSize: 0x340 }
  - { offsetInCU: 0x117C3, offset: 0x117C3, size: 0x8, addend: 0x0, symName: __ZNSt3__113unordered_mapINS_12basic_stringIcNS_11char_traitsIcEENS_9allocatorIcEEEE4SuitNS_4hashIS6_EENS_8equal_toIS6_EENS4_INS_4pairIKS6_S7_EEEEE4findB7v160006ERSD_, symObjAddr: 0x3728, symBinAddr: 0x100007F18, symSize: 0x390 }
  - { offsetInCU: 0x117FA, offset: 0x117FA, size: 0x8, addend: 0x0, symName: __ZNSt3__113unordered_mapINS_12basic_stringIcNS_11char_traitsIcEENS_9allocatorIcEEEE4SuitNS_4hashIS6_EENS_8equal_toIS6_EENS4_INS_4pairIKS6_S7_EEEEE3endB7v160006Ev, symObjAddr: 0x3AB8, symBinAddr: 0x1000082A8, symSize: 0x340 }
  - { offsetInCU: 0x1183E, offset: 0x1183E, size: 0x8, addend: 0x0, symName: __ZN12InvalidInputC1Ev, symObjAddr: 0x3DF8, symBinAddr: 0x1000085E8, symSize: 0x5C }
  - { offsetInCU: 0x11868, offset: 0x11868, size: 0x8, addend: 0x0, symName: __ZNSt3__113unordered_mapINS_12basic_stringIcNS_11char_traitsIcEENS_9allocatorIcEEEE5ValueNS_4hashIS6_EENS_8equal_toIS6_EENS4_INS_4pairIKS6_S7_EEEEEixERSD_, symObjAddr: 0x3E54, symBinAddr: 0x100008644, symSize: 0x4F8 }
  - { offsetInCU: 0x118A1, offset: 0x118A1, size: 0x8, addend: 0x0, symName: __ZNSt3__113unordered_mapINS_12basic_stringIcNS_11char_traitsIcEENS_9allocatorIcEEEE4SuitNS_4hashIS6_EENS_8equal_toIS6_EENS4_INS_4pairIKS6_S7_EEEEEixERSD_, symObjAddr: 0x434C, symBinAddr: 0x100008B3C, symSize: 0x4F8 }
  - { offsetInCU: 0x11A18, offset: 0x11A18, size: 0x8, addend: 0x0, symName: __ZN4CardC1E5Value4Suit, symObjAddr: 0x4844, symBinAddr: 0x100009034, symSize: 0x88 }
  - { offsetInCU: 0x11A5D, offset: 0x11A5D, size: 0x8, addend: 0x0, symName: __ZlsRNSt3__113basic_ostreamIcNS_11char_traitsIcEEEERK4Card, symObjAddr: 0x4D8C, symBinAddr: 0x10000957C, symSize: 0x960 }
  - { offsetInCU: 0x11A98, offset: 0x11A98, size: 0x8, addend: 0x0, symName: __ZNK4Card7get_ValEv, symObjAddr: 0x5730, symBinAddr: 0x100009F20, symSize: 0xAC }
  - { offsetInCU: 0x11ABE, offset: 0x11ABE, size: 0x8, addend: 0x0, symName: __ZNK4Card8get_SuitEv, symObjAddr: 0x58AC, symBinAddr: 0x10000A09C, symSize: 0xB4 }
  - { offsetInCU: 0x11AE4, offset: 0x11AE4, size: 0x8, addend: 0x0, symName: _main, symObjAddr: 0x5960, symBinAddr: 0x10000A150, symSize: 0x8CC }
  - { offsetInCU: 0x11B61, offset: 0x11B61, size: 0x8, addend: 0x0, symName: __ZNSt3__112basic_stringIcNS_11char_traitsIcEENS_9allocatorIcEEEC1B7v160006IDnEEPKc, symObjAddr: 0x622C, symBinAddr: 0x10000AA1C, symSize: 0x80 }
  - { offsetInCU: 0x11BBC, offset: 0x11BBC, size: 0x8, addend: 0x0, symName: __ZN15InvalidArgumentC1Ev, symObjAddr: 0x62AC, symBinAddr: 0x10000AA9C, symSize: 0x5C }
  - { offsetInCU: 0x11BE6, offset: 0x11BE6, size: 0x8, addend: 0x0, symName: __ZNSt3__14pairIKNS_12basic_stringIcNS_11char_traitsIcEENS_9allocatorIcEEEE5ValueEC2B7v160006IRA4_KcS8_LPv0EEEOT_OT0_, symObjAddr: 0x6314, symBinAddr: 0x10000AB04, symSize: 0x1B0 }
  - { offsetInCU: 0x11C44, offset: 0x11C44, size: 0x8, addend: 0x0, symName: __ZNSt3__14pairIKNS_12basic_stringIcNS_11char_traitsIcEENS_9allocatorIcEEEE5ValueEC2B7v160006IRA6_KcS8_LPv0EEEOT_OT0_, symObjAddr: 0x64C4, symBinAddr: 0x10000ACB4, symSize: 0x1B0 }
  - { offsetInCU: 0x11CA2, offset: 0x11CA2, size: 0x8, addend: 0x0, symName: __ZNSt3__14pairIKNS_12basic_stringIcNS_11char_traitsIcEENS_9allocatorIcEEEE5ValueEC2B7v160006IRA5_KcS8_LPv0EEEOT_OT0_, symObjAddr: 0x6674, symBinAddr: 0x10000AE64, symSize: 0x1B0 }
  - { offsetInCU: 0x11D00, offset: 0x11D00, size: 0x8, addend: 0x0, symName: __ZNSt3__14pairIKNS_12basic_stringIcNS_11char_traitsIcEENS_9allocatorIcEEEE5ValueED2Ev, symObjAddr: 0x6824, symBinAddr: 0x10000B014, symSize: 0x78 }
  - { offsetInCU: 0x11D2C, offset: 0x11D2C, size: 0x8, addend: 0x0, symName: __ZNSt3__14pairIKNS_12basic_stringIcNS_11char_traitsIcEENS_9allocatorIcEEEE4SuitEC2B7v160006IRA6_KcS8_LPv0EEEOT_OT0_, symObjAddr: 0x689C, symBinAddr: 0x10000B08C, symSize: 0x1B0 }
  - { offsetInCU: 0x11D8A, offset: 0x11D8A, size: 0x8, addend: 0x0, symName: __ZNSt3__14pairIKNS_12basic_stringIcNS_11char_traitsIcEENS_9allocatorIcEEEE4SuitEC2B7v160006IRA7_KcS8_LPv0EEEOT_OT0_, symObjAddr: 0x6A4C, symBinAddr: 0x10000B23C, symSize: 0x1B0 }
  - { offsetInCU: 0x11DE8, offset: 0x11DE8, size: 0x8, addend: 0x0, symName: __ZNSt3__14pairIKNS_12basic_stringIcNS_11char_traitsIcEENS_9allocatorIcEEEE4SuitEC2B7v160006IRA9_KcS8_LPv0EEEOT_OT0_, symObjAddr: 0x6BFC, symBinAddr: 0x10000B3EC, symSize: 0x1B0 }
  - { offsetInCU: 0x11E46, offset: 0x11E46, size: 0x8, addend: 0x0, symName: __ZNSt3__14pairIKNS_12basic_stringIcNS_11char_traitsIcEENS_9allocatorIcEEEE4SuitED2Ev, symObjAddr: 0x6DAC, symBinAddr: 0x10000B59C, symSize: 0x78 }
  - { offsetInCU: 0x11E72, offset: 0x11E72, size: 0x8, addend: 0x0, symName: __ZN12InvalidInputC2Ev, symObjAddr: 0x6E24, symBinAddr: 0x10000B614, symSize: 0x54 }
  - { offsetInCU: 0x11E9C, offset: 0x11E9C, size: 0x8, addend: 0x0, symName: __ZN4CardC2E5Value4Suit, symObjAddr: 0x6E78, symBinAddr: 0x10000B668, symSize: 0x160 }
  - { offsetInCU: 0x11EE2, offset: 0x11EE2, size: 0x8, addend: 0x0, symName: __ZN15InvalidArgumentC2Ev, symObjAddr: 0x6FD8, symBinAddr: 0x10000B7C8, symSize: 0x54 }
  - { offsetInCU: 0x11F0C, offset: 0x11F0C, size: 0x8, addend: 0x0, symName: __ZNSt3__112basic_stringIcNS_11char_traitsIcEENS_9allocatorIcEEEC2B7v160006IDnEEPKc, symObjAddr: 0x702C, symBinAddr: 0x10000B81C, symSize: 0x280 }
  - { offsetInCU: 0x11F51, offset: 0x11F51, size: 0x8, addend: 0x0, symName: __ZNSt3__117__compressed_pairINS_12basic_stringIcNS_11char_traitsIcEENS_9allocatorIcEEE5__repES5_EC1B7v160006INS_18__default_init_tagESA_EEOT_OT0_, symObjAddr: 0x72AC, symBinAddr: 0x10000BA9C, symSize: 0x88 }
  - { offsetInCU: 0x11FA9, offset: 0x11FA9, size: 0x8, addend: 0x0, symName: __ZNSt3__111char_traitsIcE6lengthEPKc, symObjAddr: 0x7334, symBinAddr: 0x10000BB24, symSize: 0x40 }
  - { offsetInCU: 0x11FCC, offset: 0x11FCC, size: 0x8, addend: 0x0, symName: __ZNSt3__117__compressed_pairINS_12basic_stringIcNS_11char_traitsIcEENS_9allocatorIcEEE5__repES5_EC2B7v160006INS_18__default_init_tagESA_EEOT_OT0_, symObjAddr: 0x7384, symBinAddr: 0x10000BB74, symSize: 0xF4 }
  - { offsetInCU: 0x12024, offset: 0x12024, size: 0x8, addend: 0x0, symName: __ZNSt3__122__compressed_pair_elemINS_12basic_stringIcNS_11char_traitsIcEENS_9allocatorIcEEE5__repELi0ELb0EEC2B7v160006ENS_18__default_init_tagE, symObjAddr: 0x7478, symBinAddr: 0x10000BC68, symSize: 0x6C }
  - { offsetInCU: 0x12059, offset: 0x12059, size: 0x8, addend: 0x0, symName: __ZNSt3__122__compressed_pair_elemINS_9allocatorIcEELi1ELb1EEC2B7v160006ENS_18__default_init_tagE, symObjAddr: 0x74E4, symBinAddr: 0x10000BCD4, symSize: 0x84 }
  - { offsetInCU: 0x1208E, offset: 0x1208E, size: 0x8, addend: 0x0, symName: __ZNSt3__19allocatorIcEC2B7v160006Ev, symObjAddr: 0x7568, symBinAddr: 0x10000BD58, symSize: 0x84 }
  - { offsetInCU: 0x120B8, offset: 0x120B8, size: 0x8, addend: 0x0, symName: __ZNSt3__116__non_trivial_ifILb1ENS_9allocatorIcEEEC2B7v160006Ev, symObjAddr: 0x75EC, symBinAddr: 0x10000BDDC, symSize: 0x54 }
  - { offsetInCU: 0x120E2, offset: 0x120E2, size: 0x8, addend: 0x0, symName: __ZNSt3__113unordered_mapINS_12basic_stringIcNS_11char_traitsIcEENS_9allocatorIcEEEE5ValueNS_4hashIS6_EENS_8equal_toIS6_EENS4_INS_4pairIKS6_S7_EEEEEC2ESt16initializer_listISE_E, symObjAddr: 0x7664, symBinAddr: 0x10000BE54, symSize: 0x324 }
  - { offsetInCU: 0x12122, offset: 0x12122, size: 0x8, addend: 0x0, symName: __ZNSt3__112__hash_tableINS_17__hash_value_typeINS_12basic_stringIcNS_11char_traitsIcEENS_9allocatorIcEEEE5ValueEENS_22__unordered_map_hasherIS7_S9_NS_4hashIS7_EENS_8equal_toIS7_EELb1EEENS_21__unordered_map_equalIS7_S9_SE_SC_Lb1EEENS5_IS9_EEEC1Ev, symObjAddr: 0x7988, symBinAddr: 0x10000C178, symSize: 0x78 }
  - { offsetInCU: 0x1214E, offset: 0x1214E, size: 0x8, addend: 0x0, symName: __ZNSt3__113unordered_mapINS_12basic_stringIcNS_11char_traitsIcEENS_9allocatorIcEEEE5ValueNS_4hashIS6_EENS_8equal_toIS6_EENS4_INS_4pairIKS6_S7_EEEEE6insertIPKSE_EEvT_SK_, symObjAddr: 0x7A10, symBinAddr: 0x10000C200, symSize: 0x390 }
  - { offsetInCU: 0x121A0, offset: 0x121A0, size: 0x8, addend: 0x0, symName: __ZNKSt16initializer_listINSt3__14pairIKNS0_12basic_stringIcNS0_11char_traitsIcEENS0_9allocatorIcEEEE5ValueEEE5beginB7v160006Ev, symObjAddr: 0x7DA0, symBinAddr: 0x10000C590, symSize: 0xAC }
  - { offsetInCU: 0x121C6, offset: 0x121C6, size: 0x8, addend: 0x0, symName: __ZNKSt16initializer_listINSt3__14pairIKNS0_12basic_stringIcNS0_11char_traitsIcEENS0_9allocatorIcEEEE5ValueEEE3endB7v160006Ev, symObjAddr: 0x7E4C, symBinAddr: 0x10000C63C, symSize: 0x1C0 }
  - { offsetInCU: 0x121EC, offset: 0x121EC, size: 0x8, addend: 0x0, symName: __ZNSt3__112__hash_tableINS_17__hash_value_typeINS_12basic_stringIcNS_11char_traitsIcEENS_9allocatorIcEEEE5ValueEENS_22__unordered_map_hasherIS7_S9_NS_4hashIS7_EENS_8equal_toIS7_EELb1EEENS_21__unordered_map_equalIS7_S9_SE_SC_Lb1EEENS5_IS9_EEED1Ev, symObjAddr: 0x800C, symBinAddr: 0x10000C7FC, symSize: 0x78 }
  - { offsetInCU: 0x12218, offset: 0x12218, size: 0x8, addend: 0x0, symName: __ZNSt3__112__hash_tableINS_17__hash_value_typeINS_12basic_stringIcNS_11char_traitsIcEENS_9allocatorIcEEEE5ValueEENS_22__unordered_map_hasherIS7_S9_NS_4hashIS7_EENS_8equal_toIS7_EELb1EEENS_21__unordered_map_equalIS7_S9_SE_SC_Lb1EEENS5_IS9_EEEC2Ev, symObjAddr: 0x8084, symBinAddr: 0x10000C874, symSize: 0x3E0 }
  - { offsetInCU: 0x12245, offset: 0x12245, size: 0x8, addend: 0x0, symName: __ZNSt3__110unique_ptrIA_PNS_16__hash_node_baseIPNS_11__hash_nodeINS_17__hash_value_typeINS_12basic_stringIcNS_11char_traitsIcEENS_9allocatorIcEEEE5ValueEEPvEEEENS_25__bucket_list_deallocatorINS7_ISG_EEEEEC1B7v160006ILb1EvEEv, symObjAddr: 0x8464, symBinAddr: 0x10000CC54, symSize: 0x78 }
  - { offsetInCU: 0x1227A, offset: 0x1227A, size: 0x8, addend: 0x0, symName: __ZNSt3__117__compressed_pairINS_16__hash_node_baseIPNS_11__hash_nodeINS_17__hash_value_typeINS_12basic_stringIcNS_11char_traitsIcEENS_9allocatorIcEEEE5ValueEEPvEEEENS7_ISD_EEEC1B7v160006ILb1EvEEv, symObjAddr: 0x84DC, symBinAddr: 0x10000CCCC, symSize: 0x78 }
  - { offsetInCU: 0x122B4, offset: 0x122B4, size: 0x8, addend: 0x0, symName: __ZNSt3__117__compressed_pairImNS_22__unordered_map_hasherINS_12basic_stringIcNS_11char_traitsIcEENS_9allocatorIcEEEENS_17__hash_value_typeIS7_5ValueEENS_4hashIS7_EENS_8equal_toIS7_EELb1EEEEC1B7v160006IiNS_18__default_init_tagEEEOT_OT0_, symObjAddr: 0x8554, symBinAddr: 0x10000CD44, symSize: 0x88 }
  - { offsetInCU: 0x12311, offset: 0x12311, size: 0x8, addend: 0x0, symName: __ZNSt3__117__compressed_pairIfNS_21__unordered_map_equalINS_12basic_stringIcNS_11char_traitsIcEENS_9allocatorIcEEEENS_17__hash_value_typeIS7_5ValueEENS_8equal_toIS7_EENS_4hashIS7_EELb1EEEEC1B7v160006IfNS_18__default_init_tagEEEOT_OT0_, symObjAddr: 0x85DC, symBinAddr: 0x10000CDCC, symSize: 0x88 }
  - { offsetInCU: 0x12369, offset: 0x12369, size: 0x8, addend: 0x0, symName: __ZNSt3__110unique_ptrIA_PNS_16__hash_node_baseIPNS_11__hash_nodeINS_17__hash_value_typeINS_12basic_stringIcNS_11char_traitsIcEENS_9allocatorIcEEEE5ValueEEPvEEEENS_25__bucket_list_deallocatorINS7_ISG_EEEEEC2B7v160006ILb1EvEEv, symObjAddr: 0x8664, symBinAddr: 0x10000CE54, symSize: 0x268 }
  - { offsetInCU: 0x123A4, offset: 0x123A4, size: 0x8, addend: 0x0, symName: __ZNSt3__117__compressed_pairIPPNS_16__hash_node_baseIPNS_11__hash_nodeINS_17__hash_value_typeINS_12basic_stringIcNS_11char_traitsIcEENS_9allocatorIcEEEE5ValueEEPvEEEENS_25__bucket_list_deallocatorINS7_ISG_EEEEEC1B7v160006INS_16__value_init_tagESN_EEOT_OT0_, symObjAddr: 0x88CC, symBinAddr: 0x10000D0BC, symSize: 0x88 }
  - { offsetInCU: 0x123FC, offset: 0x123FC, size: 0x8, addend: 0x0, symName: __ZNSt3__117__compressed_pairIPPNS_16__hash_node_baseIPNS_11__hash_nodeINS_17__hash_value_typeINS_12basic_stringIcNS_11char_traitsIcEENS_9allocatorIcEEEE5ValueEEPvEEEENS_25__bucket_list_deallocatorINS7_ISG_EEEEEC2B7v160006INS_16__value_init_tagESN_EEOT_OT0_, symObjAddr: 0x8954, symBinAddr: 0x10000D144, symSize: 0x118 }
  - { offsetInCU: 0x12454, offset: 0x12454, size: 0x8, addend: 0x0, symName: __ZNSt3__122__compressed_pair_elemIPPNS_16__hash_node_baseIPNS_11__hash_nodeINS_17__hash_value_typeINS_12basic_stringIcNS_11char_traitsIcEENS_9allocatorIcEEEE5ValueEEPvEEEELi0ELb0EEC2B7v160006ENS_16__value_init_tagE, symObjAddr: 0x8A6C, symBinAddr: 0x10000D25C, symSize: 0xB8 }
  - { offsetInCU: 0x12489, offset: 0x12489, size: 0x8, addend: 0x0, symName: __ZNSt3__122__compressed_pair_elemINS_25__bucket_list_deallocatorINS_9allocatorIPNS_16__hash_node_baseIPNS_11__hash_nodeINS_17__hash_value_typeINS_12basic_stringIcNS_11char_traitsIcEENS2_IcEEEE5ValueEEPvEEEEEEEELi1ELb0EEC2B7v160006ENS_16__value_init_tagE, symObjAddr: 0x8B24, symBinAddr: 0x10000D314, symSize: 0x78 }
  - { offsetInCU: 0x124BE, offset: 0x124BE, size: 0x8, addend: 0x0, symName: __ZNSt3__125__bucket_list_deallocatorINS_9allocatorIPNS_16__hash_node_baseIPNS_11__hash_nodeINS_17__hash_value_typeINS_12basic_stringIcNS_11char_traitsIcEENS1_IcEEEE5ValueEEPvEEEEEEEC1B7v160006Ev, symObjAddr: 0x8B9C, symBinAddr: 0x10000D38C, symSize: 0x78 }
  - { offsetInCU: 0x124E8, offset: 0x124E8, size: 0x8, addend: 0x0, symName: __ZNSt3__125__bucket_list_deallocatorINS_9allocatorIPNS_16__hash_node_baseIPNS_11__hash_nodeINS_17__hash_value_typeINS_12basic_stringIcNS_11char_traitsIcEENS1_IcEEEE5ValueEEPvEEEEEEEC2B7v160006Ev, symObjAddr: 0x8C14, symBinAddr: 0x10000D404, symSize: 0x2CC }
  - { offsetInCU: 0x12513, offset: 0x12513, size: 0x8, addend: 0x0, symName: __ZNSt3__117__compressed_pairImNS_9allocatorIPNS_16__hash_node_baseIPNS_11__hash_nodeINS_17__hash_value_typeINS_12basic_stringIcNS_11char_traitsIcEENS1_IcEEEE5ValueEEPvEEEEEEEC1B7v160006IiNS_18__default_init_tagEEEOT_OT0_, symObjAddr: 0x8EE0, symBinAddr: 0x10000D6D0, symSize: 0x88 }
  - { offsetInCU: 0x1256B, offset: 0x1256B, size: 0x8, addend: 0x0, symName: __ZNSt3__117__compressed_pairImNS_9allocatorIPNS_16__hash_node_baseIPNS_11__hash_nodeINS_17__hash_value_typeINS_12basic_stringIcNS_11char_traitsIcEENS1_IcEEEE5ValueEEPvEEEEEEEC2B7v160006IiNS_18__default_init_tagEEEOT_OT0_, symObjAddr: 0x8F68, symBinAddr: 0x10000D758, symSize: 0x140 }
  - { offsetInCU: 0x125C3, offset: 0x125C3, size: 0x8, addend: 0x0, symName: __ZNSt3__122__compressed_pair_elemImLi0ELb0EEC2B7v160006IivEEOT_, symObjAddr: 0x90A8, symBinAddr: 0x10000D898, symSize: 0x16C }
  - { offsetInCU: 0x12605, offset: 0x12605, size: 0x8, addend: 0x0, symName: __ZNSt3__122__compressed_pair_elemINS_9allocatorIPNS_16__hash_node_baseIPNS_11__hash_nodeINS_17__hash_value_typeINS_12basic_stringIcNS_11char_traitsIcEENS1_IcEEEE5ValueEEPvEEEEEELi1ELb1EEC2B7v160006ENS_18__default_init_tagE, symObjAddr: 0x9214, symBinAddr: 0x10000DA04, symSize: 0x84 }
  - { offsetInCU: 0x1263A, offset: 0x1263A, size: 0x8, addend: 0x0, symName: __ZNSt3__19allocatorIPNS_16__hash_node_baseIPNS_11__hash_nodeINS_17__hash_value_typeINS_12basic_stringIcNS_11char_traitsIcEENS0_IcEEEE5ValueEEPvEEEEEC2B7v160006Ev, symObjAddr: 0x9298, symBinAddr: 0x10000DA88, symSize: 0x84 }
  - { offsetInCU: 0x12664, offset: 0x12664, size: 0x8, addend: 0x0, symName: __ZNSt3__116__non_trivial_ifILb1ENS_9allocatorIPNS_16__hash_node_baseIPNS_11__hash_nodeINS_17__hash_value_typeINS_12basic_stringIcNS_11char_traitsIcEENS1_IcEEEE5ValueEEPvEEEEEEEC2B7v160006Ev, symObjAddr: 0x931C, symBinAddr: 0x10000DB0C, symSize: 0x54 }
  - { offsetInCU: 0x1268E, offset: 0x1268E, size: 0x8, addend: 0x0, symName: __ZNSt3__117__compressed_pairINS_16__hash_node_baseIPNS_11__hash_nodeINS_17__hash_value_typeINS_12basic_stringIcNS_11char_traitsIcEENS_9allocatorIcEEEE5ValueEEPvEEEENS7_ISD_EEEC2B7v160006ILb1EvEEv, symObjAddr: 0x9370, symBinAddr: 0x10000DB60, symSize: 0xEC }
  - { offsetInCU: 0x126C3, offset: 0x126C3, size: 0x8, addend: 0x0, symName: __ZNSt3__122__compressed_pair_elemINS_16__hash_node_baseIPNS_11__hash_nodeINS_17__hash_value_typeINS_12basic_stringIcNS_11char_traitsIcEENS_9allocatorIcEEEE5ValueEEPvEEEELi0ELb0EEC2B7v160006ENS_16__value_init_tagE, symObjAddr: 0x945C, symBinAddr: 0x10000DC4C, symSize: 0x78 }
  - { offsetInCU: 0x126F8, offset: 0x126F8, size: 0x8, addend: 0x0, symName: __ZNSt3__122__compressed_pair_elemINS_9allocatorINS_11__hash_nodeINS_17__hash_value_typeINS_12basic_stringIcNS_11char_traitsIcEENS1_IcEEEE5ValueEEPvEEEELi1ELb1EEC2B7v160006ENS_16__value_init_tagE, symObjAddr: 0x94D4, symBinAddr: 0x10000DCC4, symSize: 0x84 }
  - { offsetInCU: 0x1272D, offset: 0x1272D, size: 0x8, addend: 0x0, symName: __ZNSt3__116__hash_node_baseIPNS_11__hash_nodeINS_17__hash_value_typeINS_12basic_stringIcNS_11char_traitsIcEENS_9allocatorIcEEEE5ValueEEPvEEEC1B7v160006Ev, symObjAddr: 0x9558, symBinAddr: 0x10000DD48, symSize: 0x78 }
  - { offsetInCU: 0x12757, offset: 0x12757, size: 0x8, addend: 0x0, symName: __ZNSt3__116__hash_node_baseIPNS_11__hash_nodeINS_17__hash_value_typeINS_12basic_stringIcNS_11char_traitsIcEENS_9allocatorIcEEEE5ValueEEPvEEEC2B7v160006Ev, symObjAddr: 0x95D0, symBinAddr: 0x10000DDC0, symSize: 0xB8 }
  - { offsetInCU: 0x12781, offset: 0x12781, size: 0x8, addend: 0x0, symName: __ZNSt3__19allocatorINS_11__hash_nodeINS_17__hash_value_typeINS_12basic_stringIcNS_11char_traitsIcEENS0_IcEEEE5ValueEEPvEEEC2B7v160006Ev, symObjAddr: 0x9688, symBinAddr: 0x10000DE78, symSize: 0x84 }
  - { offsetInCU: 0x127AB, offset: 0x127AB, size: 0x8, addend: 0x0, symName: __ZNSt3__116__non_trivial_ifILb1ENS_9allocatorINS_11__hash_nodeINS_17__hash_value_typeINS_12basic_stringIcNS_11char_traitsIcEENS1_IcEEEE5ValueEEPvEEEEEC2B7v160006Ev, symObjAddr: 0x970C, symBinAddr: 0x10000DEFC, symSize: 0x54 }
  - { offsetInCU: 0x127D5, offset: 0x127D5, size: 0x8, addend: 0x0, symName: __ZNSt3__117__compressed_pairImNS_22__unordered_map_hasherINS_12basic_stringIcNS_11char_traitsIcEENS_9allocatorIcEEEENS_17__hash_value_typeIS7_5ValueEENS_4hashIS7_EENS_8equal_toIS7_EELb1EEEEC2B7v160006IiNS_18__default_init_tagEEEOT_OT0_, symObjAddr: 0x9760, symBinAddr: 0x10000DF50, symSize: 0x140 }
  - { offsetInCU: 0x1282D, offset: 0x1282D, size: 0x8, addend: 0x0, symName: __ZNSt3__122__compressed_pair_elemINS_22__unordered_map_hasherINS_12basic_stringIcNS_11char_traitsIcEENS_9allocatorIcEEEENS_17__hash_value_typeIS7_5ValueEENS_4hashIS7_EENS_8equal_toIS7_EELb1EEELi1ELb1EEC2B7v160006ENS_18__default_init_tagE, symObjAddr: 0x98A0, symBinAddr: 0x10000E090, symSize: 0x84 }
  - { offsetInCU: 0x12862, offset: 0x12862, size: 0x8, addend: 0x0, symName: __ZNSt3__122__unordered_map_hasherINS_12basic_stringIcNS_11char_traitsIcEENS_9allocatorIcEEEENS_17__hash_value_typeIS6_5ValueEENS_4hashIS6_EENS_8equal_toIS6_EELb1EEC2B7v160006Ev, symObjAddr: 0x9924, symBinAddr: 0x10000E114, symSize: 0x54 }
  - { offsetInCU: 0x1288C, offset: 0x1288C, size: 0x8, addend: 0x0, symName: __ZNSt3__117__compressed_pairIfNS_21__unordered_map_equalINS_12basic_stringIcNS_11char_traitsIcEENS_9allocatorIcEEEENS_17__hash_value_typeIS7_5ValueEENS_8equal_toIS7_EENS_4hashIS7_EELb1EEEEC2B7v160006IfNS_18__default_init_tagEEEOT_OT0_, symObjAddr: 0x9978, symBinAddr: 0x10000E168, symSize: 0x140 }
  - { offsetInCU: 0x128E4, offset: 0x128E4, size: 0x8, addend: 0x0, symName: __ZNSt3__122__compressed_pair_elemIfLi0ELb0EEC2B7v160006IfvEEOT_, symObjAddr: 0x9AB8, symBinAddr: 0x10000E2A8, symSize: 0x194 }
  - { offsetInCU: 0x12926, offset: 0x12926, size: 0x8, addend: 0x0, symName: __ZNSt3__122__compressed_pair_elemINS_21__unordered_map_equalINS_12basic_stringIcNS_11char_traitsIcEENS_9allocatorIcEEEENS_17__hash_value_typeIS7_5ValueEENS_8equal_toIS7_EENS_4hashIS7_EELb1EEELi1ELb1EEC2B7v160006ENS_18__default_init_tagE, symObjAddr: 0x9C4C, symBinAddr: 0x10000E43C, symSize: 0x84 }
  - { offsetInCU: 0x1295B, offset: 0x1295B, size: 0x8, addend: 0x0, symName: __ZNSt3__121__unordered_map_equalINS_12basic_stringIcNS_11char_traitsIcEENS_9allocatorIcEEEENS_17__hash_value_typeIS6_5ValueEENS_8equal_toIS6_EENS_4hashIS6_EELb1EEC2B7v160006Ev, symObjAddr: 0x9CD0, symBinAddr: 0x10000E4C0, symSize: 0x54 }
  - { offsetInCU: 0x12985, offset: 0x12985, size: 0x8, addend: 0x0, symName: __ZNSt3__112__hash_tableINS_17__hash_value_typeINS_12basic_stringIcNS_11char_traitsIcEENS_9allocatorIcEEEE5ValueEENS_22__unordered_map_hasherIS7_S9_NS_4hashIS7_EENS_8equal_toIS7_EELb1EEENS_21__unordered_map_equalIS7_S9_SE_SC_Lb1EEENS5_IS9_EEE15__insert_uniqueB7v160006ERKNS_4pairIKS7_S8_EE, symObjAddr: 0x9D24, symBinAddr: 0x10000E514, symSize: 0x34C }
  - { offsetInCU: 0x129BC, offset: 0x129BC, size: 0x8, addend: 0x0, symName: __ZNSt3__112__hash_tableINS_17__hash_value_typeINS_12basic_stringIcNS_11char_traitsIcEENS_9allocatorIcEEEE5ValueEENS_22__unordered_map_hasherIS7_S9_NS_4hashIS7_EENS_8equal_toIS7_EELb1EEENS_21__unordered_map_equalIS7_S9_SE_SC_Lb1EEENS5_IS9_EEE25__emplace_unique_key_argsIS7_JRKNS_4pairIKS7_S8_EEEEENSL_INS_15__hash_iteratorIPNS_11__hash_nodeIS9_PvEEEEbEERKT_DpOT0_, symObjAddr: 0xA070, symBinAddr: 0x10000E860, symSize: 0x1D08 }
  - { offsetInCU: 0x12AA6, offset: 0x12AA6, size: 0x8, addend: 0x0, symName: __ZNSt3__122__hash_key_value_typesINS_17__hash_value_typeINS_12basic_stringIcNS_11char_traitsIcEENS_9allocatorIcEEEE5ValueEEE9__get_keyB7v160006ERKNS_4pairIKS7_S8_EE, symObjAddr: 0xBD78, symBinAddr: 0x100010568, symSize: 0x68 }
  - { offsetInCU: 0x12AC9, offset: 0x12AC9, size: 0x8, addend: 0x0, symName: __ZNSt3__112__hash_tableINS_17__hash_value_typeINS_12basic_stringIcNS_11char_traitsIcEENS_9allocatorIcEEEE5ValueEENS_22__unordered_map_hasherIS7_S9_NS_4hashIS7_EENS_8equal_toIS7_EELb1EEENS_21__unordered_map_equalIS7_S9_SE_SC_Lb1EEENS5_IS9_EEE13hash_functionB7v160006Ev, symObjAddr: 0xBDE0, symBinAddr: 0x1000105D0, symSize: 0xE4 }
  - { offsetInCU: 0x12AEF, offset: 0x12AEF, size: 0x8, addend: 0x0, symName: __ZNKSt3__122__unordered_map_hasherINS_12basic_stringIcNS_11char_traitsIcEENS_9allocatorIcEEEENS_17__hash_value_typeIS6_5ValueEENS_4hashIS6_EENS_8equal_toIS6_EELb1EEclB7v160006ERKS6_, symObjAddr: 0xBEC4, symBinAddr: 0x1000106B4, symSize: 0xC8 }
  - { offsetInCU: 0x12B24, offset: 0x12B24, size: 0x8, addend: 0x0, symName: __ZNKSt3__112__hash_tableINS_17__hash_value_typeINS_12basic_stringIcNS_11char_traitsIcEENS_9allocatorIcEEEE5ValueEENS_22__unordered_map_hasherIS7_S9_NS_4hashIS7_EENS_8equal_toIS7_EELb1EEENS_21__unordered_map_equalIS7_S9_SE_SC_Lb1EEENS5_IS9_EEE12bucket_countB7v160006Ev, symObjAddr: 0xBF8C, symBinAddr: 0x10001077C, symSize: 0xFC }
  - { offsetInCU: 0x12B4A, offset: 0x12B4A, size: 0x8, addend: 0x0, symName: __ZNKSt3__110unique_ptrIA_PNS_16__hash_node_baseIPNS_11__hash_nodeINS_17__hash_value_typeINS_12basic_stringIcNS_11char_traitsIcEENS_9allocatorIcEEEE5ValueEEPvEEEENS_25__bucket_list_deallocatorINS7_ISG_EEEEEixB7v160006Em, symObjAddr: 0xC164, symBinAddr: 0x100010954, symSize: 0x25C }
  - { offsetInCU: 0x12B7F, offset: 0x12B7F, size: 0x8, addend: 0x0, symName: __ZNKSt3__116__hash_node_baseIPNS_11__hash_nodeINS_17__hash_value_typeINS_12basic_stringIcNS_11char_traitsIcEENS_9allocatorIcEEEE5ValueEEPvEEE6__hashB7v160006Ev, symObjAddr: 0xC3C0, symBinAddr: 0x100010BB0, symSize: 0x180 }
  - { offsetInCU: 0x12BA5, offset: 0x12BA5, size: 0x8, addend: 0x0, symName: __ZNSt3__112__hash_tableINS_17__hash_value_typeINS_12basic_stringIcNS_11char_traitsIcEENS_9allocatorIcEEEE5ValueEENS_22__unordered_map_hasherIS7_S9_NS_4hashIS7_EENS_8equal_toIS7_EELb1EEENS_21__unordered_map_equalIS7_S9_SE_SC_Lb1EEENS5_IS9_EEE6key_eqB7v160006Ev, symObjAddr: 0xC540, symBinAddr: 0x100010D30, symSize: 0xE4 }
  - { offsetInCU: 0x12BCB, offset: 0x12BCB, size: 0x8, addend: 0x0, symName: __ZNKSt3__121__unordered_map_equalINS_12basic_stringIcNS_11char_traitsIcEENS_9allocatorIcEEEENS_17__hash_value_typeIS6_5ValueEENS_8equal_toIS6_EENS_4hashIS6_EELb1EEclB7v160006ERKS9_RKS6_, symObjAddr: 0xC624, symBinAddr: 0x100010E14, symSize: 0x190 }
  - { offsetInCU: 0x12C0F, offset: 0x12C0F, size: 0x8, addend: 0x0, symName: __ZNSt3__116__hash_node_baseIPNS_11__hash_nodeINS_17__hash_value_typeINS_12basic_stringIcNS_11char_traitsIcEENS_9allocatorIcEEEE5ValueEEPvEEE8__upcastB7v160006Ev, symObjAddr: 0xC7B4, symBinAddr: 0x100010FA4, symSize: 0xF8 }
  - { offsetInCU: 0x12C35, offset: 0x12C35, size: 0x8, addend: 0x0, symName: __ZNSt3__112__hash_tableINS_17__hash_value_typeINS_12basic_stringIcNS_11char_traitsIcEENS_9allocatorIcEEEE5ValueEENS_22__unordered_map_hasherIS7_S9_NS_4hashIS7_EENS_8equal_toIS7_EELb1EEENS_21__unordered_map_equalIS7_S9_SE_SC_Lb1EEENS5_IS9_EEE21__construct_node_hashIRKNS_4pairIKS7_S8_EEJEEENS_10unique_ptrINS_11__hash_nodeIS9_PvEENS_22__hash_node_destructorINS5_IST_EEEEEEmOT_DpOT0_, symObjAddr: 0xC8AC, symBinAddr: 0x10001109C, symSize: 0x8E0 }
  - { offsetInCU: 0x12CAD, offset: 0x12CAD, size: 0x8, addend: 0x0, symName: __ZNSt3__112__hash_tableINS_17__hash_value_typeINS_12basic_stringIcNS_11char_traitsIcEENS_9allocatorIcEEEE5ValueEENS_22__unordered_map_hasherIS7_S9_NS_4hashIS7_EENS_8equal_toIS7_EELb1EEENS_21__unordered_map_equalIS7_S9_SE_SC_Lb1EEENS5_IS9_EEE4sizeB7v160006Ev, symObjAddr: 0xD18C, symBinAddr: 0x10001197C, symSize: 0x100 }
  - { offsetInCU: 0x12CD3, offset: 0x12CD3, size: 0x8, addend: 0x0, symName: __ZNSt3__112__hash_tableINS_17__hash_value_typeINS_12basic_stringIcNS_11char_traitsIcEENS_9allocatorIcEEEE5ValueEENS_22__unordered_map_hasherIS7_S9_NS_4hashIS7_EENS_8equal_toIS7_EELb1EEENS_21__unordered_map_equalIS7_S9_SE_SC_Lb1EEENS5_IS9_EEE15max_load_factorB7v160006Ev, symObjAddr: 0xD28C, symBinAddr: 0x100011A7C, symSize: 0x100 }
  - { offsetInCU: 0x12CF9, offset: 0x12CF9, size: 0x8, addend: 0x0, symName: __ZNSt3__112__hash_tableINS_17__hash_value_typeINS_12basic_stringIcNS_11char_traitsIcEENS_9allocatorIcEEEE5ValueEENS_22__unordered_map_hasherIS7_S9_NS_4hashIS7_EENS_8equal_toIS7_EELb1EEENS_21__unordered_map_equalIS7_S9_SE_SC_Lb1EEENS5_IS9_EEE15__rehash_uniqueB7v160006Em, symObjAddr: 0xD38C, symBinAddr: 0x100011B7C, symSize: 0x74 }
  - { offsetInCU: 0x12D2D, offset: 0x12D2D, size: 0x8, addend: 0x0, symName: __Z4ceilB7v160006f, symObjAddr: 0xD554, symBinAddr: 0x100011D44, symSize: 0x18 }
  - { offsetInCU: 0x12D5C, offset: 0x12D5C, size: 0x8, addend: 0x0, symName: __ZNSt3__117__compressed_pairINS_16__hash_node_baseIPNS_11__hash_nodeINS_17__hash_value_typeINS_12basic_stringIcNS_11char_traitsIcEENS_9allocatorIcEEEE5ValueEEPvEEEENS7_ISD_EEE5firstB7v160006Ev, symObjAddr: 0xD56C, symBinAddr: 0x100011D5C, symSize: 0x124 }
  - { offsetInCU: 0x12D82, offset: 0x12D82, size: 0x8, addend: 0x0, symName: __ZNSt3__116__hash_node_baseIPNS_11__hash_nodeINS_17__hash_value_typeINS_12basic_stringIcNS_11char_traitsIcEENS_9allocatorIcEEEE5ValueEEPvEEE5__ptrB7v160006Ev, symObjAddr: 0xD690, symBinAddr: 0x100011E80, symSize: 0xB0 }
  - { offsetInCU: 0x12DA8, offset: 0x12DA8, size: 0x8, addend: 0x0, symName: __ZNKSt3__110unique_ptrINS_11__hash_nodeINS_17__hash_value_typeINS_12basic_stringIcNS_11char_traitsIcEENS_9allocatorIcEEEE5ValueEEPvEENS_22__hash_node_destructorINS6_ISC_EEEEEptB7v160006Ev, symObjAddr: 0xD740, symBinAddr: 0x100011F30, symSize: 0x13C }
  - { offsetInCU: 0x12DCE, offset: 0x12DCE, size: 0x8, addend: 0x0, symName: __ZNKSt3__110unique_ptrINS_11__hash_nodeINS_17__hash_value_typeINS_12basic_stringIcNS_11char_traitsIcEENS_9allocatorIcEEEE5ValueEEPvEENS_22__hash_node_destructorINS6_ISC_EEEEE3getB7v160006Ev, symObjAddr: 0xD87C, symBinAddr: 0x10001206C, symSize: 0x13C }
  - { offsetInCU: 0x12DF4, offset: 0x12DF4, size: 0x8, addend: 0x0, symName: __ZNSt3__110unique_ptrINS_11__hash_nodeINS_17__hash_value_typeINS_12basic_stringIcNS_11char_traitsIcEENS_9allocatorIcEEEE5ValueEEPvEENS_22__hash_node_destructorINS6_ISC_EEEEE7releaseB7v160006Ev, symObjAddr: 0xD9B8, symBinAddr: 0x1000121A8, symSize: 0x20C }
  - { offsetInCU: 0x12E29, offset: 0x12E29, size: 0x8, addend: 0x0, symName: __ZNSt3__110unique_ptrINS_11__hash_nodeINS_17__hash_value_typeINS_12basic_stringIcNS_11char_traitsIcEENS_9allocatorIcEEEE5ValueEEPvEENS_22__hash_node_destructorINS6_ISC_EEEEED1B7v160006Ev, symObjAddr: 0xDBC4, symBinAddr: 0x1000123B4, symSize: 0x78 }
  - { offsetInCU: 0x12E53, offset: 0x12E53, size: 0x8, addend: 0x0, symName: __ZNSt3__115__hash_iteratorIPNS_11__hash_nodeINS_17__hash_value_typeINS_12basic_stringIcNS_11char_traitsIcEENS_9allocatorIcEEEE5ValueEEPvEEEC1B7v160006EPNS_16__hash_node_baseISD_EEPKv, symObjAddr: 0xDC3C, symBinAddr: 0x10001242C, symSize: 0x88 }
  - { offsetInCU: 0x12EA5, offset: 0x12EA5, size: 0x8, addend: 0x0, symName: __ZNSt3__14pairINS_15__hash_iteratorIPNS_11__hash_nodeINS_17__hash_value_typeINS_12basic_stringIcNS_11char_traitsIcEENS_9allocatorIcEEEE5ValueEEPvEEEEbEC1B7v160006ISF_RbLSC_0EEEOT_OT0_, symObjAddr: 0xDCC4, symBinAddr: 0x1000124B4, symSize: 0x88 }
  - { offsetInCU: 0x12F03, offset: 0x12F03, size: 0x8, addend: 0x0, symName: __ZNSt3__117__compressed_pairImNS_22__unordered_map_hasherINS_12basic_stringIcNS_11char_traitsIcEENS_9allocatorIcEEEENS_17__hash_value_typeIS7_5ValueEENS_4hashIS7_EENS_8equal_toIS7_EELb1EEEE6secondB7v160006Ev, symObjAddr: 0xDD4C, symBinAddr: 0x10001253C, symSize: 0x108 }
  - { offsetInCU: 0x12F29, offset: 0x12F29, size: 0x8, addend: 0x0, symName: __ZNSt3__122__compressed_pair_elemINS_22__unordered_map_hasherINS_12basic_stringIcNS_11char_traitsIcEENS_9allocatorIcEEEENS_17__hash_value_typeIS7_5ValueEENS_4hashIS7_EENS_8equal_toIS7_EELb1EEELi1ELb1EE5__getB7v160006Ev, symObjAddr: 0xDE54, symBinAddr: 0x100012644, symSize: 0x74 }
  - { offsetInCU: 0x12F4F, offset: 0x12F4F, size: 0x8, addend: 0x0, symName: __ZNKSt3__113__string_hashIcNS_9allocatorIcEEEclERKNS_12basic_stringIcNS_11char_traitsIcEES2_EE, symObjAddr: 0xDEC8, symBinAddr: 0x1000126B8, symSize: 0x1EC }
  - { offsetInCU: 0x12F84, offset: 0x12F84, size: 0x8, addend: 0x0, symName: __ZNKSt3__112basic_stringIcNS_11char_traitsIcEENS_9allocatorIcEEE4dataB7v160006Ev, symObjAddr: 0xE2A0, symBinAddr: 0x100012A90, symSize: 0x70 }
  - { offsetInCU: 0x12FAA, offset: 0x12FAA, size: 0x8, addend: 0x0, symName: __ZNKSt3__112basic_stringIcNS_11char_traitsIcEENS_9allocatorIcEEE4sizeB7v160006Ev, symObjAddr: 0xE310, symBinAddr: 0x100012B00, symSize: 0x98 }
  - { offsetInCU: 0x12FD0, offset: 0x12FD0, size: 0x8, addend: 0x0, symName: __ZNSt3__121__murmur2_or_cityhashImLm64EEclEPKvm, symObjAddr: 0xE3A8, symBinAddr: 0x100012B98, symSize: 0x1C6C }
  - { offsetInCU: 0x1307D, offset: 0x1307D, size: 0x8, addend: 0x0, symName: __ZNSt3__121__murmur2_or_cityhashImLm64EE18__hash_len_0_to_16EPKcm, symObjAddr: 0x10014, symBinAddr: 0x100014804, symSize: 0x88C }
  - { offsetInCU: 0x1315B, offset: 0x1315B, size: 0x8, addend: 0x0, symName: __ZNSt3__121__murmur2_or_cityhashImLm64EE19__hash_len_17_to_32EPKcm, symObjAddr: 0x108A0, symBinAddr: 0x100015090, symSize: 0x494 }
  - { offsetInCU: 0x131C4, offset: 0x131C4, size: 0x8, addend: 0x0, symName: __ZNSt3__121__murmur2_or_cityhashImLm64EE19__hash_len_33_to_64EPKcm, symObjAddr: 0x10D34, symBinAddr: 0x100015524, symSize: 0xBEC }
  - { offsetInCU: 0x13278, offset: 0x13278, size: 0x8, addend: 0x0, symName: __ZNSt3__121__murmur2_or_cityhashImLm64EE13__hash_len_16Emm, symObjAddr: 0x11B34, symBinAddr: 0x100016324, symSize: 0xF0 }
  - { offsetInCU: 0x132D3, offset: 0x132D3, size: 0x8, addend: 0x0, symName: __ZNSt3__121__murmur2_or_cityhashImLm64EE29__weak_hash_len_32_with_seedsEPKcmm, symObjAddr: 0x11C24, symBinAddr: 0x100016414, symSize: 0x42C }
  - { offsetInCU: 0x13315, offset: 0x13315, size: 0x8, addend: 0x0, symName: __ZNSt3__121__murmur2_or_cityhashImLm64EE8__rotateEmi, symObjAddr: 0x12050, symBinAddr: 0x100016840, symSize: 0x11C }
  - { offsetInCU: 0x13346, offset: 0x13346, size: 0x8, addend: 0x0, symName: __ZNSt3__14pairImmEaSB7v160006EOS1_, symObjAddr: 0x1216C, symBinAddr: 0x10001695C, symSize: 0x248 }
  - { offsetInCU: 0x1337B, offset: 0x1337B, size: 0x8, addend: 0x0, symName: __ZNSt3__121__murmur2_or_cityhashImLm64EE11__shift_mixEm, symObjAddr: 0x12574, symBinAddr: 0x100016D64, symSize: 0x5C }
  - { offsetInCU: 0x1339E, offset: 0x1339E, size: 0x8, addend: 0x0, symName: __ZNSt3__121__murmur2_or_cityhashImLm64EE22__rotate_by_at_least_1Emi, symObjAddr: 0x125D0, symBinAddr: 0x100016DC0, symSize: 0xF0 }
  - { offsetInCU: 0x133CF, offset: 0x133CF, size: 0x8, addend: 0x0, symName: __ZNSt3__121__murmur2_or_cityhashImLm64EE29__weak_hash_len_32_with_seedsEmmmmmm, symObjAddr: 0x12900, symBinAddr: 0x1000170F0, symSize: 0x398 }
  - { offsetInCU: 0x13452, offset: 0x13452, size: 0x8, addend: 0x0, symName: __ZNSt3__14pairImmEC1B7v160006ImmLPv0EEEOT_OT0_, symObjAddr: 0x12C98, symBinAddr: 0x100017488, symSize: 0x88 }
  - { offsetInCU: 0x134B0, offset: 0x134B0, size: 0x8, addend: 0x0, symName: __ZNSt3__14pairImmEC2B7v160006ImmLPv0EEEOT_OT0_, symObjAddr: 0x12D20, symBinAddr: 0x100017510, symSize: 0x210 }
  - { offsetInCU: 0x1350E, offset: 0x1350E, size: 0x8, addend: 0x0, symName: __ZNKSt3__112basic_stringIcNS_11char_traitsIcEENS_9allocatorIcEEE13__get_pointerB7v160006Ev, symObjAddr: 0x12F44, symBinAddr: 0x100017734, symSize: 0x98 }
  - { offsetInCU: 0x13534, offset: 0x13534, size: 0x8, addend: 0x0, symName: __ZNKSt3__112basic_stringIcNS_11char_traitsIcEENS_9allocatorIcEEE9__is_longB7v160006Ev, symObjAddr: 0x12FDC, symBinAddr: 0x1000177CC, symSize: 0x1FC }
  - { offsetInCU: 0x1355A, offset: 0x1355A, size: 0x8, addend: 0x0, symName: __ZNKSt3__112basic_stringIcNS_11char_traitsIcEENS_9allocatorIcEEE18__get_long_pointerB7v160006Ev, symObjAddr: 0x131D8, symBinAddr: 0x1000179C8, symSize: 0x208 }
  - { offsetInCU: 0x13580, offset: 0x13580, size: 0x8, addend: 0x0, symName: __ZNKSt3__112basic_stringIcNS_11char_traitsIcEENS_9allocatorIcEEE19__get_short_pointerB7v160006Ev, symObjAddr: 0x133E0, symBinAddr: 0x100017BD0, symSize: 0x1CC }
  - { offsetInCU: 0x135A6, offset: 0x135A6, size: 0x8, addend: 0x0, symName: __ZNKSt3__117__compressed_pairINS_12basic_stringIcNS_11char_traitsIcEENS_9allocatorIcEEE5__repES5_E5firstB7v160006Ev, symObjAddr: 0x135AC, symBinAddr: 0x100017D9C, symSize: 0x124 }
  - { offsetInCU: 0x135CC, offset: 0x135CC, size: 0x8, addend: 0x0, symName: __ZNKSt3__122__compressed_pair_elemINS_12basic_stringIcNS_11char_traitsIcEENS_9allocatorIcEEE5__repELi0ELb0EE5__getB7v160006Ev, symObjAddr: 0x136D0, symBinAddr: 0x100017EC0, symSize: 0xAC }
  - { offsetInCU: 0x135F2, offset: 0x135F2, size: 0x8, addend: 0x0, symName: __ZNSt3__114pointer_traitsIPKcE10pointer_toB7v160006ERS1_, symObjAddr: 0x1377C, symBinAddr: 0x100017F6C, symSize: 0x14 }
  - { offsetInCU: 0x13615, offset: 0x13615, size: 0x8, addend: 0x0, symName: __ZNKSt3__112basic_stringIcNS_11char_traitsIcEENS_9allocatorIcEEE15__get_long_sizeB7v160006Ev, symObjAddr: 0x13790, symBinAddr: 0x100017F80, symSize: 0x210 }
  - { offsetInCU: 0x1363B, offset: 0x1363B, size: 0x8, addend: 0x0, symName: __ZNKSt3__112basic_stringIcNS_11char_traitsIcEENS_9allocatorIcEEE16__get_short_sizeB7v160006Ev, symObjAddr: 0x139A0, symBinAddr: 0x100018190, symSize: 0x1F8 }
  - { offsetInCU: 0x13661, offset: 0x13661, size: 0x8, addend: 0x0, symName: __ZNKSt3__110unique_ptrIA_PNS_16__hash_node_baseIPNS_11__hash_nodeINS_17__hash_value_typeINS_12basic_stringIcNS_11char_traitsIcEENS_9allocatorIcEEEE5ValueEEPvEEEENS_25__bucket_list_deallocatorINS7_ISG_EEEEE11get_deleterB7v160006Ev, symObjAddr: 0x13B98, symBinAddr: 0x100018388, symSize: 0xF8 }
  - { offsetInCU: 0x13687, offset: 0x13687, size: 0x8, addend: 0x0, symName: __ZNKSt3__125__bucket_list_deallocatorINS_9allocatorIPNS_16__hash_node_baseIPNS_11__hash_nodeINS_17__hash_value_typeINS_12basic_stringIcNS_11char_traitsIcEENS1_IcEEEE5ValueEEPvEEEEEEE4sizeB7v160006Ev, symObjAddr: 0x13C90, symBinAddr: 0x100018480, symSize: 0x13C }
  - { offsetInCU: 0x136AD, offset: 0x136AD, size: 0x8, addend: 0x0, symName: __ZNKSt3__117__compressed_pairIPPNS_16__hash_node_baseIPNS_11__hash_nodeINS_17__hash_value_typeINS_12basic_stringIcNS_11char_traitsIcEENS_9allocatorIcEEEE5ValueEEPvEEEENS_25__bucket_list_deallocatorINS7_ISG_EEEEE6secondB7v160006Ev, symObjAddr: 0x13DCC, symBinAddr: 0x1000185BC, symSize: 0x12C }
  - { offsetInCU: 0x136D3, offset: 0x136D3, size: 0x8, addend: 0x0, symName: __ZNKSt3__122__compressed_pair_elemINS_25__bucket_list_deallocatorINS_9allocatorIPNS_16__hash_node_baseIPNS_11__hash_nodeINS_17__hash_value_typeINS_12basic_stringIcNS_11char_traitsIcEENS2_IcEEEE5ValueEEPvEEEEEEEELi1ELb0EE5__getB7v160006Ev, symObjAddr: 0x13EF8, symBinAddr: 0x1000186E8, symSize: 0xAC }
  - { offsetInCU: 0x136F9, offset: 0x136F9, size: 0x8, addend: 0x0, symName: __ZNKSt3__117__compressed_pairImNS_9allocatorIPNS_16__hash_node_baseIPNS_11__hash_nodeINS_17__hash_value_typeINS_12basic_stringIcNS_11char_traitsIcEENS1_IcEEEE5ValueEEPvEEEEEEE5firstB7v160006Ev, symObjAddr: 0x13FA4, symBinAddr: 0x100018794, symSize: 0x124 }
  - { offsetInCU: 0x1371F, offset: 0x1371F, size: 0x8, addend: 0x0, symName: __ZNKSt3__122__compressed_pair_elemImLi0ELb0EE5__getB7v160006Ev, symObjAddr: 0x140C8, symBinAddr: 0x1000188B8, symSize: 0xAC }
  - { offsetInCU: 0x13745, offset: 0x13745, size: 0x8, addend: 0x0, symName: __ZNKSt3__117__compressed_pairIPPNS_16__hash_node_baseIPNS_11__hash_nodeINS_17__hash_value_typeINS_12basic_stringIcNS_11char_traitsIcEENS_9allocatorIcEEEE5ValueEEPvEEEENS_25__bucket_list_deallocatorINS7_ISG_EEEEE5firstB7v160006Ev, symObjAddr: 0x14174, symBinAddr: 0x100018964, symSize: 0x124 }
  - { offsetInCU: 0x1376B, offset: 0x1376B, size: 0x8, addend: 0x0, symName: __ZNKSt3__122__compressed_pair_elemIPPNS_16__hash_node_baseIPNS_11__hash_nodeINS_17__hash_value_typeINS_12basic_stringIcNS_11char_traitsIcEENS_9allocatorIcEEEE5ValueEEPvEEEELi0ELb0EE5__getB7v160006Ev, symObjAddr: 0x14298, symBinAddr: 0x100018A88, symSize: 0xAC }
  - { offsetInCU: 0x13791, offset: 0x13791, size: 0x8, addend: 0x0, symName: __ZNSt3__117__compressed_pairIfNS_21__unordered_map_equalINS_12basic_stringIcNS_11char_traitsIcEENS_9allocatorIcEEEENS_17__hash_value_typeIS7_5ValueEENS_8equal_toIS7_EENS_4hashIS7_EELb1EEEE6secondB7v160006Ev, symObjAddr: 0x14344, symBinAddr: 0x100018B34, symSize: 0x108 }
  - { offsetInCU: 0x137B7, offset: 0x137B7, size: 0x8, addend: 0x0, symName: __ZNSt3__122__compressed_pair_elemINS_21__unordered_map_equalINS_12basic_stringIcNS_11char_traitsIcEENS_9allocatorIcEEEENS_17__hash_value_typeIS7_5ValueEENS_8equal_toIS7_EENS_4hashIS7_EELb1EEELi1ELb1EE5__getB7v160006Ev, symObjAddr: 0x1444C, symBinAddr: 0x100018C3C, symSize: 0x74 }
  - { offsetInCU: 0x137DD, offset: 0x137DD, size: 0x8, addend: 0x0, symName: __ZNKSt3__18equal_toINS_12basic_stringIcNS_11char_traitsIcEENS_9allocatorIcEEEEEclB7v160006ERKS6_S9_, symObjAddr: 0x144C0, symBinAddr: 0x100018CB0, symSize: 0xF0 }
  - { offsetInCU: 0x13821, offset: 0x13821, size: 0x8, addend: 0x0, symName: __ZNKSt3__117__hash_value_typeINS_12basic_stringIcNS_11char_traitsIcEENS_9allocatorIcEEEE5ValueE11__get_valueB7v160006Ev, symObjAddr: 0x145B0, symBinAddr: 0x100018DA0, symSize: 0xB4 }
  - { offsetInCU: 0x13847, offset: 0x13847, size: 0x8, addend: 0x0, symName: __ZNSt3__111char_traitsIcE7compareEPKcS3_m, symObjAddr: 0x14ABC, symBinAddr: 0x1000192AC, symSize: 0x78 }
  - { offsetInCU: 0x13886, offset: 0x13886, size: 0x8, addend: 0x0, symName: __ZNSt3__114pointer_traitsIPNS_16__hash_node_baseIPNS_11__hash_nodeINS_17__hash_value_typeINS_12basic_stringIcNS_11char_traitsIcEENS_9allocatorIcEEEE5ValueEEPvEEEEE10pointer_toB7v160006ERSF_, symObjAddr: 0x14BA0, symBinAddr: 0x100019390, symSize: 0x14 }
  - { offsetInCU: 0x138A9, offset: 0x138A9, size: 0x8, addend: 0x0, symName: __ZNSt3__112__hash_tableINS_17__hash_value_typeINS_12basic_stringIcNS_11char_traitsIcEENS_9allocatorIcEEEE5ValueEENS_22__unordered_map_hasherIS7_S9_NS_4hashIS7_EENS_8equal_toIS7_EELb1EEENS_21__unordered_map_equalIS7_S9_SE_SC_Lb1EEENS5_IS9_EEE12__node_allocB7v160006Ev, symObjAddr: 0x14BB4, symBinAddr: 0x1000193A4, symSize: 0xE4 }
  - { offsetInCU: 0x138CF, offset: 0x138CF, size: 0x8, addend: 0x0, symName: __ZNSt3__116allocator_traitsINS_9allocatorINS_11__hash_nodeINS_17__hash_value_typeINS_12basic_stringIcNS_11char_traitsIcEENS1_IcEEEE5ValueEEPvEEEEE8allocateB7v160006ERSD_m, symObjAddr: 0x14C98, symBinAddr: 0x100019488, symSize: 0x2C }
  - { offsetInCU: 0x13902, offset: 0x13902, size: 0x8, addend: 0x0, symName: __ZNSt3__122__hash_node_destructorINS_9allocatorINS_11__hash_nodeINS_17__hash_value_typeINS_12basic_stringIcNS_11char_traitsIcEENS1_IcEEEE5ValueEEPvEEEEEC1B7v160006ERSD_b, symObjAddr: 0x14CC4, symBinAddr: 0x1000194B4, symSize: 0xCC }
  - { offsetInCU: 0x1394F, offset: 0x1394F, size: 0x8, addend: 0x0, symName: __ZNSt3__110unique_ptrINS_11__hash_nodeINS_17__hash_value_typeINS_12basic_stringIcNS_11char_traitsIcEENS_9allocatorIcEEEE5ValueEEPvEENS_22__hash_node_destructorINS6_ISC_EEEEEC1B7v160006ILb1EvEEPSC_NS_16__dependent_typeINS_27__unique_ptr_deleter_sfinaeISF_EEXT_EE20__good_rval_ref_typeE, symObjAddr: 0x14D90, symBinAddr: 0x100019580, symSize: 0x88 }
  - { offsetInCU: 0x139A0, offset: 0x139A0, size: 0x8, addend: 0x0, symName: __ZNSt3__116allocator_traitsINS_9allocatorINS_11__hash_nodeINS_17__hash_value_typeINS_12basic_stringIcNS_11char_traitsIcEENS1_IcEEEE5ValueEEPvEEEEE9constructB7v160006INS_4pairIKS8_S9_EEJRKSI_EvEEvRSD_PT_DpOT0_, symObjAddr: 0x14E18, symBinAddr: 0x100019608, symSize: 0x8C }
  - { offsetInCU: 0x139F7, offset: 0x139F7, size: 0x8, addend: 0x0, symName: __ZNSt3__122__hash_key_value_typesINS_17__hash_value_typeINS_12basic_stringIcNS_11char_traitsIcEENS_9allocatorIcEEEE5ValueEEE9__get_ptrB7v160006ERS9_, symObjAddr: 0x14EA4, symBinAddr: 0x100019694, symSize: 0x50 }
  - { offsetInCU: 0x13A1A, offset: 0x13A1A, size: 0x8, addend: 0x0, symName: __ZNSt3__110unique_ptrINS_11__hash_nodeINS_17__hash_value_typeINS_12basic_stringIcNS_11char_traitsIcEENS_9allocatorIcEEEE5ValueEEPvEENS_22__hash_node_destructorINS6_ISC_EEEEE11get_deleterB7v160006Ev, symObjAddr: 0x14EF4, symBinAddr: 0x1000196E4, symSize: 0xF8 }
  - { offsetInCU: 0x13A40, offset: 0x13A40, size: 0x8, addend: 0x0, symName: __ZNSt3__117__compressed_pairINS_16__hash_node_baseIPNS_11__hash_nodeINS_17__hash_value_typeINS_12basic_stringIcNS_11char_traitsIcEENS_9allocatorIcEEEE5ValueEEPvEEEENS7_ISD_EEE6secondB7v160006Ev, symObjAddr: 0x14FEC, symBinAddr: 0x1000197DC, symSize: 0x108 }
  - { offsetInCU: 0x13A66, offset: 0x13A66, size: 0x8, addend: 0x0, symName: __ZNSt3__122__compressed_pair_elemINS_9allocatorINS_11__hash_nodeINS_17__hash_value_typeINS_12basic_stringIcNS_11char_traitsIcEENS1_IcEEEE5ValueEEPvEEEELi1ELb1EE5__getB7v160006Ev, symObjAddr: 0x150F4, symBinAddr: 0x1000198E4, symSize: 0x74 }
  - { offsetInCU: 0x13A8C, offset: 0x13A8C, size: 0x8, addend: 0x0, symName: __ZNSt3__19allocatorINS_11__hash_nodeINS_17__hash_value_typeINS_12basic_stringIcNS_11char_traitsIcEENS0_IcEEEE5ValueEEPvEEE8allocateB7v160006Em, symObjAddr: 0x15168, symBinAddr: 0x100019958, symSize: 0xD0 }
  - { offsetInCU: 0x13ACA, offset: 0x13ACA, size: 0x8, addend: 0x0, symName: __ZNSt3__116allocator_traitsINS_9allocatorINS_11__hash_nodeINS_17__hash_value_typeINS_12basic_stringIcNS_11char_traitsIcEENS1_IcEEEE5ValueEEPvEEEEE8max_sizeB7v160006ISD_vEEmRKSD_, symObjAddr: 0x15238, symBinAddr: 0x100019A28, symSize: 0x24 }
  - { offsetInCU: 0x13AF8, offset: 0x13AF8, size: 0x8, addend: 0x0, symName: __ZNKSt3__19allocatorINS_11__hash_nodeINS_17__hash_value_typeINS_12basic_stringIcNS_11char_traitsIcEENS0_IcEEEE5ValueEEPvEEE8max_sizeB7v160006Ev, symObjAddr: 0x15338, symBinAddr: 0x100019B28, symSize: 0x50 }
  - { offsetInCU: 0x13B1E, offset: 0x13B1E, size: 0x8, addend: 0x0, symName: __ZNSt3__122__hash_node_destructorINS_9allocatorINS_11__hash_nodeINS_17__hash_value_typeINS_12basic_stringIcNS_11char_traitsIcEENS1_IcEEEE5ValueEEPvEEEEEC2B7v160006ERSD_b, symObjAddr: 0x15438, symBinAddr: 0x100019C28, symSize: 0x1A0 }
  - { offsetInCU: 0x13B66, offset: 0x13B66, size: 0x8, addend: 0x0, symName: __ZNSt3__110unique_ptrINS_11__hash_nodeINS_17__hash_value_typeINS_12basic_stringIcNS_11char_traitsIcEENS_9allocatorIcEEEE5ValueEEPvEENS_22__hash_node_destructorINS6_ISC_EEEEEC2B7v160006ILb1EvEEPSC_NS_16__dependent_typeINS_27__unique_ptr_deleter_sfinaeISF_EEXT_EE20__good_rval_ref_typeE, symObjAddr: 0x155D8, symBinAddr: 0x100019DC8, symSize: 0x2BC }
  - { offsetInCU: 0x13BBD, offset: 0x13BBD, size: 0x8, addend: 0x0, symName: __ZNSt3__117__compressed_pairIPNS_11__hash_nodeINS_17__hash_value_typeINS_12basic_stringIcNS_11char_traitsIcEENS_9allocatorIcEEEE5ValueEEPvEENS_22__hash_node_destructorINS6_ISC_EEEEEC1B7v160006IRSD_SG_EEOT_OT0_, symObjAddr: 0x15894, symBinAddr: 0x10001A084, symSize: 0x88 }
  - { offsetInCU: 0x13C15, offset: 0x13C15, size: 0x8, addend: 0x0, symName: __ZNSt3__117__compressed_pairIPNS_11__hash_nodeINS_17__hash_value_typeINS_12basic_stringIcNS_11char_traitsIcEENS_9allocatorIcEEEE5ValueEEPvEENS_22__hash_node_destructorINS6_ISC_EEEEEC2B7v160006IRSD_SG_EEOT_OT0_, symObjAddr: 0x1591C, symBinAddr: 0x10001A10C, symSize: 0x1B4 }
  - { offsetInCU: 0x13C6D, offset: 0x13C6D, size: 0x8, addend: 0x0, symName: __ZNSt3__122__compressed_pair_elemIPNS_11__hash_nodeINS_17__hash_value_typeINS_12basic_stringIcNS_11char_traitsIcEENS_9allocatorIcEEEE5ValueEEPvEELi0ELb0EEC2B7v160006IRSD_vEEOT_, symObjAddr: 0x15AD0, symBinAddr: 0x10001A2C0, symSize: 0x144 }
  - { offsetInCU: 0x13CAF, offset: 0x13CAF, size: 0x8, addend: 0x0, symName: __ZNSt3__122__compressed_pair_elemINS_22__hash_node_destructorINS_9allocatorINS_11__hash_nodeINS_17__hash_value_typeINS_12basic_stringIcNS_11char_traitsIcEENS2_IcEEEE5ValueEEPvEEEEEELi1ELb0EEC2B7v160006ISF_vEEOT_, symObjAddr: 0x15C14, symBinAddr: 0x10001A404, symSize: 0x84 }
  - { offsetInCU: 0x13CF1, offset: 0x13CF1, size: 0x8, addend: 0x0, symName: __ZNSt3__19allocatorINS_11__hash_nodeINS_17__hash_value_typeINS_12basic_stringIcNS_11char_traitsIcEENS0_IcEEEE5ValueEEPvEEE9constructB7v160006INS_4pairIKS7_S8_EEJRKSG_EEEvPT_DpOT0_, symObjAddr: 0x15C98, symBinAddr: 0x10001A488, symSize: 0xEC }
  - { offsetInCU: 0x13D47, offset: 0x13D47, size: 0x8, addend: 0x0, symName: __ZNSt3__14pairIKNS_12basic_stringIcNS_11char_traitsIcEENS_9allocatorIcEEEE5ValueEC1ERKS9_, symObjAddr: 0x15D84, symBinAddr: 0x10001A574, symSize: 0x80 }
  - { offsetInCU: 0x13D7C, offset: 0x13D7C, size: 0x8, addend: 0x0, symName: __ZNSt3__14pairIKNS_12basic_stringIcNS_11char_traitsIcEENS_9allocatorIcEEEE5ValueEC2ERKS9_, symObjAddr: 0x15E04, symBinAddr: 0x10001A5F4, symSize: 0x1E4 }
  - { offsetInCU: 0x13DB1, offset: 0x13DB1, size: 0x8, addend: 0x0, symName: __ZNSt3__117__hash_value_typeINS_12basic_stringIcNS_11char_traitsIcEENS_9allocatorIcEEEE5ValueE11__get_valueB7v160006Ev, symObjAddr: 0x15FE8, symBinAddr: 0x10001A7D8, symSize: 0xB4 }
  - { offsetInCU: 0x13DD7, offset: 0x13DD7, size: 0x8, addend: 0x0, symName: __ZNSt3__117__compressed_pairIPNS_11__hash_nodeINS_17__hash_value_typeINS_12basic_stringIcNS_11char_traitsIcEENS_9allocatorIcEEEE5ValueEEPvEENS_22__hash_node_destructorINS6_ISC_EEEEE6secondB7v160006Ev, symObjAddr: 0x160D4, symBinAddr: 0x10001A8C4, symSize: 0x12C }
  - { offsetInCU: 0x13DFD, offset: 0x13DFD, size: 0x8, addend: 0x0, symName: __ZNSt3__122__compressed_pair_elemINS_22__hash_node_destructorINS_9allocatorINS_11__hash_nodeINS_17__hash_value_typeINS_12basic_stringIcNS_11char_traitsIcEENS2_IcEEEE5ValueEEPvEEEEEELi1ELb0EE5__getB7v160006Ev, symObjAddr: 0x16200, symBinAddr: 0x10001A9F0, symSize: 0xAC }
  - { offsetInCU: 0x13E23, offset: 0x13E23, size: 0x8, addend: 0x0, symName: __ZNSt3__117__compressed_pairImNS_22__unordered_map_hasherINS_12basic_stringIcNS_11char_traitsIcEENS_9allocatorIcEEEENS_17__hash_value_typeIS7_5ValueEENS_4hashIS7_EENS_8equal_toIS7_EELb1EEEE5firstB7v160006Ev, symObjAddr: 0x162AC, symBinAddr: 0x10001AA9C, symSize: 0x124 }
  - { offsetInCU: 0x13E49, offset: 0x13E49, size: 0x8, addend: 0x0, symName: __ZNSt3__122__compressed_pair_elemImLi0ELb0EE5__getB7v160006Ev, symObjAddr: 0x163D0, symBinAddr: 0x10001ABC0, symSize: 0xAC }
  - { offsetInCU: 0x13E6F, offset: 0x13E6F, size: 0x8, addend: 0x0, symName: __ZNSt3__117__compressed_pairIfNS_21__unordered_map_equalINS_12basic_stringIcNS_11char_traitsIcEENS_9allocatorIcEEEENS_17__hash_value_typeIS7_5ValueEENS_8equal_toIS7_EENS_4hashIS7_EELb1EEEE5firstB7v160006Ev, symObjAddr: 0x1647C, symBinAddr: 0x10001AC6C, symSize: 0x124 }
  - { offsetInCU: 0x13E95, offset: 0x13E95, size: 0x8, addend: 0x0, symName: __ZNSt3__122__compressed_pair_elemIfLi0ELb0EE5__getB7v160006Ev, symObjAddr: 0x165A0, symBinAddr: 0x10001AD90, symSize: 0xAC }
  - { offsetInCU: 0x13EBB, offset: 0x13EBB, size: 0x8, addend: 0x0, symName: __ZNSt3__112__hash_tableINS_17__hash_value_typeINS_12basic_stringIcNS_11char_traitsIcEENS_9allocatorIcEEEE5ValueEENS_22__unordered_map_hasherIS7_S9_NS_4hashIS7_EENS_8equal_toIS7_EELb1EEENS_21__unordered_map_equalIS7_S9_SE_SC_Lb1EEENS5_IS9_EEE8__rehashILb1EEEvm, symObjAddr: 0x1664C, symBinAddr: 0x10001AE3C, symSize: 0x9CC }
  - { offsetInCU: 0x13F11, offset: 0x13F11, size: 0x8, addend: 0x0, symName: __ZNSt3__112__hash_tableINS_17__hash_value_typeINS_12basic_stringIcNS_11char_traitsIcEENS_9allocatorIcEEEE5ValueEENS_22__unordered_map_hasherIS7_S9_NS_4hashIS7_EENS_8equal_toIS7_EELb1EEENS_21__unordered_map_equalIS7_S9_SE_SC_Lb1EEENS5_IS9_EEE11__do_rehashILb1EEEvm, symObjAddr: 0x17018, symBinAddr: 0x10001B808, symSize: 0x108C }
  - { offsetInCU: 0x13FF6, offset: 0x13FF6, size: 0x8, addend: 0x0, symName: __ZNSt3__110unique_ptrIA_PNS_16__hash_node_baseIPNS_11__hash_nodeINS_17__hash_value_typeINS_12basic_stringIcNS_11char_traitsIcEENS_9allocatorIcEEEE5ValueEEPvEEEENS_25__bucket_list_deallocatorINS7_ISG_EEEEE11get_deleterB7v160006Ev, symObjAddr: 0x18180, symBinAddr: 0x10001C970, symSize: 0xF8 }
  - { offsetInCU: 0x1401C, offset: 0x1401C, size: 0x8, addend: 0x0, symName: __ZNSt3__125__bucket_list_deallocatorINS_9allocatorIPNS_16__hash_node_baseIPNS_11__hash_nodeINS_17__hash_value_typeINS_12basic_stringIcNS_11char_traitsIcEENS1_IcEEEE5ValueEEPvEEEEEEE7__allocB7v160006Ev, symObjAddr: 0x18278, symBinAddr: 0x10001CA68, symSize: 0xDC }
  - { offsetInCU: 0x14042, offset: 0x14042, size: 0x8, addend: 0x0, symName: __ZNSt3__110unique_ptrIA_PNS_16__hash_node_baseIPNS_11__hash_nodeINS_17__hash_value_typeINS_12basic_stringIcNS_11char_traitsIcEENS_9allocatorIcEEEE5ValueEEPvEEEENS_25__bucket_list_deallocatorINS7_ISG_EEEEE5resetB7v160006IPSG_EENS_9enable_ifIXsr28_CheckArrayPointerConversionIT_EE5valueEvE4typeESP_, symObjAddr: 0x18354, symBinAddr: 0x10001CB44, symSize: 0x2CC }
  - { offsetInCU: 0x1408F, offset: 0x1408F, size: 0x8, addend: 0x0, symName: __ZNSt3__116allocator_traitsINS_9allocatorIPNS_16__hash_node_baseIPNS_11__hash_nodeINS_17__hash_value_typeINS_12basic_stringIcNS_11char_traitsIcEENS1_IcEEEE5ValueEEPvEEEEEEE8allocateB7v160006ERSH_m, symObjAddr: 0x18620, symBinAddr: 0x10001CE10, symSize: 0x2C }
  - { offsetInCU: 0x140C2, offset: 0x140C2, size: 0x8, addend: 0x0, symName: __ZNSt3__125__bucket_list_deallocatorINS_9allocatorIPNS_16__hash_node_baseIPNS_11__hash_nodeINS_17__hash_value_typeINS_12basic_stringIcNS_11char_traitsIcEENS1_IcEEEE5ValueEEPvEEEEEEE4sizeB7v160006Ev, symObjAddr: 0x1864C, symBinAddr: 0x10001CE3C, symSize: 0xF8 }
  - { offsetInCU: 0x140E8, offset: 0x140E8, size: 0x8, addend: 0x0, symName: __ZNSt3__117__compressed_pairIPPNS_16__hash_node_baseIPNS_11__hash_nodeINS_17__hash_value_typeINS_12basic_stringIcNS_11char_traitsIcEENS_9allocatorIcEEEE5ValueEEPvEEEENS_25__bucket_list_deallocatorINS7_ISG_EEEEE6secondB7v160006Ev, symObjAddr: 0x18744, symBinAddr: 0x10001CF34, symSize: 0x12C }
  - { offsetInCU: 0x1410E, offset: 0x1410E, size: 0x8, addend: 0x0, symName: __ZNSt3__122__compressed_pair_elemINS_25__bucket_list_deallocatorINS_9allocatorIPNS_16__hash_node_baseIPNS_11__hash_nodeINS_17__hash_value_typeINS_12basic_stringIcNS_11char_traitsIcEENS2_IcEEEE5ValueEEPvEEEEEEEELi1ELb0EE5__getB7v160006Ev, symObjAddr: 0x18870, symBinAddr: 0x10001D060, symSize: 0xAC }
  - { offsetInCU: 0x14134, offset: 0x14134, size: 0x8, addend: 0x0, symName: __ZNSt3__117__compressed_pairImNS_9allocatorIPNS_16__hash_node_baseIPNS_11__hash_nodeINS_17__hash_value_typeINS_12basic_stringIcNS_11char_traitsIcEENS1_IcEEEE5ValueEEPvEEEEEEE6secondB7v160006Ev, symObjAddr: 0x1891C, symBinAddr: 0x10001D10C, symSize: 0x108 }
  - { offsetInCU: 0x1415A, offset: 0x1415A, size: 0x8, addend: 0x0, symName: __ZNSt3__122__compressed_pair_elemINS_9allocatorIPNS_16__hash_node_baseIPNS_11__hash_nodeINS_17__hash_value_typeINS_12basic_stringIcNS_11char_traitsIcEENS1_IcEEEE5ValueEEPvEEEEEELi1ELb1EE5__getB7v160006Ev, symObjAddr: 0x18A24, symBinAddr: 0x10001D214, symSize: 0x74 }
  - { offsetInCU: 0x14180, offset: 0x14180, size: 0x8, addend: 0x0, symName: __ZNSt3__117__compressed_pairIPPNS_16__hash_node_baseIPNS_11__hash_nodeINS_17__hash_value_typeINS_12basic_stringIcNS_11char_traitsIcEENS_9allocatorIcEEEE5ValueEEPvEEEENS_25__bucket_list_deallocatorINS7_ISG_EEEEE5firstB7v160006Ev, symObjAddr: 0x18A98, symBinAddr: 0x10001D288, symSize: 0x124 }
  - { offsetInCU: 0x141A6, offset: 0x141A6, size: 0x8, addend: 0x0, symName: __ZNSt3__125__bucket_list_deallocatorINS_9allocatorIPNS_16__hash_node_baseIPNS_11__hash_nodeINS_17__hash_value_typeINS_12basic_stringIcNS_11char_traitsIcEENS1_IcEEEE5ValueEEPvEEEEEEEclB7v160006EPSG_, symObjAddr: 0x18BBC, symBinAddr: 0x10001D3AC, symSize: 0x140 }
  - { offsetInCU: 0x141DB, offset: 0x141DB, size: 0x8, addend: 0x0, symName: __ZNSt3__122__compressed_pair_elemIPPNS_16__hash_node_baseIPNS_11__hash_nodeINS_17__hash_value_typeINS_12basic_stringIcNS_11char_traitsIcEENS_9allocatorIcEEEE5ValueEEPvEEEELi0ELb0EE5__getB7v160006Ev, symObjAddr: 0x18CFC, symBinAddr: 0x10001D4EC, symSize: 0xAC }
  - { offsetInCU: 0x14201, offset: 0x14201, size: 0x8, addend: 0x0, symName: __ZNSt3__116allocator_traitsINS_9allocatorIPNS_16__hash_node_baseIPNS_11__hash_nodeINS_17__hash_value_typeINS_12basic_stringIcNS_11char_traitsIcEENS1_IcEEEE5ValueEEPvEEEEEEE10deallocateB7v160006ERSH_PSG_m, symObjAddr: 0x18DA8, symBinAddr: 0x10001D598, symSize: 0x34 }
  - { offsetInCU: 0x14243, offset: 0x14243, size: 0x8, addend: 0x0, symName: __ZNSt3__19allocatorIPNS_16__hash_node_baseIPNS_11__hash_nodeINS_17__hash_value_typeINS_12basic_stringIcNS_11char_traitsIcEENS0_IcEEEE5ValueEEPvEEEEE10deallocateB7v160006EPSF_m, symObjAddr: 0x18DDC, symBinAddr: 0x10001D5CC, symSize: 0x78 }
  - { offsetInCU: 0x14285, offset: 0x14285, size: 0x8, addend: 0x0, symName: __ZNSt3__19allocatorIPNS_16__hash_node_baseIPNS_11__hash_nodeINS_17__hash_value_typeINS_12basic_stringIcNS_11char_traitsIcEENS0_IcEEEE5ValueEEPvEEEEE8allocateB7v160006Em, symObjAddr: 0x18F5C, symBinAddr: 0x10001D74C, symSize: 0xCC }
  - { offsetInCU: 0x142C3, offset: 0x142C3, size: 0x8, addend: 0x0, symName: __ZNSt3__116allocator_traitsINS_9allocatorIPNS_16__hash_node_baseIPNS_11__hash_nodeINS_17__hash_value_typeINS_12basic_stringIcNS_11char_traitsIcEENS1_IcEEEE5ValueEEPvEEEEEEE8max_sizeB7v160006ISH_vEEmRKSH_, symObjAddr: 0x19028, symBinAddr: 0x10001D818, symSize: 0x24 }
  - { offsetInCU: 0x142F1, offset: 0x142F1, size: 0x8, addend: 0x0, symName: __ZNKSt3__19allocatorIPNS_16__hash_node_baseIPNS_11__hash_nodeINS_17__hash_value_typeINS_12basic_stringIcNS_11char_traitsIcEENS0_IcEEEE5ValueEEPvEEEEE8max_sizeB7v160006Ev, symObjAddr: 0x1904C, symBinAddr: 0x10001D83C, symSize: 0x4C }
  - { offsetInCU: 0x14317, offset: 0x14317, size: 0x8, addend: 0x0, symName: __ZNSt3__117__compressed_pairImNS_9allocatorIPNS_16__hash_node_baseIPNS_11__hash_nodeINS_17__hash_value_typeINS_12basic_stringIcNS_11char_traitsIcEENS1_IcEEEE5ValueEEPvEEEEEEE5firstB7v160006Ev, symObjAddr: 0x19098, symBinAddr: 0x10001D888, symSize: 0x124 }
  - { offsetInCU: 0x14347, offset: 0x14347, size: 0x8, addend: 0x0, symName: __ZNKSt3__16__lessImmEclB7v160006ERKmS3_, symObjAddr: 0x19498, symBinAddr: 0x10001DC88, symSize: 0xEC }
  - { offsetInCU: 0x14389, offset: 0x14389, size: 0x8, addend: 0x0, symName: __ZNSt3__122__compressed_pair_elemINS_16__hash_node_baseIPNS_11__hash_nodeINS_17__hash_value_typeINS_12basic_stringIcNS_11char_traitsIcEENS_9allocatorIcEEEE5ValueEEPvEEEELi0ELb0EE5__getB7v160006Ev, symObjAddr: 0x19584, symBinAddr: 0x10001DD74, symSize: 0xAC }
  - { offsetInCU: 0x143AF, offset: 0x143AF, size: 0x8, addend: 0x0, symName: __ZNKSt3__117__compressed_pairIPNS_11__hash_nodeINS_17__hash_value_typeINS_12basic_stringIcNS_11char_traitsIcEENS_9allocatorIcEEEE5ValueEEPvEENS_22__hash_node_destructorINS6_ISC_EEEEE5firstB7v160006Ev, symObjAddr: 0x19630, symBinAddr: 0x10001DE20, symSize: 0x124 }
  - { offsetInCU: 0x143D5, offset: 0x143D5, size: 0x8, addend: 0x0, symName: __ZNKSt3__122__compressed_pair_elemIPNS_11__hash_nodeINS_17__hash_value_typeINS_12basic_stringIcNS_11char_traitsIcEENS_9allocatorIcEEEE5ValueEEPvEELi0ELb0EE5__getB7v160006Ev, symObjAddr: 0x19754, symBinAddr: 0x10001DF44, symSize: 0xAC }
  - { offsetInCU: 0x143FB, offset: 0x143FB, size: 0x8, addend: 0x0, symName: __ZNSt3__117__compressed_pairIPNS_11__hash_nodeINS_17__hash_value_typeINS_12basic_stringIcNS_11char_traitsIcEENS_9allocatorIcEEEE5ValueEEPvEENS_22__hash_node_destructorINS6_ISC_EEEEE5firstB7v160006Ev, symObjAddr: 0x19800, symBinAddr: 0x10001DFF0, symSize: 0x124 }
  - { offsetInCU: 0x14421, offset: 0x14421, size: 0x8, addend: 0x0, symName: __ZNSt3__122__compressed_pair_elemIPNS_11__hash_nodeINS_17__hash_value_typeINS_12basic_stringIcNS_11char_traitsIcEENS_9allocatorIcEEEE5ValueEEPvEELi0ELb0EE5__getB7v160006Ev, symObjAddr: 0x19924, symBinAddr: 0x10001E114, symSize: 0xAC }
  - { offsetInCU: 0x14447, offset: 0x14447, size: 0x8, addend: 0x0, symName: __ZNSt3__110unique_ptrINS_11__hash_nodeINS_17__hash_value_typeINS_12basic_stringIcNS_11char_traitsIcEENS_9allocatorIcEEEE5ValueEEPvEENS_22__hash_node_destructorINS6_ISC_EEEEED2B7v160006Ev, symObjAddr: 0x199D0, symBinAddr: 0x10001E1C0, symSize: 0x7C }
  - { offsetInCU: 0x14471, offset: 0x14471, size: 0x8, addend: 0x0, symName: __ZNSt3__110unique_ptrINS_11__hash_nodeINS_17__hash_value_typeINS_12basic_stringIcNS_11char_traitsIcEENS_9allocatorIcEEEE5ValueEEPvEENS_22__hash_node_destructorINS6_ISC_EEEEE5resetB7v160006EPSC_, symObjAddr: 0x19A4C, symBinAddr: 0x10001E23C, symSize: 0x2CC }
  - { offsetInCU: 0x144B5, offset: 0x144B5, size: 0x8, addend: 0x0, symName: __ZNSt3__122__hash_node_destructorINS_9allocatorINS_11__hash_nodeINS_17__hash_value_typeINS_12basic_stringIcNS_11char_traitsIcEENS1_IcEEEE5ValueEEPvEEEEEclB7v160006EPSC_, symObjAddr: 0x19D18, symBinAddr: 0x10001E508, symSize: 0x2C0 }
  - { offsetInCU: 0x144EA, offset: 0x144EA, size: 0x8, addend: 0x0, symName: __ZNSt3__116allocator_traitsINS_9allocatorINS_11__hash_nodeINS_17__hash_value_typeINS_12basic_stringIcNS_11char_traitsIcEENS1_IcEEEE5ValueEEPvEEEEE7destroyB7v160006INS_4pairIKS8_S9_EEvvEEvRSD_PT_, symObjAddr: 0x19FD8, symBinAddr: 0x10001E7C8, symSize: 0x70 }
  - { offsetInCU: 0x14525, offset: 0x14525, size: 0x8, addend: 0x0, symName: __ZNSt3__116allocator_traitsINS_9allocatorINS_11__hash_nodeINS_17__hash_value_typeINS_12basic_stringIcNS_11char_traitsIcEENS1_IcEEEE5ValueEEPvEEEEE10deallocateB7v160006ERSD_PSC_m, symObjAddr: 0x1A048, symBinAddr: 0x10001E838, symSize: 0x34 }
  - { offsetInCU: 0x14567, offset: 0x14567, size: 0x8, addend: 0x0, symName: __ZNSt3__19allocatorINS_11__hash_nodeINS_17__hash_value_typeINS_12basic_stringIcNS_11char_traitsIcEENS0_IcEEEE5ValueEEPvEEE10deallocateB7v160006EPSB_m, symObjAddr: 0x1A07C, symBinAddr: 0x10001E86C, symSize: 0x7C }
  - { offsetInCU: 0x145A9, offset: 0x145A9, size: 0x8, addend: 0x0, symName: __ZNSt3__115__hash_iteratorIPNS_11__hash_nodeINS_17__hash_value_typeINS_12basic_stringIcNS_11char_traitsIcEENS_9allocatorIcEEEE5ValueEEPvEEEC2B7v160006EPNS_16__hash_node_baseISD_EEPKv, symObjAddr: 0x1A0F8, symBinAddr: 0x10001E8E8, symSize: 0xCC }
  - { offsetInCU: 0x145F1, offset: 0x145F1, size: 0x8, addend: 0x0, symName: __ZNSt3__14pairINS_15__hash_iteratorIPNS_11__hash_nodeINS_17__hash_value_typeINS_12basic_stringIcNS_11char_traitsIcEENS_9allocatorIcEEEE5ValueEEPvEEEEbEC2B7v160006ISF_RbLSC_0EEEOT_OT0_, symObjAddr: 0x1A1C4, symBinAddr: 0x10001E9B4, symSize: 0x1C8 }
  - { offsetInCU: 0x1464F, offset: 0x1464F, size: 0x8, addend: 0x0, symName: __ZNSt3__112__hash_tableINS_17__hash_value_typeINS_12basic_stringIcNS_11char_traitsIcEENS_9allocatorIcEEEE5ValueEENS_22__unordered_map_hasherIS7_S9_NS_4hashIS7_EENS_8equal_toIS7_EELb1EEENS_21__unordered_map_equalIS7_S9_SE_SC_Lb1EEENS5_IS9_EEED2Ev, symObjAddr: 0x1A38C, symBinAddr: 0x10001EB7C, symSize: 0x1C0 }
  - { offsetInCU: 0x1467B, offset: 0x1467B, size: 0x8, addend: 0x0, symName: __ZNSt3__112__hash_tableINS_17__hash_value_typeINS_12basic_stringIcNS_11char_traitsIcEENS_9allocatorIcEEEE5ValueEENS_22__unordered_map_hasherIS7_S9_NS_4hashIS7_EENS_8equal_toIS7_EELb1EEENS_21__unordered_map_equalIS7_S9_SE_SC_Lb1EEENS5_IS9_EEE17__deallocate_nodeEPNS_16__hash_node_baseIPNS_11__hash_nodeIS9_PvEEEE, symObjAddr: 0x1A54C, symBinAddr: 0x10001ED3C, symSize: 0x318 }
  - { offsetInCU: 0x146E5, offset: 0x146E5, size: 0x8, addend: 0x0, symName: __ZNSt3__110unique_ptrIA_PNS_16__hash_node_baseIPNS_11__hash_nodeINS_17__hash_value_typeINS_12basic_stringIcNS_11char_traitsIcEENS_9allocatorIcEEEE5ValueEEPvEEEENS_25__bucket_list_deallocatorINS7_ISG_EEEEED1B7v160006Ev, symObjAddr: 0x1A874, symBinAddr: 0x10001F064, symSize: 0x78 }
  - { offsetInCU: 0x1470F, offset: 0x1470F, size: 0x8, addend: 0x0, symName: __ZNSt3__110unique_ptrIA_PNS_16__hash_node_baseIPNS_11__hash_nodeINS_17__hash_value_typeINS_12basic_stringIcNS_11char_traitsIcEENS_9allocatorIcEEEE5ValueEEPvEEEENS_25__bucket_list_deallocatorINS7_ISG_EEEEED2B7v160006Ev, symObjAddr: 0x1A8EC, symBinAddr: 0x10001F0DC, symSize: 0x7C }
  - { offsetInCU: 0x14739, offset: 0x14739, size: 0x8, addend: 0x0, symName: __ZNSt3__110unique_ptrIA_PNS_16__hash_node_baseIPNS_11__hash_nodeINS_17__hash_value_typeINS_12basic_stringIcNS_11char_traitsIcEENS_9allocatorIcEEEE5ValueEEPvEEEENS_25__bucket_list_deallocatorINS7_ISG_EEEEE5resetB7v160006EDn, symObjAddr: 0x1A968, symBinAddr: 0x10001F158, symSize: 0x2C0 }
  - { offsetInCU: 0x1477A, offset: 0x1477A, size: 0x8, addend: 0x0, symName: __ZNSt3__113unordered_mapINS_12basic_stringIcNS_11char_traitsIcEENS_9allocatorIcEEEE5ValueNS_4hashIS6_EENS_8equal_toIS6_EENS4_INS_4pairIKS6_S7_EEEEED2B7v160006Ev, symObjAddr: 0x1AC28, symBinAddr: 0x10001F418, symSize: 0x78 }
  - { offsetInCU: 0x147A4, offset: 0x147A4, size: 0x8, addend: 0x0, symName: __ZNSt3__113unordered_mapINS_12basic_stringIcNS_11char_traitsIcEENS_9allocatorIcEEEE4SuitNS_4hashIS6_EENS_8equal_toIS6_EENS4_INS_4pairIKS6_S7_EEEEEC2ESt16initializer_listISE_E, symObjAddr: 0x1ACA0, symBinAddr: 0x10001F490, symSize: 0x324 }
  - { offsetInCU: 0x147E4, offset: 0x147E4, size: 0x8, addend: 0x0, symName: __ZNSt3__112__hash_tableINS_17__hash_value_typeINS_12basic_stringIcNS_11char_traitsIcEENS_9allocatorIcEEEE4SuitEENS_22__unordered_map_hasherIS7_S9_NS_4hashIS7_EENS_8equal_toIS7_EELb1EEENS_21__unordered_map_equalIS7_S9_SE_SC_Lb1EEENS5_IS9_EEEC1Ev, symObjAddr: 0x1AFC4, symBinAddr: 0x10001F7B4, symSize: 0x78 }
  - { offsetInCU: 0x14810, offset: 0x14810, size: 0x8, addend: 0x0, symName: __ZNSt3__113unordered_mapINS_12basic_stringIcNS_11char_traitsIcEENS_9allocatorIcEEEE4SuitNS_4hashIS6_EENS_8equal_toIS6_EENS4_INS_4pairIKS6_S7_EEEEE6insertIPKSE_EEvT_SK_, symObjAddr: 0x1B04C, symBinAddr: 0x10001F83C, symSize: 0x390 }
  - { offsetInCU: 0x14862, offset: 0x14862, size: 0x8, addend: 0x0, symName: __ZNKSt16initializer_listINSt3__14pairIKNS0_12basic_stringIcNS0_11char_traitsIcEENS0_9allocatorIcEEEE4SuitEEE5beginB7v160006Ev, symObjAddr: 0x1B3DC, symBinAddr: 0x10001FBCC, symSize: 0xAC }
  - { offsetInCU: 0x14888, offset: 0x14888, size: 0x8, addend: 0x0, symName: __ZNKSt16initializer_listINSt3__14pairIKNS0_12basic_stringIcNS0_11char_traitsIcEENS0_9allocatorIcEEEE4SuitEEE3endB7v160006Ev, symObjAddr: 0x1B488, symBinAddr: 0x10001FC78, symSize: 0x1C0 }
  - { offsetInCU: 0x148AE, offset: 0x148AE, size: 0x8, addend: 0x0, symName: __ZNSt3__112__hash_tableINS_17__hash_value_typeINS_12basic_stringIcNS_11char_traitsIcEENS_9allocatorIcEEEE4SuitEENS_22__unordered_map_hasherIS7_S9_NS_4hashIS7_EENS_8equal_toIS7_EELb1EEENS_21__unordered_map_equalIS7_S9_SE_SC_Lb1EEENS5_IS9_EEED1Ev, symObjAddr: 0x1B648, symBinAddr: 0x10001FE38, symSize: 0x78 }
  - { offsetInCU: 0x148DA, offset: 0x148DA, size: 0x8, addend: 0x0, symName: __ZNSt3__112__hash_tableINS_17__hash_value_typeINS_12basic_stringIcNS_11char_traitsIcEENS_9allocatorIcEEEE4SuitEENS_22__unordered_map_hasherIS7_S9_NS_4hashIS7_EENS_8equal_toIS7_EELb1EEENS_21__unordered_map_equalIS7_S9_SE_SC_Lb1EEENS5_IS9_EEEC2Ev, symObjAddr: 0x1B6C0, symBinAddr: 0x10001FEB0, symSize: 0x3E0 }
  - { offsetInCU: 0x14907, offset: 0x14907, size: 0x8, addend: 0x0, symName: __ZNSt3__110unique_ptrIA_PNS_16__hash_node_baseIPNS_11__hash_nodeINS_17__hash_value_typeINS_12basic_stringIcNS_11char_traitsIcEENS_9allocatorIcEEEE4SuitEEPvEEEENS_25__bucket_list_deallocatorINS7_ISG_EEEEEC1B7v160006ILb1EvEEv, symObjAddr: 0x1BAA0, symBinAddr: 0x100020290, symSize: 0x78 }
  - { offsetInCU: 0x1493C, offset: 0x1493C, size: 0x8, addend: 0x0, symName: __ZNSt3__117__compressed_pairINS_16__hash_node_baseIPNS_11__hash_nodeINS_17__hash_value_typeINS_12basic_stringIcNS_11char_traitsIcEENS_9allocatorIcEEEE4SuitEEPvEEEENS7_ISD_EEEC1B7v160006ILb1EvEEv, symObjAddr: 0x1BB18, symBinAddr: 0x100020308, symSize: 0x78 }
  - { offsetInCU: 0x14971, offset: 0x14971, size: 0x8, addend: 0x0, symName: __ZNSt3__117__compressed_pairImNS_22__unordered_map_hasherINS_12basic_stringIcNS_11char_traitsIcEENS_9allocatorIcEEEENS_17__hash_value_typeIS7_4SuitEENS_4hashIS7_EENS_8equal_toIS7_EELb1EEEEC1B7v160006IiNS_18__default_init_tagEEEOT_OT0_, symObjAddr: 0x1BB90, symBinAddr: 0x100020380, symSize: 0x88 }
  - { offsetInCU: 0x149C9, offset: 0x149C9, size: 0x8, addend: 0x0, symName: __ZNSt3__117__compressed_pairIfNS_21__unordered_map_equalINS_12basic_stringIcNS_11char_traitsIcEENS_9allocatorIcEEEENS_17__hash_value_typeIS7_4SuitEENS_8equal_toIS7_EENS_4hashIS7_EELb1EEEEC1B7v160006IfNS_18__default_init_tagEEEOT_OT0_, symObjAddr: 0x1BC18, symBinAddr: 0x100020408, symSize: 0x88 }
  - { offsetInCU: 0x14A21, offset: 0x14A21, size: 0x8, addend: 0x0, symName: __ZNSt3__110unique_ptrIA_PNS_16__hash_node_baseIPNS_11__hash_nodeINS_17__hash_value_typeINS_12basic_stringIcNS_11char_traitsIcEENS_9allocatorIcEEEE4SuitEEPvEEEENS_25__bucket_list_deallocatorINS7_ISG_EEEEEC2B7v160006ILb1EvEEv, symObjAddr: 0x1BCA0, symBinAddr: 0x100020490, symSize: 0x268 }
  - { offsetInCU: 0x14A57, offset: 0x14A57, size: 0x8, addend: 0x0, symName: __ZNSt3__117__compressed_pairIPPNS_16__hash_node_baseIPNS_11__hash_nodeINS_17__hash_value_typeINS_12basic_stringIcNS_11char_traitsIcEENS_9allocatorIcEEEE4SuitEEPvEEEENS_25__bucket_list_deallocatorINS7_ISG_EEEEEC1B7v160006INS_16__value_init_tagESN_EEOT_OT0_, symObjAddr: 0x1BF08, symBinAddr: 0x1000206F8, symSize: 0x88 }
  - { offsetInCU: 0x14AAF, offset: 0x14AAF, size: 0x8, addend: 0x0, symName: __ZNSt3__117__compressed_pairIPPNS_16__hash_node_baseIPNS_11__hash_nodeINS_17__hash_value_typeINS_12basic_stringIcNS_11char_traitsIcEENS_9allocatorIcEEEE4SuitEEPvEEEENS_25__bucket_list_deallocatorINS7_ISG_EEEEEC2B7v160006INS_16__value_init_tagESN_EEOT_OT0_, symObjAddr: 0x1BF90, symBinAddr: 0x100020780, symSize: 0x118 }
  - { offsetInCU: 0x14B07, offset: 0x14B07, size: 0x8, addend: 0x0, symName: __ZNSt3__122__compressed_pair_elemIPPNS_16__hash_node_baseIPNS_11__hash_nodeINS_17__hash_value_typeINS_12basic_stringIcNS_11char_traitsIcEENS_9allocatorIcEEEE4SuitEEPvEEEELi0ELb0EEC2B7v160006ENS_16__value_init_tagE, symObjAddr: 0x1C0A8, symBinAddr: 0x100020898, symSize: 0xB8 }
  - { offsetInCU: 0x14B3C, offset: 0x14B3C, size: 0x8, addend: 0x0, symName: __ZNSt3__122__compressed_pair_elemINS_25__bucket_list_deallocatorINS_9allocatorIPNS_16__hash_node_baseIPNS_11__hash_nodeINS_17__hash_value_typeINS_12basic_stringIcNS_11char_traitsIcEENS2_IcEEEE4SuitEEPvEEEEEEEELi1ELb0EEC2B7v160006ENS_16__value_init_tagE, symObjAddr: 0x1C160, symBinAddr: 0x100020950, symSize: 0x78 }
  - { offsetInCU: 0x14B71, offset: 0x14B71, size: 0x8, addend: 0x0, symName: __ZNSt3__125__bucket_list_deallocatorINS_9allocatorIPNS_16__hash_node_baseIPNS_11__hash_nodeINS_17__hash_value_typeINS_12basic_stringIcNS_11char_traitsIcEENS1_IcEEEE4SuitEEPvEEEEEEEC1B7v160006Ev, symObjAddr: 0x1C1D8, symBinAddr: 0x1000209C8, symSize: 0x78 }
  - { offsetInCU: 0x14B9B, offset: 0x14B9B, size: 0x8, addend: 0x0, symName: __ZNSt3__125__bucket_list_deallocatorINS_9allocatorIPNS_16__hash_node_baseIPNS_11__hash_nodeINS_17__hash_value_typeINS_12basic_stringIcNS_11char_traitsIcEENS1_IcEEEE4SuitEEPvEEEEEEEC2B7v160006Ev, symObjAddr: 0x1C250, symBinAddr: 0x100020A40, symSize: 0x2CC }
  - { offsetInCU: 0x14BC6, offset: 0x14BC6, size: 0x8, addend: 0x0, symName: __ZNSt3__117__compressed_pairImNS_9allocatorIPNS_16__hash_node_baseIPNS_11__hash_nodeINS_17__hash_value_typeINS_12basic_stringIcNS_11char_traitsIcEENS1_IcEEEE4SuitEEPvEEEEEEEC1B7v160006IiNS_18__default_init_tagEEEOT_OT0_, symObjAddr: 0x1C51C, symBinAddr: 0x100020D0C, symSize: 0x88 }
  - { offsetInCU: 0x14C1E, offset: 0x14C1E, size: 0x8, addend: 0x0, symName: __ZNSt3__117__compressed_pairImNS_9allocatorIPNS_16__hash_node_baseIPNS_11__hash_nodeINS_17__hash_value_typeINS_12basic_stringIcNS_11char_traitsIcEENS1_IcEEEE4SuitEEPvEEEEEEEC2B7v160006IiNS_18__default_init_tagEEEOT_OT0_, symObjAddr: 0x1C5A4, symBinAddr: 0x100020D94, symSize: 0x140 }
  - { offsetInCU: 0x14C76, offset: 0x14C76, size: 0x8, addend: 0x0, symName: __ZNSt3__122__compressed_pair_elemINS_9allocatorIPNS_16__hash_node_baseIPNS_11__hash_nodeINS_17__hash_value_typeINS_12basic_stringIcNS_11char_traitsIcEENS1_IcEEEE4SuitEEPvEEEEEELi1ELb1EEC2B7v160006ENS_18__default_init_tagE, symObjAddr: 0x1C6E4, symBinAddr: 0x100020ED4, symSize: 0x84 }
  - { offsetInCU: 0x14CAB, offset: 0x14CAB, size: 0x8, addend: 0x0, symName: __ZNSt3__19allocatorIPNS_16__hash_node_baseIPNS_11__hash_nodeINS_17__hash_value_typeINS_12basic_stringIcNS_11char_traitsIcEENS0_IcEEEE4SuitEEPvEEEEEC2B7v160006Ev, symObjAddr: 0x1C768, symBinAddr: 0x100020F58, symSize: 0x84 }
  - { offsetInCU: 0x14CD5, offset: 0x14CD5, size: 0x8, addend: 0x0, symName: __ZNSt3__116__non_trivial_ifILb1ENS_9allocatorIPNS_16__hash_node_baseIPNS_11__hash_nodeINS_17__hash_value_typeINS_12basic_stringIcNS_11char_traitsIcEENS1_IcEEEE4SuitEEPvEEEEEEEC2B7v160006Ev, symObjAddr: 0x1C7EC, symBinAddr: 0x100020FDC, symSize: 0x54 }
  - { offsetInCU: 0x14CFF, offset: 0x14CFF, size: 0x8, addend: 0x0, symName: __ZNSt3__117__compressed_pairINS_16__hash_node_baseIPNS_11__hash_nodeINS_17__hash_value_typeINS_12basic_stringIcNS_11char_traitsIcEENS_9allocatorIcEEEE4SuitEEPvEEEENS7_ISD_EEEC2B7v160006ILb1EvEEv, symObjAddr: 0x1C840, symBinAddr: 0x100021030, symSize: 0xEC }
  - { offsetInCU: 0x14D34, offset: 0x14D34, size: 0x8, addend: 0x0, symName: __ZNSt3__122__compressed_pair_elemINS_16__hash_node_baseIPNS_11__hash_nodeINS_17__hash_value_typeINS_12basic_stringIcNS_11char_traitsIcEENS_9allocatorIcEEEE4SuitEEPvEEEELi0ELb0EEC2B7v160006ENS_16__value_init_tagE, symObjAddr: 0x1C92C, symBinAddr: 0x10002111C, symSize: 0x78 }
  - { offsetInCU: 0x14D69, offset: 0x14D69, size: 0x8, addend: 0x0, symName: __ZNSt3__122__compressed_pair_elemINS_9allocatorINS_11__hash_nodeINS_17__hash_value_typeINS_12basic_stringIcNS_11char_traitsIcEENS1_IcEEEE4SuitEEPvEEEELi1ELb1EEC2B7v160006ENS_16__value_init_tagE, symObjAddr: 0x1C9A4, symBinAddr: 0x100021194, symSize: 0x84 }
  - { offsetInCU: 0x14D9E, offset: 0x14D9E, size: 0x8, addend: 0x0, symName: __ZNSt3__116__hash_node_baseIPNS_11__hash_nodeINS_17__hash_value_typeINS_12basic_stringIcNS_11char_traitsIcEENS_9allocatorIcEEEE4SuitEEPvEEEC1B7v160006Ev, symObjAddr: 0x1CA28, symBinAddr: 0x100021218, symSize: 0x78 }
  - { offsetInCU: 0x14DC8, offset: 0x14DC8, size: 0x8, addend: 0x0, symName: __ZNSt3__116__hash_node_baseIPNS_11__hash_nodeINS_17__hash_value_typeINS_12basic_stringIcNS_11char_traitsIcEENS_9allocatorIcEEEE4SuitEEPvEEEC2B7v160006Ev, symObjAddr: 0x1CAA0, symBinAddr: 0x100021290, symSize: 0xB8 }
  - { offsetInCU: 0x14DF2, offset: 0x14DF2, size: 0x8, addend: 0x0, symName: __ZNSt3__19allocatorINS_11__hash_nodeINS_17__hash_value_typeINS_12basic_stringIcNS_11char_traitsIcEENS0_IcEEEE4SuitEEPvEEEC2B7v160006Ev, symObjAddr: 0x1CB58, symBinAddr: 0x100021348, symSize: 0x84 }
  - { offsetInCU: 0x14E1C, offset: 0x14E1C, size: 0x8, addend: 0x0, symName: __ZNSt3__116__non_trivial_ifILb1ENS_9allocatorINS_11__hash_nodeINS_17__hash_value_typeINS_12basic_stringIcNS_11char_traitsIcEENS1_IcEEEE4SuitEEPvEEEEEC2B7v160006Ev, symObjAddr: 0x1CBDC, symBinAddr: 0x1000213CC, symSize: 0x54 }
  - { offsetInCU: 0x14E46, offset: 0x14E46, size: 0x8, addend: 0x0, symName: __ZNSt3__117__compressed_pairImNS_22__unordered_map_hasherINS_12basic_stringIcNS_11char_traitsIcEENS_9allocatorIcEEEENS_17__hash_value_typeIS7_4SuitEENS_4hashIS7_EENS_8equal_toIS7_EELb1EEEEC2B7v160006IiNS_18__default_init_tagEEEOT_OT0_, symObjAddr: 0x1CC30, symBinAddr: 0x100021420, symSize: 0x140 }
  - { offsetInCU: 0x14E9E, offset: 0x14E9E, size: 0x8, addend: 0x0, symName: __ZNSt3__122__compressed_pair_elemINS_22__unordered_map_hasherINS_12basic_stringIcNS_11char_traitsIcEENS_9allocatorIcEEEENS_17__hash_value_typeIS7_4SuitEENS_4hashIS7_EENS_8equal_toIS7_EELb1EEELi1ELb1EEC2B7v160006ENS_18__default_init_tagE, symObjAddr: 0x1CD70, symBinAddr: 0x100021560, symSize: 0x84 }
  - { offsetInCU: 0x14ED3, offset: 0x14ED3, size: 0x8, addend: 0x0, symName: __ZNSt3__122__unordered_map_hasherINS_12basic_stringIcNS_11char_traitsIcEENS_9allocatorIcEEEENS_17__hash_value_typeIS6_4SuitEENS_4hashIS6_EENS_8equal_toIS6_EELb1EEC2B7v160006Ev, symObjAddr: 0x1CDF4, symBinAddr: 0x1000215E4, symSize: 0x54 }
  - { offsetInCU: 0x14EFD, offset: 0x14EFD, size: 0x8, addend: 0x0, symName: __ZNSt3__117__compressed_pairIfNS_21__unordered_map_equalINS_12basic_stringIcNS_11char_traitsIcEENS_9allocatorIcEEEENS_17__hash_value_typeIS7_4SuitEENS_8equal_toIS7_EENS_4hashIS7_EELb1EEEEC2B7v160006IfNS_18__default_init_tagEEEOT_OT0_, symObjAddr: 0x1CE48, symBinAddr: 0x100021638, symSize: 0x140 }
  - { offsetInCU: 0x14F55, offset: 0x14F55, size: 0x8, addend: 0x0, symName: __ZNSt3__122__compressed_pair_elemINS_21__unordered_map_equalINS_12basic_stringIcNS_11char_traitsIcEENS_9allocatorIcEEEENS_17__hash_value_typeIS7_4SuitEENS_8equal_toIS7_EENS_4hashIS7_EELb1EEELi1ELb1EEC2B7v160006ENS_18__default_init_tagE, symObjAddr: 0x1CF88, symBinAddr: 0x100021778, symSize: 0x84 }
  - { offsetInCU: 0x14F8A, offset: 0x14F8A, size: 0x8, addend: 0x0, symName: __ZNSt3__121__unordered_map_equalINS_12basic_stringIcNS_11char_traitsIcEENS_9allocatorIcEEEENS_17__hash_value_typeIS6_4SuitEENS_8equal_toIS6_EENS_4hashIS6_EELb1EEC2B7v160006Ev, symObjAddr: 0x1D00C, symBinAddr: 0x1000217FC, symSize: 0x54 }
  - { offsetInCU: 0x14FB4, offset: 0x14FB4, size: 0x8, addend: 0x0, symName: __ZNSt3__112__hash_tableINS_17__hash_value_typeINS_12basic_stringIcNS_11char_traitsIcEENS_9allocatorIcEEEE4SuitEENS_22__unordered_map_hasherIS7_S9_NS_4hashIS7_EENS_8equal_toIS7_EELb1EEENS_21__unordered_map_equalIS7_S9_SE_SC_Lb1EEENS5_IS9_EEE15__insert_uniqueB7v160006ERKNS_4pairIKS7_S8_EE, symObjAddr: 0x1D060, symBinAddr: 0x100021850, symSize: 0x34C }
  - { offsetInCU: 0x14FEB, offset: 0x14FEB, size: 0x8, addend: 0x0, symName: __ZNSt3__112__hash_tableINS_17__hash_value_typeINS_12basic_stringIcNS_11char_traitsIcEENS_9allocatorIcEEEE4SuitEENS_22__unordered_map_hasherIS7_S9_NS_4hashIS7_EENS_8equal_toIS7_EELb1EEENS_21__unordered_map_equalIS7_S9_SE_SC_Lb1EEENS5_IS9_EEE25__emplace_unique_key_argsIS7_JRKNS_4pairIKS7_S8_EEEEENSL_INS_15__hash_iteratorIPNS_11__hash_nodeIS9_PvEEEEbEERKT_DpOT0_, symObjAddr: 0x1D3AC, symBinAddr: 0x100021B9C, symSize: 0x1CBC }
  - { offsetInCU: 0x150D5, offset: 0x150D5, size: 0x8, addend: 0x0, symName: __ZNSt3__122__hash_key_value_typesINS_17__hash_value_typeINS_12basic_stringIcNS_11char_traitsIcEENS_9allocatorIcEEEE4SuitEEE9__get_keyB7v160006ERKNS_4pairIKS7_S8_EE, symObjAddr: 0x1F068, symBinAddr: 0x100023858, symSize: 0x68 }
  - { offsetInCU: 0x150F8, offset: 0x150F8, size: 0x8, addend: 0x0, symName: __ZNSt3__112__hash_tableINS_17__hash_value_typeINS_12basic_stringIcNS_11char_traitsIcEENS_9allocatorIcEEEE4SuitEENS_22__unordered_map_hasherIS7_S9_NS_4hashIS7_EENS_8equal_toIS7_EELb1EEENS_21__unordered_map_equalIS7_S9_SE_SC_Lb1EEENS5_IS9_EEE13hash_functionB7v160006Ev, symObjAddr: 0x1F0D0, symBinAddr: 0x1000238C0, symSize: 0xE4 }
  - { offsetInCU: 0x1511E, offset: 0x1511E, size: 0x8, addend: 0x0, symName: __ZNKSt3__122__unordered_map_hasherINS_12basic_stringIcNS_11char_traitsIcEENS_9allocatorIcEEEENS_17__hash_value_typeIS6_4SuitEENS_4hashIS6_EENS_8equal_toIS6_EELb1EEclB7v160006ERKS6_, symObjAddr: 0x1F1B4, symBinAddr: 0x1000239A4, symSize: 0xC8 }
  - { offsetInCU: 0x15153, offset: 0x15153, size: 0x8, addend: 0x0, symName: __ZNKSt3__112__hash_tableINS_17__hash_value_typeINS_12basic_stringIcNS_11char_traitsIcEENS_9allocatorIcEEEE4SuitEENS_22__unordered_map_hasherIS7_S9_NS_4hashIS7_EENS_8equal_toIS7_EELb1EEENS_21__unordered_map_equalIS7_S9_SE_SC_Lb1EEENS5_IS9_EEE12bucket_countB7v160006Ev, symObjAddr: 0x1F27C, symBinAddr: 0x100023A6C, symSize: 0xFC }
  - { offsetInCU: 0x15179, offset: 0x15179, size: 0x8, addend: 0x0, symName: __ZNKSt3__110unique_ptrIA_PNS_16__hash_node_baseIPNS_11__hash_nodeINS_17__hash_value_typeINS_12basic_stringIcNS_11char_traitsIcEENS_9allocatorIcEEEE4SuitEEPvEEEENS_25__bucket_list_deallocatorINS7_ISG_EEEEEixB7v160006Em, symObjAddr: 0x1F378, symBinAddr: 0x100023B68, symSize: 0x25C }
  - { offsetInCU: 0x151AE, offset: 0x151AE, size: 0x8, addend: 0x0, symName: __ZNKSt3__116__hash_node_baseIPNS_11__hash_nodeINS_17__hash_value_typeINS_12basic_stringIcNS_11char_traitsIcEENS_9allocatorIcEEEE4SuitEEPvEEE6__hashB7v160006Ev, symObjAddr: 0x1F5D4, symBinAddr: 0x100023DC4, symSize: 0x180 }
  - { offsetInCU: 0x151D4, offset: 0x151D4, size: 0x8, addend: 0x0, symName: __ZNSt3__112__hash_tableINS_17__hash_value_typeINS_12basic_stringIcNS_11char_traitsIcEENS_9allocatorIcEEEE4SuitEENS_22__unordered_map_hasherIS7_S9_NS_4hashIS7_EENS_8equal_toIS7_EELb1EEENS_21__unordered_map_equalIS7_S9_SE_SC_Lb1EEENS5_IS9_EEE6key_eqB7v160006Ev, symObjAddr: 0x1F754, symBinAddr: 0x100023F44, symSize: 0xE4 }
  - { offsetInCU: 0x151FA, offset: 0x151FA, size: 0x8, addend: 0x0, symName: __ZNKSt3__121__unordered_map_equalINS_12basic_stringIcNS_11char_traitsIcEENS_9allocatorIcEEEENS_17__hash_value_typeIS6_4SuitEENS_8equal_toIS6_EENS_4hashIS6_EELb1EEclB7v160006ERKS9_RKS6_, symObjAddr: 0x1F838, symBinAddr: 0x100024028, symSize: 0x190 }
  - { offsetInCU: 0x1523E, offset: 0x1523E, size: 0x8, addend: 0x0, symName: __ZNSt3__116__hash_node_baseIPNS_11__hash_nodeINS_17__hash_value_typeINS_12basic_stringIcNS_11char_traitsIcEENS_9allocatorIcEEEE4SuitEEPvEEE8__upcastB7v160006Ev, symObjAddr: 0x1F9C8, symBinAddr: 0x1000241B8, symSize: 0xF8 }
  - { offsetInCU: 0x15264, offset: 0x15264, size: 0x8, addend: 0x0, symName: __ZNSt3__112__hash_tableINS_17__hash_value_typeINS_12basic_stringIcNS_11char_traitsIcEENS_9allocatorIcEEEE4SuitEENS_22__unordered_map_hasherIS7_S9_NS_4hashIS7_EENS_8equal_toIS7_EELb1EEENS_21__unordered_map_equalIS7_S9_SE_SC_Lb1EEENS5_IS9_EEE21__construct_node_hashIRKNS_4pairIKS7_S8_EEJEEENS_10unique_ptrINS_11__hash_nodeIS9_PvEENS_22__hash_node_destructorINS5_IST_EEEEEEmOT_DpOT0_, symObjAddr: 0x1FAC0, symBinAddr: 0x1000242B0, symSize: 0x8E0 }
  - { offsetInCU: 0x152DC, offset: 0x152DC, size: 0x8, addend: 0x0, symName: __ZNSt3__112__hash_tableINS_17__hash_value_typeINS_12basic_stringIcNS_11char_traitsIcEENS_9allocatorIcEEEE4SuitEENS_22__unordered_map_hasherIS7_S9_NS_4hashIS7_EENS_8equal_toIS7_EELb1EEENS_21__unordered_map_equalIS7_S9_SE_SC_Lb1EEENS5_IS9_EEE4sizeB7v160006Ev, symObjAddr: 0x203A0, symBinAddr: 0x100024B90, symSize: 0x100 }
  - { offsetInCU: 0x15302, offset: 0x15302, size: 0x8, addend: 0x0, symName: __ZNSt3__112__hash_tableINS_17__hash_value_typeINS_12basic_stringIcNS_11char_traitsIcEENS_9allocatorIcEEEE4SuitEENS_22__unordered_map_hasherIS7_S9_NS_4hashIS7_EENS_8equal_toIS7_EELb1EEENS_21__unordered_map_equalIS7_S9_SE_SC_Lb1EEENS5_IS9_EEE15max_load_factorB7v160006Ev, symObjAddr: 0x204A0, symBinAddr: 0x100024C90, symSize: 0x100 }
  - { offsetInCU: 0x15328, offset: 0x15328, size: 0x8, addend: 0x0, symName: __ZNSt3__112__hash_tableINS_17__hash_value_typeINS_12basic_stringIcNS_11char_traitsIcEENS_9allocatorIcEEEE4SuitEENS_22__unordered_map_hasherIS7_S9_NS_4hashIS7_EENS_8equal_toIS7_EELb1EEENS_21__unordered_map_equalIS7_S9_SE_SC_Lb1EEENS5_IS9_EEE15__rehash_uniqueB7v160006Em, symObjAddr: 0x205A0, symBinAddr: 0x100024D90, symSize: 0x74 }
  - { offsetInCU: 0x1535D, offset: 0x1535D, size: 0x8, addend: 0x0, symName: __ZNSt3__117__compressed_pairINS_16__hash_node_baseIPNS_11__hash_nodeINS_17__hash_value_typeINS_12basic_stringIcNS_11char_traitsIcEENS_9allocatorIcEEEE4SuitEEPvEEEENS7_ISD_EEE5firstB7v160006Ev, symObjAddr: 0x20614, symBinAddr: 0x100024E04, symSize: 0x124 }
  - { offsetInCU: 0x15383, offset: 0x15383, size: 0x8, addend: 0x0, symName: __ZNSt3__116__hash_node_baseIPNS_11__hash_nodeINS_17__hash_value_typeINS_12basic_stringIcNS_11char_traitsIcEENS_9allocatorIcEEEE4SuitEEPvEEE5__ptrB7v160006Ev, symObjAddr: 0x20738, symBinAddr: 0x100024F28, symSize: 0xB0 }
  - { offsetInCU: 0x153A9, offset: 0x153A9, size: 0x8, addend: 0x0, symName: __ZNKSt3__110unique_ptrINS_11__hash_nodeINS_17__hash_value_typeINS_12basic_stringIcNS_11char_traitsIcEENS_9allocatorIcEEEE4SuitEEPvEENS_22__hash_node_destructorINS6_ISC_EEEEEptB7v160006Ev, symObjAddr: 0x207E8, symBinAddr: 0x100024FD8, symSize: 0x13C }
  - { offsetInCU: 0x153CF, offset: 0x153CF, size: 0x8, addend: 0x0, symName: __ZNKSt3__110unique_ptrINS_11__hash_nodeINS_17__hash_value_typeINS_12basic_stringIcNS_11char_traitsIcEENS_9allocatorIcEEEE4SuitEEPvEENS_22__hash_node_destructorINS6_ISC_EEEEE3getB7v160006Ev, symObjAddr: 0x20924, symBinAddr: 0x100025114, symSize: 0x13C }
  - { offsetInCU: 0x153F5, offset: 0x153F5, size: 0x8, addend: 0x0, symName: __ZNSt3__110unique_ptrINS_11__hash_nodeINS_17__hash_value_typeINS_12basic_stringIcNS_11char_traitsIcEENS_9allocatorIcEEEE4SuitEEPvEENS_22__hash_node_destructorINS6_ISC_EEEEE7releaseB7v160006Ev, symObjAddr: 0x20A60, symBinAddr: 0x100025250, symSize: 0x20C }
  - { offsetInCU: 0x1542A, offset: 0x1542A, size: 0x8, addend: 0x0, symName: __ZNSt3__110unique_ptrINS_11__hash_nodeINS_17__hash_value_typeINS_12basic_stringIcNS_11char_traitsIcEENS_9allocatorIcEEEE4SuitEEPvEENS_22__hash_node_destructorINS6_ISC_EEEEED1B7v160006Ev, symObjAddr: 0x20C6C, symBinAddr: 0x10002545C, symSize: 0x78 }
  - { offsetInCU: 0x15454, offset: 0x15454, size: 0x8, addend: 0x0, symName: __ZNSt3__115__hash_iteratorIPNS_11__hash_nodeINS_17__hash_value_typeINS_12basic_stringIcNS_11char_traitsIcEENS_9allocatorIcEEEE4SuitEEPvEEEC1B7v160006EPNS_16__hash_node_baseISD_EEPKv, symObjAddr: 0x20CE4, symBinAddr: 0x1000254D4, symSize: 0x88 }
  - { offsetInCU: 0x154A1, offset: 0x154A1, size: 0x8, addend: 0x0, symName: __ZNSt3__14pairINS_15__hash_iteratorIPNS_11__hash_nodeINS_17__hash_value_typeINS_12basic_stringIcNS_11char_traitsIcEENS_9allocatorIcEEEE4SuitEEPvEEEEbEC1B7v160006ISF_RbLSC_0EEEOT_OT0_, symObjAddr: 0x20D6C, symBinAddr: 0x10002555C, symSize: 0x88 }
  - { offsetInCU: 0x154FF, offset: 0x154FF, size: 0x8, addend: 0x0, symName: __ZNSt3__117__compressed_pairImNS_22__unordered_map_hasherINS_12basic_stringIcNS_11char_traitsIcEENS_9allocatorIcEEEENS_17__hash_value_typeIS7_4SuitEENS_4hashIS7_EENS_8equal_toIS7_EELb1EEEE6secondB7v160006Ev, symObjAddr: 0x20DF4, symBinAddr: 0x1000255E4, symSize: 0x108 }
  - { offsetInCU: 0x15525, offset: 0x15525, size: 0x8, addend: 0x0, symName: __ZNSt3__122__compressed_pair_elemINS_22__unordered_map_hasherINS_12basic_stringIcNS_11char_traitsIcEENS_9allocatorIcEEEENS_17__hash_value_typeIS7_4SuitEENS_4hashIS7_EENS_8equal_toIS7_EELb1EEELi1ELb1EE5__getB7v160006Ev, symObjAddr: 0x20EFC, symBinAddr: 0x1000256EC, symSize: 0x74 }
  - { offsetInCU: 0x1554B, offset: 0x1554B, size: 0x8, addend: 0x0, symName: __ZNKSt3__110unique_ptrIA_PNS_16__hash_node_baseIPNS_11__hash_nodeINS_17__hash_value_typeINS_12basic_stringIcNS_11char_traitsIcEENS_9allocatorIcEEEE4SuitEEPvEEEENS_25__bucket_list_deallocatorINS7_ISG_EEEEE11get_deleterB7v160006Ev, symObjAddr: 0x20F70, symBinAddr: 0x100025760, symSize: 0xF8 }
  - { offsetInCU: 0x15571, offset: 0x15571, size: 0x8, addend: 0x0, symName: __ZNKSt3__125__bucket_list_deallocatorINS_9allocatorIPNS_16__hash_node_baseIPNS_11__hash_nodeINS_17__hash_value_typeINS_12basic_stringIcNS_11char_traitsIcEENS1_IcEEEE4SuitEEPvEEEEEEE4sizeB7v160006Ev, symObjAddr: 0x21068, symBinAddr: 0x100025858, symSize: 0x13C }
  - { offsetInCU: 0x15597, offset: 0x15597, size: 0x8, addend: 0x0, symName: __ZNKSt3__117__compressed_pairIPPNS_16__hash_node_baseIPNS_11__hash_nodeINS_17__hash_value_typeINS_12basic_stringIcNS_11char_traitsIcEENS_9allocatorIcEEEE4SuitEEPvEEEENS_25__bucket_list_deallocatorINS7_ISG_EEEEE6secondB7v160006Ev, symObjAddr: 0x211A4, symBinAddr: 0x100025994, symSize: 0x12C }
  - { offsetInCU: 0x155BD, offset: 0x155BD, size: 0x8, addend: 0x0, symName: __ZNKSt3__122__compressed_pair_elemINS_25__bucket_list_deallocatorINS_9allocatorIPNS_16__hash_node_baseIPNS_11__hash_nodeINS_17__hash_value_typeINS_12basic_stringIcNS_11char_traitsIcEENS2_IcEEEE4SuitEEPvEEEEEEEELi1ELb0EE5__getB7v160006Ev, symObjAddr: 0x212D0, symBinAddr: 0x100025AC0, symSize: 0xAC }
  - { offsetInCU: 0x155E3, offset: 0x155E3, size: 0x8, addend: 0x0, symName: __ZNKSt3__117__compressed_pairImNS_9allocatorIPNS_16__hash_node_baseIPNS_11__hash_nodeINS_17__hash_value_typeINS_12basic_stringIcNS_11char_traitsIcEENS1_IcEEEE4SuitEEPvEEEEEEE5firstB7v160006Ev, symObjAddr: 0x2137C, symBinAddr: 0x100025B6C, symSize: 0x124 }
  - { offsetInCU: 0x15609, offset: 0x15609, size: 0x8, addend: 0x0, symName: __ZNKSt3__117__compressed_pairIPPNS_16__hash_node_baseIPNS_11__hash_nodeINS_17__hash_value_typeINS_12basic_stringIcNS_11char_traitsIcEENS_9allocatorIcEEEE4SuitEEPvEEEENS_25__bucket_list_deallocatorINS7_ISG_EEEEE5firstB7v160006Ev, symObjAddr: 0x214A0, symBinAddr: 0x100025C90, symSize: 0x124 }
  - { offsetInCU: 0x1562F, offset: 0x1562F, size: 0x8, addend: 0x0, symName: __ZNKSt3__122__compressed_pair_elemIPPNS_16__hash_node_baseIPNS_11__hash_nodeINS_17__hash_value_typeINS_12basic_stringIcNS_11char_traitsIcEENS_9allocatorIcEEEE4SuitEEPvEEEELi0ELb0EE5__getB7v160006Ev, symObjAddr: 0x215C4, symBinAddr: 0x100025DB4, symSize: 0xAC }
  - { offsetInCU: 0x15655, offset: 0x15655, size: 0x8, addend: 0x0, symName: __ZNSt3__117__compressed_pairIfNS_21__unordered_map_equalINS_12basic_stringIcNS_11char_traitsIcEENS_9allocatorIcEEEENS_17__hash_value_typeIS7_4SuitEENS_8equal_toIS7_EENS_4hashIS7_EELb1EEEE6secondB7v160006Ev, symObjAddr: 0x21670, symBinAddr: 0x100025E60, symSize: 0x108 }
  - { offsetInCU: 0x1567B, offset: 0x1567B, size: 0x8, addend: 0x0, symName: __ZNSt3__122__compressed_pair_elemINS_21__unordered_map_equalINS_12basic_stringIcNS_11char_traitsIcEENS_9allocatorIcEEEENS_17__hash_value_typeIS7_4SuitEENS_8equal_toIS7_EENS_4hashIS7_EELb1EEELi1ELb1EE5__getB7v160006Ev, symObjAddr: 0x21778, symBinAddr: 0x100025F68, symSize: 0x74 }
  - { offsetInCU: 0x156A1, offset: 0x156A1, size: 0x8, addend: 0x0, symName: __ZNKSt3__117__hash_value_typeINS_12basic_stringIcNS_11char_traitsIcEENS_9allocatorIcEEEE4SuitE11__get_valueB7v160006Ev, symObjAddr: 0x217EC, symBinAddr: 0x100025FDC, symSize: 0xB4 }
  - { offsetInCU: 0x156C7, offset: 0x156C7, size: 0x8, addend: 0x0, symName: __ZNSt3__114pointer_traitsIPNS_16__hash_node_baseIPNS_11__hash_nodeINS_17__hash_value_typeINS_12basic_stringIcNS_11char_traitsIcEENS_9allocatorIcEEEE4SuitEEPvEEEEE10pointer_toB7v160006ERSF_, symObjAddr: 0x218D8, symBinAddr: 0x1000260C8, symSize: 0x14 }
  - { offsetInCU: 0x156EA, offset: 0x156EA, size: 0x8, addend: 0x0, symName: __ZNSt3__112__hash_tableINS_17__hash_value_typeINS_12basic_stringIcNS_11char_traitsIcEENS_9allocatorIcEEEE4SuitEENS_22__unordered_map_hasherIS7_S9_NS_4hashIS7_EENS_8equal_toIS7_EELb1EEENS_21__unordered_map_equalIS7_S9_SE_SC_Lb1EEENS5_IS9_EEE12__node_allocB7v160006Ev, symObjAddr: 0x218EC, symBinAddr: 0x1000260DC, symSize: 0xE4 }
  - { offsetInCU: 0x15710, offset: 0x15710, size: 0x8, addend: 0x0, symName: __ZNSt3__116allocator_traitsINS_9allocatorINS_11__hash_nodeINS_17__hash_value_typeINS_12basic_stringIcNS_11char_traitsIcEENS1_IcEEEE4SuitEEPvEEEEE8allocateB7v160006ERSD_m, symObjAddr: 0x219D0, symBinAddr: 0x1000261C0, symSize: 0x2C }
  - { offsetInCU: 0x15743, offset: 0x15743, size: 0x8, addend: 0x0, symName: __ZNSt3__122__hash_node_destructorINS_9allocatorINS_11__hash_nodeINS_17__hash_value_typeINS_12basic_stringIcNS_11char_traitsIcEENS1_IcEEEE4SuitEEPvEEEEEC1B7v160006ERSD_b, symObjAddr: 0x219FC, symBinAddr: 0x1000261EC, symSize: 0xCC }
  - { offsetInCU: 0x15790, offset: 0x15790, size: 0x8, addend: 0x0, symName: __ZNSt3__110unique_ptrINS_11__hash_nodeINS_17__hash_value_typeINS_12basic_stringIcNS_11char_traitsIcEENS_9allocatorIcEEEE4SuitEEPvEENS_22__hash_node_destructorINS6_ISC_EEEEEC1B7v160006ILb1EvEEPSC_NS_16__dependent_typeINS_27__unique_ptr_deleter_sfinaeISF_EEXT_EE20__good_rval_ref_typeE, symObjAddr: 0x21AC8, symBinAddr: 0x1000262B8, symSize: 0x88 }
  - { offsetInCU: 0x157E1, offset: 0x157E1, size: 0x8, addend: 0x0, symName: __ZNSt3__116allocator_traitsINS_9allocatorINS_11__hash_nodeINS_17__hash_value_typeINS_12basic_stringIcNS_11char_traitsIcEENS1_IcEEEE4SuitEEPvEEEEE9constructB7v160006INS_4pairIKS8_S9_EEJRKSI_EvEEvRSD_PT_DpOT0_, symObjAddr: 0x21B50, symBinAddr: 0x100026340, symSize: 0x8C }
  - { offsetInCU: 0x15838, offset: 0x15838, size: 0x8, addend: 0x0, symName: __ZNSt3__122__hash_key_value_typesINS_17__hash_value_typeINS_12basic_stringIcNS_11char_traitsIcEENS_9allocatorIcEEEE4SuitEEE9__get_ptrB7v160006ERS9_, symObjAddr: 0x21BDC, symBinAddr: 0x1000263CC, symSize: 0x50 }
  - { offsetInCU: 0x1585B, offset: 0x1585B, size: 0x8, addend: 0x0, symName: __ZNSt3__110unique_ptrINS_11__hash_nodeINS_17__hash_value_typeINS_12basic_stringIcNS_11char_traitsIcEENS_9allocatorIcEEEE4SuitEEPvEENS_22__hash_node_destructorINS6_ISC_EEEEE11get_deleterB7v160006Ev, symObjAddr: 0x21C2C, symBinAddr: 0x10002641C, symSize: 0xF8 }
  - { offsetInCU: 0x15881, offset: 0x15881, size: 0x8, addend: 0x0, symName: __ZNSt3__117__compressed_pairINS_16__hash_node_baseIPNS_11__hash_nodeINS_17__hash_value_typeINS_12basic_stringIcNS_11char_traitsIcEENS_9allocatorIcEEEE4SuitEEPvEEEENS7_ISD_EEE6secondB7v160006Ev, symObjAddr: 0x21D24, symBinAddr: 0x100026514, symSize: 0x108 }
  - { offsetInCU: 0x158A7, offset: 0x158A7, size: 0x8, addend: 0x0, symName: __ZNSt3__122__compressed_pair_elemINS_9allocatorINS_11__hash_nodeINS_17__hash_value_typeINS_12basic_stringIcNS_11char_traitsIcEENS1_IcEEEE4SuitEEPvEEEELi1ELb1EE5__getB7v160006Ev, symObjAddr: 0x21E2C, symBinAddr: 0x10002661C, symSize: 0x74 }
  - { offsetInCU: 0x158CD, offset: 0x158CD, size: 0x8, addend: 0x0, symName: __ZNSt3__19allocatorINS_11__hash_nodeINS_17__hash_value_typeINS_12basic_stringIcNS_11char_traitsIcEENS0_IcEEEE4SuitEEPvEEE8allocateB7v160006Em, symObjAddr: 0x21EA0, symBinAddr: 0x100026690, symSize: 0xD0 }
  - { offsetInCU: 0x1590B, offset: 0x1590B, size: 0x8, addend: 0x0, symName: __ZNSt3__116allocator_traitsINS_9allocatorINS_11__hash_nodeINS_17__hash_value_typeINS_12basic_stringIcNS_11char_traitsIcEENS1_IcEEEE4SuitEEPvEEEEE8max_sizeB7v160006ISD_vEEmRKSD_, symObjAddr: 0x21F70, symBinAddr: 0x100026760, symSize: 0x24 }
  - { offsetInCU: 0x15939, offset: 0x15939, size: 0x8, addend: 0x0, symName: __ZNKSt3__19allocatorINS_11__hash_nodeINS_17__hash_value_typeINS_12basic_stringIcNS_11char_traitsIcEENS0_IcEEEE4SuitEEPvEEE8max_sizeB7v160006Ev, symObjAddr: 0x21F94, symBinAddr: 0x100026784, symSize: 0x50 }
  - { offsetInCU: 0x1595F, offset: 0x1595F, size: 0x8, addend: 0x0, symName: __ZNSt3__122__hash_node_destructorINS_9allocatorINS_11__hash_nodeINS_17__hash_value_typeINS_12basic_stringIcNS_11char_traitsIcEENS1_IcEEEE4SuitEEPvEEEEEC2B7v160006ERSD_b, symObjAddr: 0x21FE4, symBinAddr: 0x1000267D4, symSize: 0x1A0 }
  - { offsetInCU: 0x159A7, offset: 0x159A7, size: 0x8, addend: 0x0, symName: __ZNSt3__110unique_ptrINS_11__hash_nodeINS_17__hash_value_typeINS_12basic_stringIcNS_11char_traitsIcEENS_9allocatorIcEEEE4SuitEEPvEENS_22__hash_node_destructorINS6_ISC_EEEEEC2B7v160006ILb1EvEEPSC_NS_16__dependent_typeINS_27__unique_ptr_deleter_sfinaeISF_EEXT_EE20__good_rval_ref_typeE, symObjAddr: 0x22184, symBinAddr: 0x100026974, symSize: 0x2BC }
  - { offsetInCU: 0x159FE, offset: 0x159FE, size: 0x8, addend: 0x0, symName: __ZNSt3__117__compressed_pairIPNS_11__hash_nodeINS_17__hash_value_typeINS_12basic_stringIcNS_11char_traitsIcEENS_9allocatorIcEEEE4SuitEEPvEENS_22__hash_node_destructorINS6_ISC_EEEEEC1B7v160006IRSD_SG_EEOT_OT0_, symObjAddr: 0x22440, symBinAddr: 0x100026C30, symSize: 0x88 }
  - { offsetInCU: 0x15A56, offset: 0x15A56, size: 0x8, addend: 0x0, symName: __ZNSt3__117__compressed_pairIPNS_11__hash_nodeINS_17__hash_value_typeINS_12basic_stringIcNS_11char_traitsIcEENS_9allocatorIcEEEE4SuitEEPvEENS_22__hash_node_destructorINS6_ISC_EEEEEC2B7v160006IRSD_SG_EEOT_OT0_, symObjAddr: 0x224C8, symBinAddr: 0x100026CB8, symSize: 0x1B4 }
  - { offsetInCU: 0x15AAE, offset: 0x15AAE, size: 0x8, addend: 0x0, symName: __ZNSt3__122__compressed_pair_elemIPNS_11__hash_nodeINS_17__hash_value_typeINS_12basic_stringIcNS_11char_traitsIcEENS_9allocatorIcEEEE4SuitEEPvEELi0ELb0EEC2B7v160006IRSD_vEEOT_, symObjAddr: 0x2267C, symBinAddr: 0x100026E6C, symSize: 0x144 }
  - { offsetInCU: 0x15AF0, offset: 0x15AF0, size: 0x8, addend: 0x0, symName: __ZNSt3__122__compressed_pair_elemINS_22__hash_node_destructorINS_9allocatorINS_11__hash_nodeINS_17__hash_value_typeINS_12basic_stringIcNS_11char_traitsIcEENS2_IcEEEE4SuitEEPvEEEEEELi1ELb0EEC2B7v160006ISF_vEEOT_, symObjAddr: 0x227C0, symBinAddr: 0x100026FB0, symSize: 0x84 }
  - { offsetInCU: 0x15B32, offset: 0x15B32, size: 0x8, addend: 0x0, symName: __ZNSt3__19allocatorINS_11__hash_nodeINS_17__hash_value_typeINS_12basic_stringIcNS_11char_traitsIcEENS0_IcEEEE4SuitEEPvEEE9constructB7v160006INS_4pairIKS7_S8_EEJRKSG_EEEvPT_DpOT0_, symObjAddr: 0x22844, symBinAddr: 0x100027034, symSize: 0xEC }
  - { offsetInCU: 0x15B88, offset: 0x15B88, size: 0x8, addend: 0x0, symName: __ZNSt3__14pairIKNS_12basic_stringIcNS_11char_traitsIcEENS_9allocatorIcEEEE4SuitEC1ERKS9_, symObjAddr: 0x22930, symBinAddr: 0x100027120, symSize: 0x80 }
  - { offsetInCU: 0x15BBD, offset: 0x15BBD, size: 0x8, addend: 0x0, symName: __ZNSt3__14pairIKNS_12basic_stringIcNS_11char_traitsIcEENS_9allocatorIcEEEE4SuitEC2ERKS9_, symObjAddr: 0x229B0, symBinAddr: 0x1000271A0, symSize: 0x1E4 }
  - { offsetInCU: 0x15BF2, offset: 0x15BF2, size: 0x8, addend: 0x0, symName: __ZNSt3__117__hash_value_typeINS_12basic_stringIcNS_11char_traitsIcEENS_9allocatorIcEEEE4SuitE11__get_valueB7v160006Ev, symObjAddr: 0x22B94, symBinAddr: 0x100027384, symSize: 0xB4 }
  - { offsetInCU: 0x15C18, offset: 0x15C18, size: 0x8, addend: 0x0, symName: __ZNSt3__117__compressed_pairIPNS_11__hash_nodeINS_17__hash_value_typeINS_12basic_stringIcNS_11char_traitsIcEENS_9allocatorIcEEEE4SuitEEPvEENS_22__hash_node_destructorINS6_ISC_EEEEE6secondB7v160006Ev, symObjAddr: 0x22C80, symBinAddr: 0x100027470, symSize: 0x12C }
  - { offsetInCU: 0x15C3E, offset: 0x15C3E, size: 0x8, addend: 0x0, symName: __ZNSt3__122__compressed_pair_elemINS_22__hash_node_destructorINS_9allocatorINS_11__hash_nodeINS_17__hash_value_typeINS_12basic_stringIcNS_11char_traitsIcEENS2_IcEEEE4SuitEEPvEEEEEELi1ELb0EE5__getB7v160006Ev, symObjAddr: 0x22DAC, symBinAddr: 0x10002759C, symSize: 0xAC }
  - { offsetInCU: 0x15C64, offset: 0x15C64, size: 0x8, addend: 0x0, symName: __ZNSt3__117__compressed_pairImNS_22__unordered_map_hasherINS_12basic_stringIcNS_11char_traitsIcEENS_9allocatorIcEEEENS_17__hash_value_typeIS7_4SuitEENS_4hashIS7_EENS_8equal_toIS7_EELb1EEEE5firstB7v160006Ev, symObjAddr: 0x22E58, symBinAddr: 0x100027648, symSize: 0x124 }
  - { offsetInCU: 0x15C8A, offset: 0x15C8A, size: 0x8, addend: 0x0, symName: __ZNSt3__117__compressed_pairIfNS_21__unordered_map_equalINS_12basic_stringIcNS_11char_traitsIcEENS_9allocatorIcEEEENS_17__hash_value_typeIS7_4SuitEENS_8equal_toIS7_EENS_4hashIS7_EELb1EEEE5firstB7v160006Ev, symObjAddr: 0x22F7C, symBinAddr: 0x10002776C, symSize: 0x124 }
  - { offsetInCU: 0x15CB0, offset: 0x15CB0, size: 0x8, addend: 0x0, symName: __ZNSt3__112__hash_tableINS_17__hash_value_typeINS_12basic_stringIcNS_11char_traitsIcEENS_9allocatorIcEEEE4SuitEENS_22__unordered_map_hasherIS7_S9_NS_4hashIS7_EENS_8equal_toIS7_EELb1EEENS_21__unordered_map_equalIS7_S9_SE_SC_Lb1EEENS5_IS9_EEE8__rehashILb1EEEvm, symObjAddr: 0x230A0, symBinAddr: 0x100027890, symSize: 0x9CC }
  - { offsetInCU: 0x15D06, offset: 0x15D06, size: 0x8, addend: 0x0, symName: __ZNSt3__112__hash_tableINS_17__hash_value_typeINS_12basic_stringIcNS_11char_traitsIcEENS_9allocatorIcEEEE4SuitEENS_22__unordered_map_hasherIS7_S9_NS_4hashIS7_EENS_8equal_toIS7_EELb1EEENS_21__unordered_map_equalIS7_S9_SE_SC_Lb1EEENS5_IS9_EEE11__do_rehashILb1EEEvm, symObjAddr: 0x23A6C, symBinAddr: 0x10002825C, symSize: 0x108C }
  - { offsetInCU: 0x15DEB, offset: 0x15DEB, size: 0x8, addend: 0x0, symName: __ZNSt3__110unique_ptrIA_PNS_16__hash_node_baseIPNS_11__hash_nodeINS_17__hash_value_typeINS_12basic_stringIcNS_11char_traitsIcEENS_9allocatorIcEEEE4SuitEEPvEEEENS_25__bucket_list_deallocatorINS7_ISG_EEEEE11get_deleterB7v160006Ev, symObjAddr: 0x24B08, symBinAddr: 0x1000292F8, symSize: 0xF8 }
  - { offsetInCU: 0x15E11, offset: 0x15E11, size: 0x8, addend: 0x0, symName: __ZNSt3__125__bucket_list_deallocatorINS_9allocatorIPNS_16__hash_node_baseIPNS_11__hash_nodeINS_17__hash_value_typeINS_12basic_stringIcNS_11char_traitsIcEENS1_IcEEEE4SuitEEPvEEEEEEE7__allocB7v160006Ev, symObjAddr: 0x24C00, symBinAddr: 0x1000293F0, symSize: 0xDC }
  - { offsetInCU: 0x15E37, offset: 0x15E37, size: 0x8, addend: 0x0, symName: __ZNSt3__110unique_ptrIA_PNS_16__hash_node_baseIPNS_11__hash_nodeINS_17__hash_value_typeINS_12basic_stringIcNS_11char_traitsIcEENS_9allocatorIcEEEE4SuitEEPvEEEENS_25__bucket_list_deallocatorINS7_ISG_EEEEE5resetB7v160006IPSG_EENS_9enable_ifIXsr28_CheckArrayPointerConversionIT_EE5valueEvE4typeESP_, symObjAddr: 0x24CDC, symBinAddr: 0x1000294CC, symSize: 0x2CC }
  - { offsetInCU: 0x15E84, offset: 0x15E84, size: 0x8, addend: 0x0, symName: __ZNSt3__116allocator_traitsINS_9allocatorIPNS_16__hash_node_baseIPNS_11__hash_nodeINS_17__hash_value_typeINS_12basic_stringIcNS_11char_traitsIcEENS1_IcEEEE4SuitEEPvEEEEEEE8allocateB7v160006ERSH_m, symObjAddr: 0x24FA8, symBinAddr: 0x100029798, symSize: 0x2C }
  - { offsetInCU: 0x15EB7, offset: 0x15EB7, size: 0x8, addend: 0x0, symName: __ZNSt3__125__bucket_list_deallocatorINS_9allocatorIPNS_16__hash_node_baseIPNS_11__hash_nodeINS_17__hash_value_typeINS_12basic_stringIcNS_11char_traitsIcEENS1_IcEEEE4SuitEEPvEEEEEEE4sizeB7v160006Ev, symObjAddr: 0x24FD4, symBinAddr: 0x1000297C4, symSize: 0xF8 }
  - { offsetInCU: 0x15EDD, offset: 0x15EDD, size: 0x8, addend: 0x0, symName: __ZNSt3__117__compressed_pairIPPNS_16__hash_node_baseIPNS_11__hash_nodeINS_17__hash_value_typeINS_12basic_stringIcNS_11char_traitsIcEENS_9allocatorIcEEEE4SuitEEPvEEEENS_25__bucket_list_deallocatorINS7_ISG_EEEEE6secondB7v160006Ev, symObjAddr: 0x250CC, symBinAddr: 0x1000298BC, symSize: 0x12C }
  - { offsetInCU: 0x15F03, offset: 0x15F03, size: 0x8, addend: 0x0, symName: __ZNSt3__122__compressed_pair_elemINS_25__bucket_list_deallocatorINS_9allocatorIPNS_16__hash_node_baseIPNS_11__hash_nodeINS_17__hash_value_typeINS_12basic_stringIcNS_11char_traitsIcEENS2_IcEEEE4SuitEEPvEEEEEEEELi1ELb0EE5__getB7v160006Ev, symObjAddr: 0x251F8, symBinAddr: 0x1000299E8, symSize: 0xAC }
  - { offsetInCU: 0x15F29, offset: 0x15F29, size: 0x8, addend: 0x0, symName: __ZNSt3__117__compressed_pairImNS_9allocatorIPNS_16__hash_node_baseIPNS_11__hash_nodeINS_17__hash_value_typeINS_12basic_stringIcNS_11char_traitsIcEENS1_IcEEEE4SuitEEPvEEEEEEE6secondB7v160006Ev, symObjAddr: 0x252A4, symBinAddr: 0x100029A94, symSize: 0x108 }
  - { offsetInCU: 0x15F4F, offset: 0x15F4F, size: 0x8, addend: 0x0, symName: __ZNSt3__122__compressed_pair_elemINS_9allocatorIPNS_16__hash_node_baseIPNS_11__hash_nodeINS_17__hash_value_typeINS_12basic_stringIcNS_11char_traitsIcEENS1_IcEEEE4SuitEEPvEEEEEELi1ELb1EE5__getB7v160006Ev, symObjAddr: 0x253AC, symBinAddr: 0x100029B9C, symSize: 0x74 }
  - { offsetInCU: 0x15F75, offset: 0x15F75, size: 0x8, addend: 0x0, symName: __ZNSt3__117__compressed_pairIPPNS_16__hash_node_baseIPNS_11__hash_nodeINS_17__hash_value_typeINS_12basic_stringIcNS_11char_traitsIcEENS_9allocatorIcEEEE4SuitEEPvEEEENS_25__bucket_list_deallocatorINS7_ISG_EEEEE5firstB7v160006Ev, symObjAddr: 0x25420, symBinAddr: 0x100029C10, symSize: 0x124 }
  - { offsetInCU: 0x15F9B, offset: 0x15F9B, size: 0x8, addend: 0x0, symName: __ZNSt3__125__bucket_list_deallocatorINS_9allocatorIPNS_16__hash_node_baseIPNS_11__hash_nodeINS_17__hash_value_typeINS_12basic_stringIcNS_11char_traitsIcEENS1_IcEEEE4SuitEEPvEEEEEEEclB7v160006EPSG_, symObjAddr: 0x25544, symBinAddr: 0x100029D34, symSize: 0x140 }
  - { offsetInCU: 0x15FD0, offset: 0x15FD0, size: 0x8, addend: 0x0, symName: __ZNSt3__122__compressed_pair_elemIPPNS_16__hash_node_baseIPNS_11__hash_nodeINS_17__hash_value_typeINS_12basic_stringIcNS_11char_traitsIcEENS_9allocatorIcEEEE4SuitEEPvEEEELi0ELb0EE5__getB7v160006Ev, symObjAddr: 0x25684, symBinAddr: 0x100029E74, symSize: 0xAC }
  - { offsetInCU: 0x15FF6, offset: 0x15FF6, size: 0x8, addend: 0x0, symName: __ZNSt3__116allocator_traitsINS_9allocatorIPNS_16__hash_node_baseIPNS_11__hash_nodeINS_17__hash_value_typeINS_12basic_stringIcNS_11char_traitsIcEENS1_IcEEEE4SuitEEPvEEEEEEE10deallocateB7v160006ERSH_PSG_m, symObjAddr: 0x25730, symBinAddr: 0x100029F20, symSize: 0x34 }
  - { offsetInCU: 0x16038, offset: 0x16038, size: 0x8, addend: 0x0, symName: __ZNSt3__19allocatorIPNS_16__hash_node_baseIPNS_11__hash_nodeINS_17__hash_value_typeINS_12basic_stringIcNS_11char_traitsIcEENS0_IcEEEE4SuitEEPvEEEEE10deallocateB7v160006EPSF_m, symObjAddr: 0x25764, symBinAddr: 0x100029F54, symSize: 0x78 }
  - { offsetInCU: 0x1607A, offset: 0x1607A, size: 0x8, addend: 0x0, symName: __ZNSt3__19allocatorIPNS_16__hash_node_baseIPNS_11__hash_nodeINS_17__hash_value_typeINS_12basic_stringIcNS_11char_traitsIcEENS0_IcEEEE4SuitEEPvEEEEE8allocateB7v160006Em, symObjAddr: 0x257DC, symBinAddr: 0x100029FCC, symSize: 0xCC }
  - { offsetInCU: 0x160B8, offset: 0x160B8, size: 0x8, addend: 0x0, symName: __ZNSt3__116allocator_traitsINS_9allocatorIPNS_16__hash_node_baseIPNS_11__hash_nodeINS_17__hash_value_typeINS_12basic_stringIcNS_11char_traitsIcEENS1_IcEEEE4SuitEEPvEEEEEEE8max_sizeB7v160006ISH_vEEmRKSH_, symObjAddr: 0x258A8, symBinAddr: 0x10002A098, symSize: 0x24 }
  - { offsetInCU: 0x160E6, offset: 0x160E6, size: 0x8, addend: 0x0, symName: __ZNKSt3__19allocatorIPNS_16__hash_node_baseIPNS_11__hash_nodeINS_17__hash_value_typeINS_12basic_stringIcNS_11char_traitsIcEENS0_IcEEEE4SuitEEPvEEEEE8max_sizeB7v160006Ev, symObjAddr: 0x258CC, symBinAddr: 0x10002A0BC, symSize: 0x4C }
  - { offsetInCU: 0x1610C, offset: 0x1610C, size: 0x8, addend: 0x0, symName: __ZNSt3__117__compressed_pairImNS_9allocatorIPNS_16__hash_node_baseIPNS_11__hash_nodeINS_17__hash_value_typeINS_12basic_stringIcNS_11char_traitsIcEENS1_IcEEEE4SuitEEPvEEEEEEE5firstB7v160006Ev, symObjAddr: 0x25918, symBinAddr: 0x10002A108, symSize: 0x124 }
  - { offsetInCU: 0x16132, offset: 0x16132, size: 0x8, addend: 0x0, symName: __ZNSt3__122__compressed_pair_elemINS_16__hash_node_baseIPNS_11__hash_nodeINS_17__hash_value_typeINS_12basic_stringIcNS_11char_traitsIcEENS_9allocatorIcEEEE4SuitEEPvEEEELi0ELb0EE5__getB7v160006Ev, symObjAddr: 0x25A3C, symBinAddr: 0x10002A22C, symSize: 0xAC }
  - { offsetInCU: 0x16158, offset: 0x16158, size: 0x8, addend: 0x0, symName: __ZNKSt3__117__compressed_pairIPNS_11__hash_nodeINS_17__hash_value_typeINS_12basic_stringIcNS_11char_traitsIcEENS_9allocatorIcEEEE4SuitEEPvEENS_22__hash_node_destructorINS6_ISC_EEEEE5firstB7v160006Ev, symObjAddr: 0x25AE8, symBinAddr: 0x10002A2D8, symSize: 0x124 }
  - { offsetInCU: 0x1617E, offset: 0x1617E, size: 0x8, addend: 0x0, symName: __ZNKSt3__122__compressed_pair_elemIPNS_11__hash_nodeINS_17__hash_value_typeINS_12basic_stringIcNS_11char_traitsIcEENS_9allocatorIcEEEE4SuitEEPvEELi0ELb0EE5__getB7v160006Ev, symObjAddr: 0x25C0C, symBinAddr: 0x10002A3FC, symSize: 0xAC }
  - { offsetInCU: 0x161A4, offset: 0x161A4, size: 0x8, addend: 0x0, symName: __ZNSt3__117__compressed_pairIPNS_11__hash_nodeINS_17__hash_value_typeINS_12basic_stringIcNS_11char_traitsIcEENS_9allocatorIcEEEE4SuitEEPvEENS_22__hash_node_destructorINS6_ISC_EEEEE5firstB7v160006Ev, symObjAddr: 0x25CB8, symBinAddr: 0x10002A4A8, symSize: 0x124 }
  - { offsetInCU: 0x161CA, offset: 0x161CA, size: 0x8, addend: 0x0, symName: __ZNSt3__122__compressed_pair_elemIPNS_11__hash_nodeINS_17__hash_value_typeINS_12basic_stringIcNS_11char_traitsIcEENS_9allocatorIcEEEE4SuitEEPvEELi0ELb0EE5__getB7v160006Ev, symObjAddr: 0x25DDC, symBinAddr: 0x10002A5CC, symSize: 0xAC }
  - { offsetInCU: 0x161F0, offset: 0x161F0, size: 0x8, addend: 0x0, symName: __ZNSt3__110unique_ptrINS_11__hash_nodeINS_17__hash_value_typeINS_12basic_stringIcNS_11char_traitsIcEENS_9allocatorIcEEEE4SuitEEPvEENS_22__hash_node_destructorINS6_ISC_EEEEED2B7v160006Ev, symObjAddr: 0x25E88, symBinAddr: 0x10002A678, symSize: 0x7C }
  - { offsetInCU: 0x1621A, offset: 0x1621A, size: 0x8, addend: 0x0, symName: __ZNSt3__110unique_ptrINS_11__hash_nodeINS_17__hash_value_typeINS_12basic_stringIcNS_11char_traitsIcEENS_9allocatorIcEEEE4SuitEEPvEENS_22__hash_node_destructorINS6_ISC_EEEEE5resetB7v160006EPSC_, symObjAddr: 0x25F04, symBinAddr: 0x10002A6F4, symSize: 0x2CC }
  - { offsetInCU: 0x1625E, offset: 0x1625E, size: 0x8, addend: 0x0, symName: __ZNSt3__122__hash_node_destructorINS_9allocatorINS_11__hash_nodeINS_17__hash_value_typeINS_12basic_stringIcNS_11char_traitsIcEENS1_IcEEEE4SuitEEPvEEEEEclB7v160006EPSC_, symObjAddr: 0x261D0, symBinAddr: 0x10002A9C0, symSize: 0x2C0 }
  - { offsetInCU: 0x16293, offset: 0x16293, size: 0x8, addend: 0x0, symName: __ZNSt3__116allocator_traitsINS_9allocatorINS_11__hash_nodeINS_17__hash_value_typeINS_12basic_stringIcNS_11char_traitsIcEENS1_IcEEEE4SuitEEPvEEEEE7destroyB7v160006INS_4pairIKS8_S9_EEvvEEvRSD_PT_, symObjAddr: 0x26490, symBinAddr: 0x10002AC80, symSize: 0x70 }
  - { offsetInCU: 0x162CE, offset: 0x162CE, size: 0x8, addend: 0x0, symName: __ZNSt3__116allocator_traitsINS_9allocatorINS_11__hash_nodeINS_17__hash_value_typeINS_12basic_stringIcNS_11char_traitsIcEENS1_IcEEEE4SuitEEPvEEEEE10deallocateB7v160006ERSD_PSC_m, symObjAddr: 0x26500, symBinAddr: 0x10002ACF0, symSize: 0x34 }
  - { offsetInCU: 0x16310, offset: 0x16310, size: 0x8, addend: 0x0, symName: __ZNSt3__19allocatorINS_11__hash_nodeINS_17__hash_value_typeINS_12basic_stringIcNS_11char_traitsIcEENS0_IcEEEE4SuitEEPvEEE10deallocateB7v160006EPSB_m, symObjAddr: 0x26534, symBinAddr: 0x10002AD24, symSize: 0x7C }
  - { offsetInCU: 0x16352, offset: 0x16352, size: 0x8, addend: 0x0, symName: __ZNSt3__115__hash_iteratorIPNS_11__hash_nodeINS_17__hash_value_typeINS_12basic_stringIcNS_11char_traitsIcEENS_9allocatorIcEEEE4SuitEEPvEEEC2B7v160006EPNS_16__hash_node_baseISD_EEPKv, symObjAddr: 0x265B0, symBinAddr: 0x10002ADA0, symSize: 0xCC }
  - { offsetInCU: 0x1639A, offset: 0x1639A, size: 0x8, addend: 0x0, symName: __ZNSt3__14pairINS_15__hash_iteratorIPNS_11__hash_nodeINS_17__hash_value_typeINS_12basic_stringIcNS_11char_traitsIcEENS_9allocatorIcEEEE4SuitEEPvEEEEbEC2B7v160006ISF_RbLSC_0EEEOT_OT0_, symObjAddr: 0x2667C, symBinAddr: 0x10002AE6C, symSize: 0x1C8 }
  - { offsetInCU: 0x163F8, offset: 0x163F8, size: 0x8, addend: 0x0, symName: __ZNSt3__112__hash_tableINS_17__hash_value_typeINS_12basic_stringIcNS_11char_traitsIcEENS_9allocatorIcEEEE4SuitEENS_22__unordered_map_hasherIS7_S9_NS_4hashIS7_EENS_8equal_toIS7_EELb1EEENS_21__unordered_map_equalIS7_S9_SE_SC_Lb1EEENS5_IS9_EEED2Ev, symObjAddr: 0x26844, symBinAddr: 0x10002B034, symSize: 0x1C0 }
  - { offsetInCU: 0x16424, offset: 0x16424, size: 0x8, addend: 0x0, symName: __ZNSt3__112__hash_tableINS_17__hash_value_typeINS_12basic_stringIcNS_11char_traitsIcEENS_9allocatorIcEEEE4SuitEENS_22__unordered_map_hasherIS7_S9_NS_4hashIS7_EENS_8equal_toIS7_EELb1EEENS_21__unordered_map_equalIS7_S9_SE_SC_Lb1EEENS5_IS9_EEE17__deallocate_nodeEPNS_16__hash_node_baseIPNS_11__hash_nodeIS9_PvEEEE, symObjAddr: 0x26A04, symBinAddr: 0x10002B1F4, symSize: 0x318 }
  - { offsetInCU: 0x1648E, offset: 0x1648E, size: 0x8, addend: 0x0, symName: __ZNSt3__110unique_ptrIA_PNS_16__hash_node_baseIPNS_11__hash_nodeINS_17__hash_value_typeINS_12basic_stringIcNS_11char_traitsIcEENS_9allocatorIcEEEE4SuitEEPvEEEENS_25__bucket_list_deallocatorINS7_ISG_EEEEED1B7v160006Ev, symObjAddr: 0x26D2C, symBinAddr: 0x10002B51C, symSize: 0x78 }
  - { offsetInCU: 0x164B8, offset: 0x164B8, size: 0x8, addend: 0x0, symName: __ZNSt3__110unique_ptrIA_PNS_16__hash_node_baseIPNS_11__hash_nodeINS_17__hash_value_typeINS_12basic_stringIcNS_11char_traitsIcEENS_9allocatorIcEEEE4SuitEEPvEEEENS_25__bucket_list_deallocatorINS7_ISG_EEEEED2B7v160006Ev, symObjAddr: 0x26DA4, symBinAddr: 0x10002B594, symSize: 0x7C }
  - { offsetInCU: 0x164E2, offset: 0x164E2, size: 0x8, addend: 0x0, symName: __ZNSt3__110unique_ptrIA_PNS_16__hash_node_baseIPNS_11__hash_nodeINS_17__hash_value_typeINS_12basic_stringIcNS_11char_traitsIcEENS_9allocatorIcEEEE4SuitEEPvEEEENS_25__bucket_list_deallocatorINS7_ISG_EEEEE5resetB7v160006EDn, symObjAddr: 0x26E20, symBinAddr: 0x10002B610, symSize: 0x2C0 }
  - { offsetInCU: 0x16523, offset: 0x16523, size: 0x8, addend: 0x0, symName: __ZNSt3__113unordered_mapINS_12basic_stringIcNS_11char_traitsIcEENS_9allocatorIcEEEE4SuitNS_4hashIS6_EENS_8equal_toIS6_EENS4_INS_4pairIKS6_S7_EEEEED2B7v160006Ev, symObjAddr: 0x270E0, symBinAddr: 0x10002B8D0, symSize: 0x78 }
  - { offsetInCU: 0x1654D, offset: 0x1654D, size: 0x8, addend: 0x0, symName: __ZNSt3__112basic_stringIcNS_11char_traitsIcEENS_9allocatorIcEEEC2B7v160006Ev, symObjAddr: 0x27158, symBinAddr: 0x10002B948, symSize: 0x27C }
  - { offsetInCU: 0x16578, offset: 0x16578, size: 0x8, addend: 0x0, symName: __ZNSt3__112basic_stringIcNS_11char_traitsIcEENS_9allocatorIcEEE14__default_initB7v160006Ev, symObjAddr: 0x273D4, symBinAddr: 0x10002BBC4, symSize: 0x2B4 }
  - { offsetInCU: 0x1659F, offset: 0x1659F, size: 0x8, addend: 0x0, symName: __ZNSt3__117__compressed_pairINS_12basic_stringIcNS_11char_traitsIcEENS_9allocatorIcEEE5__repES5_E5firstB7v160006Ev, symObjAddr: 0x27688, symBinAddr: 0x10002BE78, symSize: 0x124 }
  - { offsetInCU: 0x165C5, offset: 0x165C5, size: 0x8, addend: 0x0, symName: __ZNSt3__122__compressed_pair_elemINS_12basic_stringIcNS_11char_traitsIcEENS_9allocatorIcEEE5__repELi0ELb0EE5__getB7v160006Ev, symObjAddr: 0x277AC, symBinAddr: 0x10002BF9C, symSize: 0xAC }
  - { offsetInCU: 0x16685, offset: 0x16685, size: 0x8, addend: 0x0, symName: __ZNKSt3__113basic_istreamIcNS_11char_traitsIcEEE6sentrycvbB7v160006Ev, symObjAddr: 0x27858, symBinAddr: 0x10002C048, symSize: 0xE8 }
  - { offsetInCU: 0x166AB, offset: 0x166AB, size: 0x8, addend: 0x0, symName: __ZNSt3__112basic_stringIcNS_11char_traitsIcEENS_9allocatorIcEEE5clearB7v160006Ev, symObjAddr: 0x27940, symBinAddr: 0x10002C130, symSize: 0x3B4 }
  - { offsetInCU: 0x166D4, offset: 0x166D4, size: 0x8, addend: 0x0, symName: __ZNKSt3__18ios_base5widthB7v160006Ev, symObjAddr: 0x27CF4, symBinAddr: 0x10002C4E4, symSize: 0x138 }
  - { offsetInCU: 0x166FC, offset: 0x166FC, size: 0x8, addend: 0x0, symName: __ZNKSt3__112basic_stringIcNS_11char_traitsIcEENS_9allocatorIcEEE8max_sizeB7v160006Ev, symObjAddr: 0x27E2C, symBinAddr: 0x10002C61C, symSize: 0x1B8 }
  - { offsetInCU: 0x1674E, offset: 0x1674E, size: 0x8, addend: 0x0, symName: __ZNSt3__114numeric_limitsIlE3maxB7v160006Ev, symObjAddr: 0x27FE4, symBinAddr: 0x10002C7D4, symSize: 0x14 }
  - { offsetInCU: 0x16762, offset: 0x16762, size: 0x8, addend: 0x0, symName: __ZNKSt3__19basic_iosIcNS_11char_traitsIcEEE5rdbufB7v160006Ev, symObjAddr: 0x28180, symBinAddr: 0x10002C970, symSize: 0x120 }
  - { offsetInCU: 0x1678A, offset: 0x1678A, size: 0x8, addend: 0x0, symName: __ZNSt3__115basic_streambufIcNS_11char_traitsIcEEE5sgetcB7v160006Ev, symObjAddr: 0x282A0, symBinAddr: 0x10002CA90, symSize: 0x418 }
  - { offsetInCU: 0x167B0, offset: 0x167B0, size: 0x8, addend: 0x0, symName: __ZNSt3__111char_traitsIcE11eq_int_typeEii, symObjAddr: 0x286B8, symBinAddr: 0x10002CEA8, symSize: 0x28 }
  - { offsetInCU: 0x167E1, offset: 0x167E1, size: 0x8, addend: 0x0, symName: __ZNSt3__111char_traitsIcE3eofEv, symObjAddr: 0x286E0, symBinAddr: 0x10002CED0, symSize: 0x8 }
  - { offsetInCU: 0x167F5, offset: 0x167F5, size: 0x8, addend: 0x0, symName: __ZNSt3__111char_traitsIcE12to_char_typeEi, symObjAddr: 0x286E8, symBinAddr: 0x10002CED8, symSize: 0x18 }
  - { offsetInCU: 0x16845, offset: 0x16845, size: 0x8, addend: 0x0, symName: __ZNKSt3__15ctypeIcE2isB7v160006Ejc, symObjAddr: 0x28700, symBinAddr: 0x10002CEF0, symSize: 0x314 }
  - { offsetInCU: 0x16889, offset: 0x16889, size: 0x8, addend: 0x0, symName: __ZNSt3__115basic_streambufIcNS_11char_traitsIcEEE6sbumpcB7v160006Ev, symObjAddr: 0x28A14, symBinAddr: 0x10002D204, symSize: 0x4D8 }
  - { offsetInCU: 0x168AF, offset: 0x168AF, size: 0x8, addend: 0x0, symName: __ZNSt3__18ios_base5widthB7v160006El, symObjAddr: 0x28EEC, symBinAddr: 0x10002D6DC, symSize: 0x1F8 }
  - { offsetInCU: 0x168F5, offset: 0x168F5, size: 0x8, addend: 0x0, symName: __ZNSt3__18ios_base18__setstate_nothrowB7v160006Ej, symObjAddr: 0x290E4, symBinAddr: 0x10002D8D4, symSize: 0x320 }
  - { offsetInCU: 0x1692A, offset: 0x1692A, size: 0x8, addend: 0x0, symName: __ZNKSt3__19basic_iosIcNS_11char_traitsIcEEE10exceptionsB7v160006Ev, symObjAddr: 0x29404, symBinAddr: 0x10002DBF4, symSize: 0x120 }
  - { offsetInCU: 0x16950, offset: 0x16950, size: 0x8, addend: 0x0, symName: __ZNSt3__19basic_iosIcNS_11char_traitsIcEEE8setstateB7v160006Ej, symObjAddr: 0x29524, symBinAddr: 0x10002DD14, symSize: 0x128 }
  - { offsetInCU: 0x16985, offset: 0x16985, size: 0x8, addend: 0x0, symName: __ZNSt3__111char_traitsIcE6assignERcRKc, symObjAddr: 0x2965C, symBinAddr: 0x10002DE4C, symSize: 0xF4 }
  - { offsetInCU: 0x169B6, offset: 0x169B6, size: 0x8, addend: 0x0, symName: __ZNSt3__112basic_stringIcNS_11char_traitsIcEENS_9allocatorIcEEE18__get_long_pointerB7v160006Ev, symObjAddr: 0x29750, symBinAddr: 0x10002DF40, symSize: 0x208 }
  - { offsetInCU: 0x169DC, offset: 0x169DC, size: 0x8, addend: 0x0, symName: __ZNSt3__112basic_stringIcNS_11char_traitsIcEENS_9allocatorIcEEE15__set_long_sizeB7v160006Em, symObjAddr: 0x29958, symBinAddr: 0x10002E148, symSize: 0x220 }
  - { offsetInCU: 0x16A11, offset: 0x16A11, size: 0x8, addend: 0x0, symName: __ZNSt3__112basic_stringIcNS_11char_traitsIcEENS_9allocatorIcEEE19__get_short_pointerB7v160006Ev, symObjAddr: 0x29B78, symBinAddr: 0x10002E368, symSize: 0x1CC }
  - { offsetInCU: 0x16A37, offset: 0x16A37, size: 0x8, addend: 0x0, symName: __ZNSt3__112basic_stringIcNS_11char_traitsIcEENS_9allocatorIcEEE16__set_short_sizeB7v160006Em, symObjAddr: 0x29D44, symBinAddr: 0x10002E534, symSize: 0x394 }
  - { offsetInCU: 0x16A6C, offset: 0x16A6C, size: 0x8, addend: 0x0, symName: __ZNSt3__114pointer_traitsIPcE10pointer_toB7v160006ERc, symObjAddr: 0x2A0D8, symBinAddr: 0x10002E8C8, symSize: 0x14 }
  - { offsetInCU: 0x16A99, offset: 0x16A99, size: 0x8, addend: 0x0, symName: __ZNSt3__116allocator_traitsINS_9allocatorIcEEE8max_sizeB7v160006IS2_vEEmRKS2_, symObjAddr: 0x2A0EC, symBinAddr: 0x10002E8DC, symSize: 0x24 }
  - { offsetInCU: 0x16AC7, offset: 0x16AC7, size: 0x8, addend: 0x0, symName: __ZNKSt3__112basic_stringIcNS_11char_traitsIcEENS_9allocatorIcEEE7__allocB7v160006Ev, symObjAddr: 0x2A110, symBinAddr: 0x10002E900, symSize: 0xDC }
  - { offsetInCU: 0x16AED, offset: 0x16AED, size: 0x8, addend: 0x0, symName: __ZNSt3__114numeric_limitsImE3maxB7v160006Ev, symObjAddr: 0x2A1EC, symBinAddr: 0x10002E9DC, symSize: 0x14 }
  - { offsetInCU: 0x16B01, offset: 0x16B01, size: 0x8, addend: 0x0, symName: __ZNKSt3__19allocatorIcE8max_sizeB7v160006Ev, symObjAddr: 0x2A200, symBinAddr: 0x10002E9F0, symSize: 0x4C }
  - { offsetInCU: 0x16B27, offset: 0x16B27, size: 0x8, addend: 0x0, symName: __ZNKSt3__117__compressed_pairINS_12basic_stringIcNS_11char_traitsIcEENS_9allocatorIcEEE5__repES5_E6secondB7v160006Ev, symObjAddr: 0x2A24C, symBinAddr: 0x10002EA3C, symSize: 0x108 }
  - { offsetInCU: 0x16B4D, offset: 0x16B4D, size: 0x8, addend: 0x0, symName: __ZNKSt3__122__compressed_pair_elemINS_9allocatorIcEELi1ELb1EE5__getB7v160006Ev, symObjAddr: 0x2A354, symBinAddr: 0x10002EB44, symSize: 0x74 }
  - { offsetInCU: 0x16B73, offset: 0x16B73, size: 0x8, addend: 0x0, symName: __ZNSt3__123__libcpp_numeric_limitsImLb1EE3maxB7v160006Ev, symObjAddr: 0x2A3C8, symBinAddr: 0x10002EBB8, symSize: 0x8 }
  - { offsetInCU: 0x16B87, offset: 0x16B87, size: 0x8, addend: 0x0, symName: __ZNSt3__123__libcpp_numeric_limitsIlLb1EE3maxB7v160006Ev, symObjAddr: 0x2A3D0, symBinAddr: 0x10002EBC0, symSize: 0x8 }
  - { offsetInCU: 0x16B9B, offset: 0x16B9B, size: 0x8, addend: 0x0, symName: __ZNKSt3__18ios_base5rdbufB7v160006Ev, symObjAddr: 0x2A3D8, symBinAddr: 0x10002EBC8, symSize: 0x138 }
  - { offsetInCU: 0x16BC1, offset: 0x16BC1, size: 0x8, addend: 0x0, symName: __ZNSt3__111char_traitsIcE11to_int_typeEc, symObjAddr: 0x2A510, symBinAddr: 0x10002ED00, symSize: 0x14 }
  - { offsetInCU: 0x16BE3, offset: 0x16BE3, size: 0x8, addend: 0x0, symName: __Z7isasciii, symObjAddr: 0x2A524, symBinAddr: 0x10002ED14, symSize: 0x24 }
  - { offsetInCU: 0x16C10, offset: 0x16C10, size: 0x8, addend: 0x0, symName: __ZNKSt3__18ios_base10exceptionsB7v160006Ev, symObjAddr: 0x2A548, symBinAddr: 0x10002ED38, symSize: 0x160 }
  - { offsetInCU: 0x16C38, offset: 0x16C38, size: 0x8, addend: 0x0, symName: __ZNSt3__18ios_base8setstateB7v160006Ej, symObjAddr: 0x2A6A8, symBinAddr: 0x10002EE98, symSize: 0x1E0 }
  - { offsetInCU: 0x16C6F, offset: 0x16C6F, size: 0x8, addend: 0x0, symName: __ZNSt3__112__hash_tableINS_17__hash_value_typeINS_12basic_stringIcNS_11char_traitsIcEENS_9allocatorIcEEEE5ValueEENS_22__unordered_map_hasherIS7_S9_NS_4hashIS7_EENS_8equal_toIS7_EELb1EEENS_21__unordered_map_equalIS7_S9_SE_SC_Lb1EEENS5_IS9_EEE4findIS7_EENS_15__hash_iteratorIPNS_11__hash_nodeIS9_PvEEEERKT_, symObjAddr: 0x2A888, symBinAddr: 0x10002F078, symSize: 0x8EC }
  - { offsetInCU: 0x16CF7, offset: 0x16CF7, size: 0x8, addend: 0x0, symName: __ZNSt3__119__hash_map_iteratorINS_15__hash_iteratorIPNS_11__hash_nodeINS_17__hash_value_typeINS_12basic_stringIcNS_11char_traitsIcEENS_9allocatorIcEEEE5ValueEEPvEEEEEC1B7v160006ESF_, symObjAddr: 0x2B174, symBinAddr: 0x10002F964, symSize: 0x28C }
  - { offsetInCU: 0x16D35, offset: 0x16D35, size: 0x8, addend: 0x0, symName: __ZNSt3__112__hash_tableINS_17__hash_value_typeINS_12basic_stringIcNS_11char_traitsIcEENS_9allocatorIcEEEE5ValueEENS_22__unordered_map_hasherIS7_S9_NS_4hashIS7_EENS_8equal_toIS7_EELb1EEENS_21__unordered_map_equalIS7_S9_SE_SC_Lb1EEENS5_IS9_EEE3endEv, symObjAddr: 0x2B400, symBinAddr: 0x10002FBF0, symSize: 0x248 }
  - { offsetInCU: 0x16D5E, offset: 0x16D5E, size: 0x8, addend: 0x0, symName: __ZNSt3__119__hash_map_iteratorINS_15__hash_iteratorIPNS_11__hash_nodeINS_17__hash_value_typeINS_12basic_stringIcNS_11char_traitsIcEENS_9allocatorIcEEEE5ValueEEPvEEEEEC2B7v160006ESF_, symObjAddr: 0x2B648, symBinAddr: 0x10002FE38, symSize: 0x25C }
  - { offsetInCU: 0x16D9C, offset: 0x16D9C, size: 0x8, addend: 0x0, symName: __ZNSt3__112__hash_tableINS_17__hash_value_typeINS_12basic_stringIcNS_11char_traitsIcEENS_9allocatorIcEEEE4SuitEENS_22__unordered_map_hasherIS7_S9_NS_4hashIS7_EENS_8equal_toIS7_EELb1EEENS_21__unordered_map_equalIS7_S9_SE_SC_Lb1EEENS5_IS9_EEE4findIS7_EENS_15__hash_iteratorIPNS_11__hash_nodeIS9_PvEEEERKT_, symObjAddr: 0x2B9B8, symBinAddr: 0x1000301A8, symSize: 0x8EC }
  - { offsetInCU: 0x16E24, offset: 0x16E24, size: 0x8, addend: 0x0, symName: __ZNSt3__119__hash_map_iteratorINS_15__hash_iteratorIPNS_11__hash_nodeINS_17__hash_value_typeINS_12basic_stringIcNS_11char_traitsIcEENS_9allocatorIcEEEE4SuitEEPvEEEEEC1B7v160006ESF_, symObjAddr: 0x2C2A4, symBinAddr: 0x100030A94, symSize: 0x28C }
  - { offsetInCU: 0x16E62, offset: 0x16E62, size: 0x8, addend: 0x0, symName: __ZNSt3__112__hash_tableINS_17__hash_value_typeINS_12basic_stringIcNS_11char_traitsIcEENS_9allocatorIcEEEE4SuitEENS_22__unordered_map_hasherIS7_S9_NS_4hashIS7_EENS_8equal_toIS7_EELb1EEENS_21__unordered_map_equalIS7_S9_SE_SC_Lb1EEENS5_IS9_EEE3endEv, symObjAddr: 0x2C530, symBinAddr: 0x100030D20, symSize: 0x248 }
  - { offsetInCU: 0x16E8B, offset: 0x16E8B, size: 0x8, addend: 0x0, symName: __ZNSt3__119__hash_map_iteratorINS_15__hash_iteratorIPNS_11__hash_nodeINS_17__hash_value_typeINS_12basic_stringIcNS_11char_traitsIcEENS_9allocatorIcEEEE4SuitEEPvEEEEEC2B7v160006ESF_, symObjAddr: 0x2C778, symBinAddr: 0x100030F68, symSize: 0x25C }
  - { offsetInCU: 0x16EDD, offset: 0x16EDD, size: 0x8, addend: 0x0, symName: __ZNSt3__112__hash_tableINS_17__hash_value_typeINS_12basic_stringIcNS_11char_traitsIcEENS_9allocatorIcEEEE5ValueEENS_22__unordered_map_hasherIS7_S9_NS_4hashIS7_EENS_8equal_toIS7_EELb1EEENS_21__unordered_map_equalIS7_S9_SE_SC_Lb1EEENS5_IS9_EEE25__emplace_unique_key_argsIS7_JRKNS_21piecewise_construct_tENS_5tupleIJRKS7_EEENSO_IJEEEEEENS_4pairINS_15__hash_iteratorIPNS_11__hash_nodeIS9_PvEEEEbEERKT_DpOT0_, symObjAddr: 0x2CAE8, symBinAddr: 0x1000312D8, symSize: 0x1D00 }
  - { offsetInCU: 0x16FF1, offset: 0x16FF1, size: 0x8, addend: 0x0, symName: __ZNKSt3__115__hash_iteratorIPNS_11__hash_nodeINS_17__hash_value_typeINS_12basic_stringIcNS_11char_traitsIcEENS_9allocatorIcEEEE5ValueEEPvEEEptB7v160006Ev, symObjAddr: 0x2EA30, symBinAddr: 0x100033220, symSize: 0x190 }
  - { offsetInCU: 0x17017, offset: 0x17017, size: 0x8, addend: 0x0, symName: __ZNSt3__112__hash_tableINS_17__hash_value_typeINS_12basic_stringIcNS_11char_traitsIcEENS_9allocatorIcEEEE5ValueEENS_22__unordered_map_hasherIS7_S9_NS_4hashIS7_EENS_8equal_toIS7_EELb1EEENS_21__unordered_map_equalIS7_S9_SE_SC_Lb1EEENS5_IS9_EEE21__construct_node_hashIRKNS_21piecewise_construct_tEJNS_5tupleIJRKS7_EEENSO_IJEEEEEENS_10unique_ptrINS_11__hash_nodeIS9_PvEENS_22__hash_node_destructorINS5_ISW_EEEEEEmOT_DpOT0_, symObjAddr: 0x2EBC0, symBinAddr: 0x1000333B0, symSize: 0x948 }
  - { offsetInCU: 0x170BA, offset: 0x170BA, size: 0x8, addend: 0x0, symName: __ZNSt3__116allocator_traitsINS_9allocatorINS_11__hash_nodeINS_17__hash_value_typeINS_12basic_stringIcNS_11char_traitsIcEENS1_IcEEEE5ValueEEPvEEEEE9constructB7v160006INS_4pairIKS8_S9_EEJRKNS_21piecewise_construct_tENS_5tupleIJRSH_EEENSM_IJEEEEvEEvRSD_PT_DpOT0_, symObjAddr: 0x2F508, symBinAddr: 0x100033CF8, symSize: 0xF4 }
  - { offsetInCU: 0x17139, offset: 0x17139, size: 0x8, addend: 0x0, symName: __ZNSt3__19allocatorINS_11__hash_nodeINS_17__hash_value_typeINS_12basic_stringIcNS_11char_traitsIcEENS0_IcEEEE5ValueEEPvEEE9constructB7v160006INS_4pairIKS7_S8_EEJRKNS_21piecewise_construct_tENS_5tupleIJRSF_EEENSK_IJEEEEEEvPT_DpOT0_, symObjAddr: 0x2F5FC, symBinAddr: 0x100033DEC, symSize: 0x284 }
  - { offsetInCU: 0x171BA, offset: 0x171BA, size: 0x8, addend: 0x0, symName: __ZNSt3__14pairIKNS_12basic_stringIcNS_11char_traitsIcEENS_9allocatorIcEEEE5ValueEC1B7v160006IJRS7_EJEEENS_21piecewise_construct_tENS_5tupleIJDpT_EEENSD_IJDpT0_EEE, symObjAddr: 0x2F880, symBinAddr: 0x100034070, symSize: 0x28C }
  - { offsetInCU: 0x1722B, offset: 0x1722B, size: 0x8, addend: 0x0, symName: __ZNSt3__14pairIKNS_12basic_stringIcNS_11char_traitsIcEENS_9allocatorIcEEEE5ValueEC1B7v160006IJRS7_EJEJLm0EEJEEENS_21piecewise_construct_tERNS_5tupleIJDpT_EEERNSD_IJDpT0_EEENS_15__tuple_indicesIJXspT1_EEEENSM_IJXspT2_EEEE, symObjAddr: 0x2FB0C, symBinAddr: 0x1000342FC, symSize: 0x88 }
  - { offsetInCU: 0x172BB, offset: 0x172BB, size: 0x8, addend: 0x0, symName: __ZNSt3__14pairIKNS_12basic_stringIcNS_11char_traitsIcEENS_9allocatorIcEEEE5ValueEC2B7v160006IJRS7_EJEJLm0EEJEEENS_21piecewise_construct_tERNS_5tupleIJDpT_EEERNSD_IJDpT0_EEENS_15__tuple_indicesIJXspT1_EEEENSM_IJXspT2_EEEE, symObjAddr: 0x2FB94, symBinAddr: 0x100034384, symSize: 0x18C }
  - { offsetInCU: 0x1734B, offset: 0x1734B, size: 0x8, addend: 0x0, symName: __ZNSt3__112__tuple_leafILm0ERKNS_12basic_stringIcNS_11char_traitsIcEENS_9allocatorIcEEEELb0EE3getB7v160006Ev, symObjAddr: 0x2FE00, symBinAddr: 0x1000345F0, symSize: 0xF4 }
  - { offsetInCU: 0x17371, offset: 0x17371, size: 0x8, addend: 0x0, symName: __ZNSt3__15tupleIJRKNS_12basic_stringIcNS_11char_traitsIcEENS_9allocatorIcEEEEEEC1B7v160006INS_4_AndELi0EEES8_, symObjAddr: 0x2FEF4, symBinAddr: 0x1000346E4, symSize: 0x80 }
  - { offsetInCU: 0x173B9, offset: 0x173B9, size: 0x8, addend: 0x0, symName: __ZNSt3__15tupleIJRKNS_12basic_stringIcNS_11char_traitsIcEENS_9allocatorIcEEEEEEC2B7v160006INS_4_AndELi0EEES8_, symObjAddr: 0x2FF74, symBinAddr: 0x100034764, symSize: 0xC8 }
  - { offsetInCU: 0x17401, offset: 0x17401, size: 0x8, addend: 0x0, symName: __ZNSt3__112__tuple_implINS_15__tuple_indicesIJLm0EEEEJRKNS_12basic_stringIcNS_11char_traitsIcEENS_9allocatorIcEEEEEEC1B7v160006IJLm0EEJSA_EJEJEJSA_EEENS1_IJXspT_EEEENS_13__tuple_typesIJDpT0_EEENS1_IJXspT1_EEEENSE_IJDpT2_EEEDpOT3_, symObjAddr: 0x3003C, symBinAddr: 0x10003482C, symSize: 0x80 }
  - { offsetInCU: 0x17496, offset: 0x17496, size: 0x8, addend: 0x0, symName: __ZNSt3__112__tuple_implINS_15__tuple_indicesIJLm0EEEEJRKNS_12basic_stringIcNS_11char_traitsIcEENS_9allocatorIcEEEEEEC2B7v160006IJLm0EEJSA_EJEJEJSA_EEENS1_IJXspT_EEEENS_13__tuple_typesIJDpT0_EEENS1_IJXspT1_EEEENSE_IJDpT2_EEEDpOT3_, symObjAddr: 0x300BC, symBinAddr: 0x1000348AC, symSize: 0x10C }
  - { offsetInCU: 0x1752B, offset: 0x1752B, size: 0x8, addend: 0x0, symName: __ZNSt3__112__tuple_leafILm0ERKNS_12basic_stringIcNS_11char_traitsIcEENS_9allocatorIcEEEELb0EEC2B7v160006IS8_vEEOT_, symObjAddr: 0x301C8, symBinAddr: 0x1000349B8, symSize: 0x108 }
  - { offsetInCU: 0x1756E, offset: 0x1756E, size: 0x8, addend: 0x0, symName: __ZNSt3__114pointer_traitsIPNS_17__hash_value_typeINS_12basic_stringIcNS_11char_traitsIcEENS_9allocatorIcEEEE5ValueEEE10pointer_toB7v160006ERS9_, symObjAddr: 0x302D0, symBinAddr: 0x100034AC0, symSize: 0x14 }
  - { offsetInCU: 0x17591, offset: 0x17591, size: 0x8, addend: 0x0, symName: __ZNSt3__112__hash_tableINS_17__hash_value_typeINS_12basic_stringIcNS_11char_traitsIcEENS_9allocatorIcEEEE4SuitEENS_22__unordered_map_hasherIS7_S9_NS_4hashIS7_EENS_8equal_toIS7_EELb1EEENS_21__unordered_map_equalIS7_S9_SE_SC_Lb1EEENS5_IS9_EEE25__emplace_unique_key_argsIS7_JRKNS_21piecewise_construct_tENS_5tupleIJRKS7_EEENSO_IJEEEEEENS_4pairINS_15__hash_iteratorIPNS_11__hash_nodeIS9_PvEEEEbEERKT_DpOT0_, symObjAddr: 0x302E4, symBinAddr: 0x100034AD4, symSize: 0x1D00 }
  - { offsetInCU: 0x176A5, offset: 0x176A5, size: 0x8, addend: 0x0, symName: __ZNKSt3__115__hash_iteratorIPNS_11__hash_nodeINS_17__hash_value_typeINS_12basic_stringIcNS_11char_traitsIcEENS_9allocatorIcEEEE4SuitEEPvEEEptB7v160006Ev, symObjAddr: 0x31FE4, symBinAddr: 0x1000367D4, symSize: 0x190 }
  - { offsetInCU: 0x176CB, offset: 0x176CB, size: 0x8, addend: 0x0, symName: __ZNSt3__112__hash_tableINS_17__hash_value_typeINS_12basic_stringIcNS_11char_traitsIcEENS_9allocatorIcEEEE4SuitEENS_22__unordered_map_hasherIS7_S9_NS_4hashIS7_EENS_8equal_toIS7_EELb1EEENS_21__unordered_map_equalIS7_S9_SE_SC_Lb1EEENS5_IS9_EEE21__construct_node_hashIRKNS_21piecewise_construct_tEJNS_5tupleIJRKS7_EEENSO_IJEEEEEENS_10unique_ptrINS_11__hash_nodeIS9_PvEENS_22__hash_node_destructorINS5_ISW_EEEEEEmOT_DpOT0_, symObjAddr: 0x32174, symBinAddr: 0x100036964, symSize: 0x948 }
  - { offsetInCU: 0x1776E, offset: 0x1776E, size: 0x8, addend: 0x0, symName: __ZNSt3__116allocator_traitsINS_9allocatorINS_11__hash_nodeINS_17__hash_value_typeINS_12basic_stringIcNS_11char_traitsIcEENS1_IcEEEE4SuitEEPvEEEEE9constructB7v160006INS_4pairIKS8_S9_EEJRKNS_21piecewise_construct_tENS_5tupleIJRSH_EEENSM_IJEEEEvEEvRSD_PT_DpOT0_, symObjAddr: 0x32ABC, symBinAddr: 0x1000372AC, symSize: 0xF4 }
  - { offsetInCU: 0x177ED, offset: 0x177ED, size: 0x8, addend: 0x0, symName: __ZNSt3__19allocatorINS_11__hash_nodeINS_17__hash_value_typeINS_12basic_stringIcNS_11char_traitsIcEENS0_IcEEEE4SuitEEPvEEE9constructB7v160006INS_4pairIKS7_S8_EEJRKNS_21piecewise_construct_tENS_5tupleIJRSF_EEENSK_IJEEEEEEvPT_DpOT0_, symObjAddr: 0x32BB0, symBinAddr: 0x1000373A0, symSize: 0x284 }
  - { offsetInCU: 0x1786E, offset: 0x1786E, size: 0x8, addend: 0x0, symName: __ZNSt3__14pairIKNS_12basic_stringIcNS_11char_traitsIcEENS_9allocatorIcEEEE4SuitEC1B7v160006IJRS7_EJEEENS_21piecewise_construct_tENS_5tupleIJDpT_EEENSD_IJDpT0_EEE, symObjAddr: 0x32E34, symBinAddr: 0x100037624, symSize: 0x28C }
  - { offsetInCU: 0x178DF, offset: 0x178DF, size: 0x8, addend: 0x0, symName: __ZNSt3__14pairIKNS_12basic_stringIcNS_11char_traitsIcEENS_9allocatorIcEEEE4SuitEC1B7v160006IJRS7_EJEJLm0EEJEEENS_21piecewise_construct_tERNS_5tupleIJDpT_EEERNSD_IJDpT0_EEENS_15__tuple_indicesIJXspT1_EEEENSM_IJXspT2_EEEE, symObjAddr: 0x330C0, symBinAddr: 0x1000378B0, symSize: 0x88 }
  - { offsetInCU: 0x1796F, offset: 0x1796F, size: 0x8, addend: 0x0, symName: __ZNSt3__14pairIKNS_12basic_stringIcNS_11char_traitsIcEENS_9allocatorIcEEEE4SuitEC2B7v160006IJRS7_EJEJLm0EEJEEENS_21piecewise_construct_tERNS_5tupleIJDpT_EEERNSD_IJDpT0_EEENS_15__tuple_indicesIJXspT1_EEEENSM_IJXspT2_EEEE, symObjAddr: 0x33148, symBinAddr: 0x100037938, symSize: 0x18C }
  - { offsetInCU: 0x179FF, offset: 0x179FF, size: 0x8, addend: 0x0, symName: __ZNSt3__114pointer_traitsIPNS_17__hash_value_typeINS_12basic_stringIcNS_11char_traitsIcEENS_9allocatorIcEEEE4SuitEEE10pointer_toB7v160006ERS9_, symObjAddr: 0x332D4, symBinAddr: 0x100037AC4, symSize: 0x14 }
  - { offsetInCU: 0x17A40, offset: 0x17A40, size: 0x8, addend: 0x0, symName: __ZNKSt3__113basic_ostreamIcNS_11char_traitsIcEEE6sentrycvbB7v160006Ev, symObjAddr: 0x34324, symBinAddr: 0x100038B14, symSize: 0x104 }
  - { offsetInCU: 0x17A66, offset: 0x17A66, size: 0x8, addend: 0x0, symName: __ZNSt3__119ostreambuf_iteratorIcNS_11char_traitsIcEEEC1B7v160006ERNS_13basic_ostreamIcS2_EE, symObjAddr: 0x34FB0, symBinAddr: 0x1000397A0, symSize: 0x80 }
  - { offsetInCU: 0x17A9E, offset: 0x17A9E, size: 0x8, addend: 0x0, symName: __ZNKSt3__18ios_base5flagsB7v160006Ev, symObjAddr: 0x35030, symBinAddr: 0x100039820, symSize: 0x160 }
  - { offsetInCU: 0x17AC6, offset: 0x17AC6, size: 0x8, addend: 0x0, symName: __ZNKSt3__19basic_iosIcNS_11char_traitsIcEEE4fillB7v160006Ev, symObjAddr: 0x35190, symBinAddr: 0x100039980, symSize: 0x39C }
  - { offsetInCU: 0x17AEE, offset: 0x17AEE, size: 0x8, addend: 0x0, symName: __ZNKSt3__119ostreambuf_iteratorIcNS_11char_traitsIcEEE6failedB7v160006Ev, symObjAddr: 0x3552C, symBinAddr: 0x100039D1C, symSize: 0xB8 }
  - { offsetInCU: 0x17B14, offset: 0x17B14, size: 0x8, addend: 0x0, symName: __ZNSt3__115basic_streambufIcNS_11char_traitsIcEEE5sputnB7v160006EPKcl, symObjAddr: 0x355E4, symBinAddr: 0x100039DD4, symSize: 0x198 }
  - { offsetInCU: 0x17B56, offset: 0x17B56, size: 0x8, addend: 0x0, symName: __ZNSt3__112basic_stringIcNS_11char_traitsIcEENS_9allocatorIcEEEC1B7v160006Emc, symObjAddr: 0x3577C, symBinAddr: 0x100039F6C, symSize: 0x88 }
  - { offsetInCU: 0x17B9E, offset: 0x17B9E, size: 0x8, addend: 0x0, symName: __ZNSt3__112basic_stringIcNS_11char_traitsIcEENS_9allocatorIcEEE4dataB7v160006Ev, symObjAddr: 0x35804, symBinAddr: 0x100039FF4, symSize: 0x70 }
  - { offsetInCU: 0x17BC4, offset: 0x17BC4, size: 0x8, addend: 0x0, symName: __ZNSt3__112basic_stringIcNS_11char_traitsIcEENS_9allocatorIcEEEC2B7v160006Emc, symObjAddr: 0x35874, symBinAddr: 0x10003A064, symSize: 0x274 }
  - { offsetInCU: 0x17C0F, offset: 0x17C0F, size: 0x8, addend: 0x0, symName: __ZNSt3__112basic_stringIcNS_11char_traitsIcEENS_9allocatorIcEEE13__get_pointerB7v160006Ev, symObjAddr: 0x35AFC, symBinAddr: 0x10003A2EC, symSize: 0x98 }
  - { offsetInCU: 0x17C35, offset: 0x17C35, size: 0x8, addend: 0x0, symName: __ZNSt3__119ostreambuf_iteratorIcNS_11char_traitsIcEEEC2B7v160006ERNS_13basic_ostreamIcS2_EE, symObjAddr: 0x35B94, symBinAddr: 0x10003A384, symSize: 0x2E8 }
  - { offsetInCU: 0x17C6D, offset: 0x17C6D, size: 0x8, addend: 0x0, symName: __ZNKSt3__19basic_iosIcNS_11char_traitsIcEEE5widenB7v160006Ec, symObjAddr: 0x35E7C, symBinAddr: 0x10003A66C, symSize: 0x47C }
  - { offsetInCU: 0x17CA6, offset: 0x17CA6, size: 0x8, addend: 0x0, symName: __ZNKSt3__15ctypeIcE5widenB7v160006Ec, symObjAddr: 0x362F8, symBinAddr: 0x10003AAE8, symSize: 0x18C }
...
