---
triple:          'arm64-apple-darwin'
binary-path:     executable_debug
relocations:
  - { offsetInCU: 0x3B, offset: 0x3B, size: 0x8, addend: 0x0, symName: _.str, symObjAddr: 0xF7A20, symBinAddr: 0x1000FB820, symSize: 0x0 }
  - { offsetInCU: 0x6B, offset: 0x6B, size: 0x8, addend: 0x0, symName: _.str.1, symObjAddr: 0xF7A40, symBinAddr: 0x1000FB840, symSize: 0x0 }
  - { offsetInCU: 0x88, offset: 0x88, size: 0x8, addend: 0x0, symName: _.str.2, symObjAddr: 0xF7A60, symBinAddr: 0x1000FB860, symSize: 0x0 }
  - { offsetInCU: 0xA5, offset: 0xA5, size: 0x8, addend: 0x0, symName: _.str.3, symObjAddr: 0xF7A80, symBinAddr: 0x1000FB880, symSize: 0x0 }
  - { offsetInCU: 0xB6, offset: 0xB6, size: 0x8, addend: 0x0, symName: _.str.4, symObjAddr: 0xF7AA0, symBinAddr: 0x1000FB8A0, symSize: 0x0 }
  - { offsetInCU: 0xC7, offset: 0xC7, size: 0x8, addend: 0x0, symName: _.str.5, symObjAddr: 0xF7AC0, symBinAddr: 0x1000FB8C0, symSize: 0x0 }
  - { offsetInCU: 0xD8, offset: 0xD8, size: 0x8, addend: 0x0, symName: _.str.6, symObjAddr: 0xF7AE0, symBinAddr: 0x1000FB8E0, symSize: 0x0 }
  - { offsetInCU: 0xE9, offset: 0xE9, size: 0x8, addend: 0x0, symName: _.str.7, symObjAddr: 0xF7B00, symBinAddr: 0x1000FB900, symSize: 0x0 }
  - { offsetInCU: 0xFA, offset: 0xFA, size: 0x8, addend: 0x0, symName: _.str.8, symObjAddr: 0xF7B20, symBinAddr: 0x1000FB920, symSize: 0x0 }
  - { offsetInCU: 0x10B, offset: 0x10B, size: 0x8, addend: 0x0, symName: _.str.9, symObjAddr: 0xF7B40, symBinAddr: 0x1000FB940, symSize: 0x0 }
  - { offsetInCU: 0x11C, offset: 0x11C, size: 0x8, addend: 0x0, symName: _.str.10, symObjAddr: 0xF7B60, symBinAddr: 0x1000FB960, symSize: 0x0 }
  - { offsetInCU: 0x12D, offset: 0x12D, size: 0x8, addend: 0x0, symName: _.str.11, symObjAddr: 0xF7B80, symBinAddr: 0x1000FB980, symSize: 0x0 }
  - { offsetInCU: 0x13E, offset: 0x13E, size: 0x8, addend: 0x0, symName: _.str.12, symObjAddr: 0xF7BA0, symBinAddr: 0x1000FB9A0, symSize: 0x0 }
  - { offsetInCU: 0x153, offset: 0x153, size: 0x8, addend: 0x0, symName: _StringToVal, symObjAddr: 0x2D1420, symBinAddr: 0x1001739A0, symSize: 0x0 }
  - { offsetInCU: 0xC81D, offset: 0xC81D, size: 0x8, addend: 0x0, symName: __ZNSt3__1L19piecewise_constructE, symObjAddr: 0x10DD20, symBinAddr: 0x10010FDE0, symSize: 0x0 }
  - { offsetInCU: 0xF3A1, offset: 0xF3A1, size: 0x8, addend: 0x0, symName: __ZNSt3__111__introsortINS_17_ClassicAlgPolicyERZN8CheckWinC1ENS_6vectorI4CardNS_9allocatorIS4_EEEEEUlRS4_S8_E_PS4_EEvT1_SC_T0_NS_15iterator_traitsISC_E15difference_typeE, symObjAddr: 0x30304, symBinAddr: 0x1000333A8, symSize: 0x3F84 }
  - { offsetInCU: 0xF512, offset: 0xF512, size: 0x8, addend: 0x0, symName: __ZNSt3__118__insertion_sort_3B7v160006INS_17_ClassicAlgPolicyERZN8CheckWinC1ENS_6vectorI4CardNS_9allocatorIS4_EEEEEUlRS4_S8_E_PS4_EEvT1_SC_T0_, symObjAddr: 0x3466C, symBinAddr: 0x100037710, symSize: 0x9E8 }
  - { offsetInCU: 0xF5ED, offset: 0xF5ED, size: 0x8, addend: 0x0, symName: __ZNSt3__111__sift_downB7v160006INS_17_ClassicAlgPolicyERZN8CheckWinC1ENS_6vectorI4CardNS_9allocatorIS4_EEEEEUlRS4_S8_E_PS4_EEvT1_OT0_NS_15iterator_traitsISC_E15difference_typeESC_, symObjAddr: 0x38C44, symBinAddr: 0x10003BCE8, symSize: 0x1100 }
  - { offsetInCU: 0xF6AA, offset: 0xF6AA, size: 0x8, addend: 0x0, symName: __ZNSt3__117__floyd_sift_downB7v160006INS_17_ClassicAlgPolicyERZN8CheckWinC1ENS_6vectorI4CardNS_9allocatorIS4_EEEEEUlRS4_S8_E_PS4_EET1_SC_OT0_NS_15iterator_traitsISC_E15difference_typeE, symObjAddr: 0x3A55C, symBinAddr: 0x10003D600, symSize: 0x884 }
  - { offsetInCU: 0xF74B, offset: 0xF74B, size: 0x8, addend: 0x0, symName: __ZNSt3__127__insertion_sort_incompleteIRZN8CheckWinC1ENS_6vectorI4CardNS_9allocatorIS3_EEEEEUlRS3_S7_E_PS3_EEbT0_SB_T_, symObjAddr: 0x35BC8, symBinAddr: 0x100038C6C, symSize: 0x1998 }
  - { offsetInCU: 0x11055, offset: 0x11055, size: 0x8, addend: 0x0, symName: __ZNSt3__110__function10__not_nullB7v160006INS_6__bindIM4GameFvvEJPS3_EEEEEbRKT_, symObjAddr: 0xD4300, symBinAddr: 0x1000D73A4, symSize: 0x18 }
  - { offsetInCU: 0x13839, offset: 0x13839, size: 0x8, addend: 0x0, symName: __ZNSt3__124__put_character_sequenceB7v160006IcNS_11char_traitsIcEEEERNS_13basic_ostreamIT_T0_EES7_PKS4_m, symObjAddr: 0x74410, symBinAddr: 0x1000774B4, symSize: 0x103C }
  - { offsetInCU: 0x1B12F, offset: 0x1B12F, size: 0x8, addend: 0x0, symName: __ZNSt3__17advanceB7v160006INS_11__wrap_iterIP4CardEEllvEEvRT_T0_, symObjAddr: 0xBAC34, symBinAddr: 0x1000BDCD8, symSize: 0x98 }
  - { offsetInCU: 0x1B1CC, offset: 0x1B1CC, size: 0x8, addend: 0x0, symName: __ZNSt3__17advanceB7v160006IP4CardmmvEEvRT_T0_, symObjAddr: 0xC3C38, symBinAddr: 0x1000C6CDC, symSize: 0x98 }
  - { offsetInCU: 0x2202E, offset: 0x2202E, size: 0x8, addend: 0x0, symName: __ZNSt3__1rsB7v160006IcNS_11char_traitsIcEENS_9allocatorIcEEEERNS_13basic_istreamIT_T0_EES9_RNS_12basic_stringIS6_S7_T1_EE, symObjAddr: 0x161C, symBinAddr: 0x1000046C0, symSize: 0x18BC }
  - { offsetInCU: 0x22107, offset: 0x22107, size: 0x8, addend: 0x0, symName: __ZNSt3__1eqB7v160006ERKNS_19__hash_map_iteratorINS_15__hash_iteratorIPNS_11__hash_nodeINS_17__hash_value_typeINS_12basic_stringIcNS_11char_traitsIcEENS_9allocatorIcEEEE5ValueEEPvEEEEEESI_, symObjAddr: 0x2ED8, symBinAddr: 0x100005F7C, symSize: 0xC0 }
  - { offsetInCU: 0x22144, offset: 0x22144, size: 0x8, addend: 0x0, symName: __ZNSt3__1eqB7v160006ERKNS_19__hash_map_iteratorINS_15__hash_iteratorIPNS_11__hash_nodeINS_17__hash_value_typeINS_12basic_stringIcNS_11char_traitsIcEENS_9allocatorIcEEEE4SuitEEPvEEEEEESI_, symObjAddr: 0x3668, symBinAddr: 0x10000670C, symSize: 0xC0 }
  - { offsetInCU: 0x22181, offset: 0x22181, size: 0x8, addend: 0x0, symName: __ZNSt3__14swapB7v160006I5ValueEENS_9enable_ifIXaasr21is_move_constructibleIT_EE5valuesr18is_move_assignableIS3_EE5valueEvE4typeERS3_S6_, symObjAddr: 0x48CC, symBinAddr: 0x100007970, symSize: 0x260 }
  - { offsetInCU: 0x221D2, offset: 0x221D2, size: 0x8, addend: 0x0, symName: __ZNSt3__14swapB7v160006I4SuitEENS_9enable_ifIXaasr21is_move_constructibleIT_EE5valuesr18is_move_assignableIS3_EE5valueEvE4typeERS3_S6_, symObjAddr: 0x4B2C, symBinAddr: 0x100007BD0, symSize: 0x260 }
  - { offsetInCU: 0x22223, offset: 0x22223, size: 0x8, addend: 0x0, symName: __ZNSt3__1lsB7v160006INS_11char_traitsIcEEEERNS_13basic_ostreamIcT_EES6_PKc, symObjAddr: 0x57DC, symBinAddr: 0x100008880, symSize: 0xD0 }
  - { offsetInCU: 0x22269, offset: 0x22269, size: 0x8, addend: 0x0, symName: __ZNSt3__1neB7v160006IPNS_6threadEEEbRKNS_11__wrap_iterIT_EES7_, symObjAddr: 0x8668, symBinAddr: 0x10000B70C, symSize: 0xC4 }
  - { offsetInCU: 0x222AC, offset: 0x222AC, size: 0x8, addend: 0x0, symName: __ZNSt3__14swapB7v160006I4CardNS_9allocatorIS1_EEEEvRNS_6vectorIT_T0_EES8_, symObjAddr: 0x9648, symBinAddr: 0x10000C6EC, symSize: 0xA0 }
  - { offsetInCU: 0x222F7, offset: 0x222F7, size: 0x8, addend: 0x0, symName: __ZNSt3__14swapB7v160006I4CardEENS_9enable_ifIXaasr21is_move_constructibleIT_EE5valuesr18is_move_assignableIS3_EE5valueEvE4typeERS3_S6_, symObjAddr: 0xA7AC, symBinAddr: 0x10000D850, symSize: 0x1FC }
  - { offsetInCU: 0x22E1A, offset: 0x22E1A, size: 0x8, addend: 0x0, symName: '__ZNSt3__116stable_partitionB7v160006INS_11__wrap_iterIP4CardEEZN8CheckWin13StraightFlushER5ValueE3$_1EET_S9_S9_T0_', symObjAddr: 0xBC84, symBinAddr: 0x10000ED28, symSize: 0x430 }
  - { offsetInCU: 0x22E85, offset: 0x22E85, size: 0x8, addend: 0x0, symName: __ZNSt3__1neB7v160006ERKNS_19__hash_map_iteratorINS_15__hash_iteratorIPNS_11__hash_nodeINS_17__hash_value_typeI5ValueiEEPvEEEEEESC_, symObjAddr: 0xEC08, symBinAddr: 0x100011CAC, symSize: 0xC0 }
  - { offsetInCU: 0x22EC2, offset: 0x22EC2, size: 0x8, addend: 0x0, symName: __ZNSt3__13maxB7v160006IiEERKT_S3_S3_, symObjAddr: 0x13088, symBinAddr: 0x10001612C, symSize: 0x104 }
  - { offsetInCU: 0x22F05, offset: 0x22F05, size: 0x8, addend: 0x0, symName: __ZNSt3__1neB7v160006IP4GameEEbRKNS_11__wrap_iterIT_EES7_, symObjAddr: 0x140CC, symBinAddr: 0x100017170, symSize: 0xC4 }
  - { offsetInCU: 0x22F48, offset: 0x22F48, size: 0x8, addend: 0x0, symName: __ZNSt3__14bindB7v160006IM4GameFvvEJPS1_EEENS_6__bindIT_JDpT0_EEEOS6_DpOS7_, symObjAddr: 0x14284, symBinAddr: 0x100017328, symSize: 0x108 }
  - { offsetInCU: 0x22F99, offset: 0x22F99, size: 0x8, addend: 0x0, symName: __ZNSt3__14endlB7v160006IcNS_11char_traitsIcEEEERNS_13basic_ostreamIT_T0_EES7_, symObjAddr: 0x153B4, symBinAddr: 0x100018458, symSize: 0x3D8 }
  - { offsetInCU: 0x22FD9, offset: 0x22FD9, size: 0x8, addend: 0x0, symName: __ZNSt3__1eqB7v160006IcNS_11char_traitsIcEENS_9allocatorIcEEEEbRKNS_12basic_stringIT_T0_T1_EEPKS6_, symObjAddr: 0x17140, symBinAddr: 0x10001A1E4, symSize: 0x120 }
  - { offsetInCU: 0x23040, offset: 0x23040, size: 0x8, addend: 0x0, symName: __ZNSt3__1eqB7v160006IPNS_6threadEEEbRKNS_11__wrap_iterIT_EES7_, symObjAddr: 0x1854C, symBinAddr: 0x10001B5F0, symSize: 0x9C }
  - { offsetInCU: 0x23083, offset: 0x23083, size: 0x8, addend: 0x0, symName: __ZNSt3__1neB7v160006ERKNS_19__hash_map_iteratorINS_15__hash_iteratorIPNS_11__hash_nodeINS_17__hash_value_typeINS_12basic_stringIcNS_11char_traitsIcEENS_9allocatorIcEEEE5ValueEEPvEEEEEESI_, symObjAddr: 0x1ADA0, symBinAddr: 0x10001DE44, symSize: 0xC0 }
  - { offsetInCU: 0x230C0, offset: 0x230C0, size: 0x8, addend: 0x0, symName: __ZNSt3__1neB7v160006ERKNS_19__hash_map_iteratorINS_15__hash_iteratorIPNS_11__hash_nodeINS_17__hash_value_typeINS_12basic_stringIcNS_11char_traitsIcEENS_9allocatorIcEEEE4SuitEEPvEEEEEESI_, symObjAddr: 0x1B364, symBinAddr: 0x10001E408, symSize: 0xC0 }
  - { offsetInCU: 0x230FD, offset: 0x230FD, size: 0x8, addend: 0x0, symName: __ZNSt3__119__debug_db_insert_cB7v160006INS_6vectorI4CardNS_9allocatorIS2_EEEEEEvPT_, symObjAddr: 0x1BEA0, symBinAddr: 0x10001EF44, symSize: 0x10 }
  - { offsetInCU: 0x2312E, offset: 0x2312E, size: 0x8, addend: 0x0, symName: __ZNSt3__13minB7v160006ImEERKT_S3_S3_, symObjAddr: 0x1D4A4, symBinAddr: 0x100020548, symSize: 0x104 }
  - { offsetInCU: 0x2335B, offset: 0x2335B, size: 0x8, addend: 0x0, symName: __ZNSt3__13minB7v160006ImNS_6__lessImmEEEERKT_S5_S5_T0_, symObjAddr: 0x1D6C4, symBinAddr: 0x100020768, symSize: 0x2C0 }
  - { offsetInCU: 0x233F7, offset: 0x233F7, size: 0x8, addend: 0x0, symName: __ZNSt3__120__throw_length_errorB7v160006EPKc, symObjAddr: 0x1DC40, symBinAddr: 0x100020CE4, symSize: 0xB4 }
  - { offsetInCU: 0x2341F, offset: 0x2341F, size: 0x8, addend: 0x0, symName: __ZNSt3__119__allocate_at_leastB7v160006INS_9allocatorI4CardEEEENS_19__allocation_resultINS_16allocator_traitsIT_E7pointerEEERS6_m, symObjAddr: 0x1E878, symBinAddr: 0x10002191C, symSize: 0x28C }
  - { offsetInCU: 0x23464, offset: 0x23464, size: 0x8, addend: 0x0, symName: __ZNSt3__117__libcpp_allocateB7v160006Emm, symObjAddr: 0x1F0B4, symBinAddr: 0x100022158, symSize: 0x60 }
  - { offsetInCU: 0x234BF, offset: 0x234BF, size: 0x8, addend: 0x0, symName: __ZNSt3__124__is_overaligned_for_newB7v160006Em, symObjAddr: 0x1F114, symBinAddr: 0x1000221B8, symSize: 0x20 }
  - { offsetInCU: 0x234ED, offset: 0x234ED, size: 0x8, addend: 0x0, symName: __ZNSt3__121__libcpp_operator_newB7v160006IJmSt11align_val_tEEEPvDpT_, symObjAddr: 0x1F134, symBinAddr: 0x1000221D8, symSize: 0x6C }
  - { offsetInCU: 0x2353A, offset: 0x2353A, size: 0x8, addend: 0x0, symName: __ZNSt3__121__libcpp_operator_newB7v160006IJmEEEPvDpT_, symObjAddr: 0x1F1A0, symBinAddr: 0x100022244, symSize: 0x24 }
  - { offsetInCU: 0x23573, offset: 0x23573, size: 0x8, addend: 0x0, symName: __ZNSt3__142__uninitialized_allocator_move_if_noexceptB7v160006INS_9allocatorI4CardEENS_16reverse_iteratorIPS2_EES6_S2_vEET1_RT_T0_SA_S7_, symObjAddr: 0x1F8EC, symBinAddr: 0x100022990, symSize: 0x4A8 }
  - { offsetInCU: 0x235FE, offset: 0x235FE, size: 0x8, addend: 0x0, symName: __ZNSt3__14swapB7v160006IP4CardEENS_9enable_ifIXaasr21is_move_constructibleIT_EE5valuesr18is_move_assignableIS4_EE5valueEvE4typeERS4_S7_, symObjAddr: 0x1FEC4, symBinAddr: 0x100022F68, symSize: 0x1C0 }
  - { offsetInCU: 0x2364F, offset: 0x2364F, size: 0x8, addend: 0x0, symName: __ZNSt3__125__debug_db_invalidate_allB7v160006INS_6vectorI4CardNS_9allocatorIS2_EEEEEEvPT_, symObjAddr: 0x204E4, symBinAddr: 0x100023588, symSize: 0x10 }
  - { offsetInCU: 0x23680, offset: 0x23680, size: 0x8, addend: 0x0, symName: __ZNSt3__112__to_addressB7v160006I4CardEEPT_S3_, symObjAddr: 0x20640, symBinAddr: 0x1000236E4, symSize: 0x14 }
  - { offsetInCU: 0x236B5, offset: 0x236B5, size: 0x8, addend: 0x0, symName: __ZNSt3__14moveB7v160006INS_16reverse_iteratorIP4CardEES4_EET0_T_S6_S5_, symObjAddr: 0x20654, symBinAddr: 0x1000236F8, symSize: 0x4B0 }
  - { offsetInCU: 0x2371C, offset: 0x2371C, size: 0x8, addend: 0x0, symName: __ZNSt3__16__moveB7v160006INS_17_ClassicAlgPolicyENS_16reverse_iteratorIP4CardEES5_S5_EENS_4pairIT0_T2_EES7_T1_S8_, symObjAddr: 0x20B04, symBinAddr: 0x100023BA8, symSize: 0x424 }
  - { offsetInCU: 0x23794, offset: 0x23794, size: 0x8, addend: 0x0, symName: __ZNSt3__123__dispatch_copy_or_moveB7v160006INS_17_ClassicAlgPolicyENS_11__move_loopIS1_EENS_14__move_trivialENS_16reverse_iteratorIP4CardEES8_S8_EENS_4pairIT2_T4_EESA_T3_SB_, symObjAddr: 0x20F28, symBinAddr: 0x100023FCC, symSize: 0x424 }
  - { offsetInCU: 0x2381E, offset: 0x2381E, size: 0x8, addend: 0x0, symName: __ZNSt3__121__unwrap_and_dispatchB7v160006INS_10__overloadINS_11__move_loopINS_17_ClassicAlgPolicyEEENS_14__move_trivialEEENS_16reverse_iteratorIP4CardEESA_SA_Li0EEENS_4pairIT0_T2_EESC_T1_SD_, symObjAddr: 0x2134C, symBinAddr: 0x1000243F0, symSize: 0x880 }
  - { offsetInCU: 0x238C2, offset: 0x238C2, size: 0x8, addend: 0x0, symName: __ZNSt3__114__unwrap_rangeB7v160006INS_16reverse_iteratorIP4CardEES4_EENS_4pairIT0_S6_EET_S8_, symObjAddr: 0x21BCC, symBinAddr: 0x100024C70, symSize: 0x448 }
  - { offsetInCU: 0x23A45, offset: 0x23A45, size: 0x8, addend: 0x0, symName: __ZNSt3__113__unwrap_iterB7v160006INS_16reverse_iteratorIP4CardEENS_18__unwrap_iter_implIS4_Lb0EEELi0EEEDTclsrT0_8__unwrapclsr3stdE7declvalIT_EEEES8_, symObjAddr: 0x22384, symBinAddr: 0x100025428, symSize: 0x2EC }
  - { offsetInCU: 0x23A8D, offset: 0x23A8D, size: 0x8, addend: 0x0, symName: __ZNSt3__19make_pairB7v160006INS_16reverse_iteratorIP4CardEES4_EENS_4pairINS_18__unwrap_ref_decayIT_E4typeENS6_IT0_E4typeEEEOS7_OSA_, symObjAddr: 0x22670, symBinAddr: 0x100025714, symSize: 0x108 }
  - { offsetInCU: 0x23ADC, offset: 0x23ADC, size: 0x8, addend: 0x0, symName: __ZNSt3__114__rewrap_rangeB7v160006INS_16reverse_iteratorIP4CardEES4_EET_S5_T0_, symObjAddr: 0x22778, symBinAddr: 0x10002581C, symSize: 0x3D4 }
  - { offsetInCU: 0x23B30, offset: 0x23B30, size: 0x8, addend: 0x0, symName: __ZNSt3__113__rewrap_iterB7v160006INS_16reverse_iteratorIP4CardEES4_NS_18__unwrap_iter_implIS4_Lb0EEEEET_S7_T0_, symObjAddr: 0x22B4C, symBinAddr: 0x100025BF0, symSize: 0x3E8 }
  - { offsetInCU: 0x23B8D, offset: 0x23B8D, size: 0x8, addend: 0x0, symName: __ZNSt3__1neB7v160006IP4CardS2_EEbRKNS_16reverse_iteratorIT_EERKNS3_IT0_EE, symObjAddr: 0x22F34, symBinAddr: 0x100025FD8, symSize: 0x9C }
  - { offsetInCU: 0x23E18, offset: 0x23E18, size: 0x8, addend: 0x0, symName: __ZNSt3__119__libcpp_deallocateB7v160006EPvmm, symObjAddr: 0x2438C, symBinAddr: 0x100027430, symSize: 0x60 }
  - { offsetInCU: 0x23E7D, offset: 0x23E7D, size: 0x8, addend: 0x0, symName: __ZNSt3__127__do_deallocate_handle_sizeB7v160006IJSt11align_val_tEEEvPvmDpT_, symObjAddr: 0x243EC, symBinAddr: 0x100027490, symSize: 0x30 }
  - { offsetInCU: 0x23ED0, offset: 0x23ED0, size: 0x8, addend: 0x0, symName: __ZNSt3__127__do_deallocate_handle_sizeB7v160006IJEEEvPvmDpT_, symObjAddr: 0x2441C, symBinAddr: 0x1000274C0, symSize: 0x28 }
  - { offsetInCU: 0x23F0E, offset: 0x23F0E, size: 0x8, addend: 0x0, symName: __ZNSt3__124__libcpp_operator_deleteB7v160006IJPvSt11align_val_tEEEvDpT_, symObjAddr: 0x24444, symBinAddr: 0x1000274E8, symSize: 0x2C }
  - { offsetInCU: 0x23F57, offset: 0x23F57, size: 0x8, addend: 0x0, symName: __ZNSt3__124__libcpp_operator_deleteB7v160006IJPvEEEvDpT_, symObjAddr: 0x24470, symBinAddr: 0x100027514, symSize: 0x24 }
  - { offsetInCU: 0x23F8C, offset: 0x23F8C, size: 0x8, addend: 0x0, symName: __ZNSt3__1neB7v160006ERKNS_15__hash_iteratorIPNS_11__hash_nodeINS_17__hash_value_typeINS_12basic_stringIcNS_11char_traitsIcEENS_9allocatorIcEEEE5ValueEEPvEEEESG_, symObjAddr: 0x2521C, symBinAddr: 0x1000282C0, symSize: 0xC4 }
  - { offsetInCU: 0x23FC9, offset: 0x23FC9, size: 0x8, addend: 0x0, symName: __ZNSt3__1eqB7v160006ERKNS_15__hash_iteratorIPNS_11__hash_nodeINS_17__hash_value_typeINS_12basic_stringIcNS_11char_traitsIcEENS_9allocatorIcEEEE5ValueEEPvEEEESG_, symObjAddr: 0x252E0, symBinAddr: 0x100028384, symSize: 0x114 }
  - { offsetInCU: 0x2406C, offset: 0x2406C, size: 0x8, addend: 0x0, symName: __ZNSt3__17launderB7v160006INS_4pairIKNS_12basic_stringIcNS_11char_traitsIcEENS_9allocatorIcEEEE5ValueEEEEPT_SC_, symObjAddr: 0x25758, symBinAddr: 0x1000287FC, symSize: 0x24 }
  - { offsetInCU: 0x240A4, offset: 0x240A4, size: 0x8, addend: 0x0, symName: __ZNSt3__19__launderB7v160006INS_4pairIKNS_12basic_stringIcNS_11char_traitsIcEENS_9allocatorIcEEEE5ValueEEEEPT_SC_, symObjAddr: 0x2577C, symBinAddr: 0x100028820, symSize: 0x14 }
  - { offsetInCU: 0x240DB, offset: 0x240DB, size: 0x8, addend: 0x0, symName: __ZNSt3__1neB7v160006ERKNS_15__hash_iteratorIPNS_11__hash_nodeINS_17__hash_value_typeINS_12basic_stringIcNS_11char_traitsIcEENS_9allocatorIcEEEE4SuitEEPvEEEESG_, symObjAddr: 0x264D8, symBinAddr: 0x10002957C, symSize: 0xC4 }
  - { offsetInCU: 0x24118, offset: 0x24118, size: 0x8, addend: 0x0, symName: __ZNSt3__1eqB7v160006ERKNS_15__hash_iteratorIPNS_11__hash_nodeINS_17__hash_value_typeINS_12basic_stringIcNS_11char_traitsIcEENS_9allocatorIcEEEE4SuitEEPvEEEESG_, symObjAddr: 0x2659C, symBinAddr: 0x100029640, symSize: 0x114 }
  - { offsetInCU: 0x241BB, offset: 0x241BB, size: 0x8, addend: 0x0, symName: __ZNSt3__17launderB7v160006INS_4pairIKNS_12basic_stringIcNS_11char_traitsIcEENS_9allocatorIcEEEE4SuitEEEEPT_SC_, symObjAddr: 0x26A14, symBinAddr: 0x100029AB8, symSize: 0x24 }
  - { offsetInCU: 0x241F3, offset: 0x241F3, size: 0x8, addend: 0x0, symName: __ZNSt3__19__launderB7v160006INS_4pairIKNS_12basic_stringIcNS_11char_traitsIcEENS_9allocatorIcEEEE4SuitEEEEPT_SC_, symObjAddr: 0x26A38, symBinAddr: 0x100029ADC, symSize: 0x14 }
  - { offsetInCU: 0x2422A, offset: 0x2422A, size: 0x8, addend: 0x0, symName: __ZNSt3__13maxB7v160006ImEERKT_S3_S3_, symObjAddr: 0x28F28, symBinAddr: 0x10002BFCC, symSize: 0x104 }
  - { offsetInCU: 0x2426D, offset: 0x2426D, size: 0x8, addend: 0x0, symName: __ZNSt3__13maxB7v160006ImNS_6__lessImmEEEERKT_S5_S5_T0_, symObjAddr: 0x2902C, symBinAddr: 0x10002C0D0, symSize: 0x2C0 }
  - { offsetInCU: 0x242CD, offset: 0x242CD, size: 0x8, addend: 0x0, symName: __ZNSt3__113__countl_zeroB7v160006IjEEiT_, symObjAddr: 0x2AFE4, symBinAddr: 0x10002E088, symSize: 0x8C }
  - { offsetInCU: 0x24302, offset: 0x24302, size: 0x8, addend: 0x0, symName: __ZNSt3__112__libcpp_clzB7v160006Ej, symObjAddr: 0x2C084, symBinAddr: 0x10002F128, symSize: 0x18 }
  - { offsetInCU: 0x2432E, offset: 0x2432E, size: 0x8, addend: 0x0, symName: __ZNSt3__14sortB7v160006INS_11__wrap_iterIP4CardEEZN8CheckWinC1ENS_6vectorIS2_NS_9allocatorIS2_EEEEEUlRS2_SA_E_EEvT_SC_T0_, symObjAddr: 0x2CAC8, symBinAddr: 0x10002FB6C, symSize: 0x36C }
  - { offsetInCU: 0x24394, offset: 0x24394, size: 0x8, addend: 0x0, symName: __ZNSt3__1neB7v160006IP4CardEEbRKNS_11__wrap_iterIT_EES7_, symObjAddr: 0x2CE34, symBinAddr: 0x10002FED8, symSize: 0xC4 }
  - { offsetInCU: 0x243D7, offset: 0x243D7, size: 0x8, addend: 0x0, symName: __ZNSt3__119__debug_db_insert_cB7v160006INS_13unordered_mapI5ValueiNS_4hashIS2_EENS_8equal_toIS2_EENS_9allocatorINS_4pairIKS2_iEEEEEEEEvPT_, symObjAddr: 0x2DAE4, symBinAddr: 0x100030B88, symSize: 0x10 }
  - { offsetInCU: 0x24408, offset: 0x24408, size: 0x8, addend: 0x0, symName: __ZNSt3__111__sort_implB7v160006INS_17_ClassicAlgPolicyENS_11__wrap_iterIP4CardEEZN8CheckWinC1ENS_6vectorIS3_NS_9allocatorIS3_EEEEEUlRS3_SB_E_EEvT0_SD_RT1_, symObjAddr: 0x2F794, symBinAddr: 0x100032838, symSize: 0x4C4 }
  - { offsetInCU: 0x244BA, offset: 0x244BA, size: 0x8, addend: 0x0, symName: __ZNSt3__123__debug_randomize_rangeB7v160006INS_17_ClassicAlgPolicyENS_11__wrap_iterIP4CardEES5_EEvT0_T1_, symObjAddr: 0x2FC58, symBinAddr: 0x100032CFC, symSize: 0x264 }
  - { offsetInCU: 0x24513, offset: 0x24513, size: 0x8, addend: 0x0, symName: __ZNSt3__16__sortIRZN8CheckWinC1ENS_6vectorI4CardNS_9allocatorIS3_EEEEEUlRS3_S7_E_PS3_EEvT0_SB_T_, symObjAddr: 0x2FEBC, symBinAddr: 0x100032F60, symSize: 0x134 }
  - { offsetInCU: 0x245A3, offset: 0x245A3, size: 0x8, addend: 0x0, symName: __ZNSt3__113__unwrap_iterB7v160006INS_11__wrap_iterIP4CardEENS_18__unwrap_iter_implIS4_Lb1EEELi0EEEDTclsrT0_8__unwrapclsr3stdE7declvalIT_EEEES8_, symObjAddr: 0x2FFF0, symBinAddr: 0x100033094, symSize: 0x274 }
  - { offsetInCU: 0x245EB, offset: 0x245EB, size: 0x8, addend: 0x0, symName: __ZNSt3__17__log2iB7v160006IlEET_S1_, symObjAddr: 0x30264, symBinAddr: 0x100033308, symSize: 0x54 }
  - { offsetInCU: 0x24655, offset: 0x24655, size: 0x8, addend: 0x0, symName: __ZNSt3__112__libcpp_clzB7v160006Em, symObjAddr: 0x342A0, symBinAddr: 0x100037344, symSize: 0x1C }
  - { offsetInCU: 0x24681, offset: 0x24681, size: 0x8, addend: 0x0, symName: __ZNSt3__124__sort3_maybe_branchlessB7v160006INS_17_ClassicAlgPolicyERZN8CheckWinC1ENS_6vectorI4CardNS_9allocatorIS4_EEEEEUlRS4_S8_E_PS4_EENS_9enable_ifIXntsr21__use_branchless_sortIT0_T1_EE5valueEvE4typeESE_SE_SE_SD_, symObjAddr: 0x344BC, symBinAddr: 0x100037560, symSize: 0x80 }
  - { offsetInCU: 0x246F2, offset: 0x246F2, size: 0x8, addend: 0x0, symName: __ZNSt3__124__sort4_maybe_branchlessB7v160006INS_17_ClassicAlgPolicyERZN8CheckWinC1ENS_6vectorI4CardNS_9allocatorIS4_EEEEEUlRS4_S8_E_PS4_EENS_9enable_ifIXntsr21__use_branchless_sortIT0_T1_EE5valueEvE4typeESE_SE_SE_SE_SD_, symObjAddr: 0x3453C, symBinAddr: 0x1000375E0, symSize: 0x90 }
  - { offsetInCU: 0x24777, offset: 0x24777, size: 0x8, addend: 0x0, symName: __ZNSt3__124__sort5_maybe_branchlessB7v160006INS_17_ClassicAlgPolicyERZN8CheckWinC1ENS_6vectorI4CardNS_9allocatorIS4_EEEEEUlRS4_S8_E_PS4_EENS_9enable_ifIXntsr21__use_branchless_sortIT0_T1_EE5valueEvE4typeESE_SE_SE_SE_SE_SD_, symObjAddr: 0x345CC, symBinAddr: 0x100037670, symSize: 0xA0 }
  - { offsetInCU: 0x2480B, offset: 0x2480B, size: 0x8, addend: 0x0, symName: __ZNSt3__114__partial_sortB7v160006INS_17_ClassicAlgPolicyERZN8CheckWinC1ENS_6vectorI4CardNS_9allocatorIS4_EEEEEUlRS4_S8_E_PS4_SB_EET1_SC_SC_T2_RT0_, symObjAddr: 0x35054, symBinAddr: 0x1000380F8, symSize: 0xD8 }
  - { offsetInCU: 0x24893, offset: 0x24893, size: 0x8, addend: 0x0, symName: __ZNSt3__119__sort5_wrap_policyB7v160006INS_17_ClassicAlgPolicyERZN8CheckWinC1ENS_6vectorI4CardNS_9allocatorIS4_EEEEEUlRS4_S8_E_PS4_EEjT1_SC_SC_SC_SC_T0_, symObjAddr: 0x3512C, symBinAddr: 0x1000381D0, symSize: 0xD4 }
  - { offsetInCU: 0x24939, offset: 0x24939, size: 0x8, addend: 0x0, symName: __ZNSt3__17__sort3B7v160006INS_17_ClassicAlgPolicyERZN8CheckWinC1ENS_6vectorI4CardNS_9allocatorIS4_EEEEEUlRS4_S8_E_PS4_EEjT1_SC_SC_T0_, symObjAddr: 0x35200, symBinAddr: 0x1000382A4, symSize: 0x9C8 }
  - { offsetInCU: 0x249C6, offset: 0x249C6, size: 0x8, addend: 0x0, symName: __ZNSt3__19iter_swapB7v160006IP4CardS2_EEvT_T0_, symObjAddr: 0x37788, symBinAddr: 0x10003A82C, symSize: 0xBC }
  - { offsetInCU: 0x24A0E, offset: 0x24A0E, size: 0x8, addend: 0x0, symName: __ZNSt3__17__sort4B7v160006INS_17_ClassicAlgPolicyERZN8CheckWinC1ENS_6vectorI4CardNS_9allocatorIS4_EEEEEUlRS4_S8_E_PS4_EEjT1_SC_SC_SC_T0_, symObjAddr: 0x37844, symBinAddr: 0x10003A8E8, symSize: 0x840 }
  - { offsetInCU: 0x24AAE, offset: 0x24AAE, size: 0x8, addend: 0x0, symName: __ZNSt3__123__debug_randomize_rangeB7v160006INS_17_ClassicAlgPolicyEP4CardS3_EEvT0_T1_, symObjAddr: 0x38198, symBinAddr: 0x10003B23C, symSize: 0x14 }
  - { offsetInCU: 0x24AFF, offset: 0x24AFF, size: 0x8, addend: 0x0, symName: __ZNSt3__119__partial_sort_implB7v160006INS_17_ClassicAlgPolicyERZN8CheckWinC1ENS_6vectorI4CardNS_9allocatorIS4_EEEEEUlRS4_S8_E_PS4_SB_EET1_SC_SC_T2_OT0_, symObjAddr: 0x381AC, symBinAddr: 0x10003B250, symSize: 0x7E0 }
  - { offsetInCU: 0x24BA1, offset: 0x24BA1, size: 0x8, addend: 0x0, symName: __ZNSt3__111__make_heapB7v160006INS_17_ClassicAlgPolicyERZN8CheckWinC1ENS_6vectorI4CardNS_9allocatorIS4_EEEEEUlRS4_S8_E_PS4_EEvT1_SC_OT0_, symObjAddr: 0x3898C, symBinAddr: 0x10003BA30, symSize: 0x2B8 }
  - { offsetInCU: 0x24C43, offset: 0x24C43, size: 0x8, addend: 0x0, symName: __ZNSt3__111__sort_heapB7v160006INS_17_ClassicAlgPolicyERZN8CheckWinC1ENS_6vectorI4CardNS_9allocatorIS4_EEEEEUlRS4_S8_E_PS4_EEvT1_SC_OT0_, symObjAddr: 0x39D44, symBinAddr: 0x10003CDE8, symSize: 0x1A8 }
  - { offsetInCU: 0x24CD7, offset: 0x24CD7, size: 0x8, addend: 0x0, symName: __ZNSt3__110__pop_heapB7v160006INS_17_ClassicAlgPolicyEZN8CheckWinC1ENS_6vectorI4CardNS_9allocatorIS4_EEEEEUlRS4_S8_E_PS4_EEvT1_SB_RT0_NS_15iterator_traitsISB_E15difference_typeE, symObjAddr: 0x39EEC, symBinAddr: 0x10003CF90, symSize: 0x670 }
  - { offsetInCU: 0x24D8F, offset: 0x24D8F, size: 0x8, addend: 0x0, symName: __ZNSt3__19__sift_upB7v160006INS_17_ClassicAlgPolicyERZN8CheckWinC1ENS_6vectorI4CardNS_9allocatorIS4_EEEEEUlRS4_S8_E_PS4_EEvT1_SC_OT0_NS_15iterator_traitsISC_E15difference_typeE, symObjAddr: 0x3ADE0, symBinAddr: 0x10003DE84, symSize: 0x9D0 }
  - { offsetInCU: 0x24E3E, offset: 0x24E3E, size: 0x8, addend: 0x0, symName: __ZNSt3__17__sort5IRZN8CheckWinC1ENS_6vectorI4CardNS_9allocatorIS3_EEEEEUlRS3_S7_E_PS3_EEjT0_SB_SB_SB_SB_T_, symObjAddr: 0x3B7B0, symBinAddr: 0x10003E854, symSize: 0xA9C }
  - { offsetInCU: 0x24F55, offset: 0x24F55, size: 0x8, addend: 0x0, symName: __ZNSt3__112__to_addressB7v160006INS_11__wrap_iterIP4CardEEvEENS_5decayIDTclsr19__to_address_helperIT_EE6__callclsr3stdE7declvalIRKS6_EEEEE4typeES8_, symObjAddr: 0x3C43C, symBinAddr: 0x10003F4E0, symSize: 0x6C }
  - { offsetInCU: 0x25035, offset: 0x25035, size: 0x8, addend: 0x0, symName: __ZNSt3__1eqB7v160006IP4CardEEbRKNS_11__wrap_iterIT_EES7_, symObjAddr: 0x3C948, symBinAddr: 0x10003F9EC, symSize: 0x9C }
  - { offsetInCU: 0x25078, offset: 0x25078, size: 0x8, addend: 0x0, symName: __ZNSt3__118__debug_db_erase_cB7v160006INS_12__hash_tableINS_17__hash_value_typeI5ValueiEENS_22__unordered_map_hasherIS3_S4_NS_4hashIS3_EENS_8equal_toIS3_EELb1EEENS_21__unordered_map_equalIS3_S4_S9_S7_Lb1EEENS_9allocatorIS4_EEEEEEvPT_, symObjAddr: 0x3D0D4, symBinAddr: 0x100040178, symSize: 0x10 }
  - { offsetInCU: 0x250DC, offset: 0x250DC, size: 0x8, addend: 0x0, symName: __ZNSt3__17launderB7v160006INS_4pairIK5ValueiEEEEPT_S6_, symObjAddr: 0x3D614, symBinAddr: 0x1000406B8, symSize: 0x24 }
  - { offsetInCU: 0x25114, offset: 0x25114, size: 0x8, addend: 0x0, symName: __ZNSt3__19__launderB7v160006INS_4pairIK5ValueiEEEEPT_S6_, symObjAddr: 0x3D638, symBinAddr: 0x1000406DC, symSize: 0x14 }
  - { offsetInCU: 0x2514B, offset: 0x2514B, size: 0x8, addend: 0x0, symName: __ZNSt3__13maxB7v160006IiNS_6__lessIiiEEEERKT_S5_S5_T0_, symObjAddr: 0x3E564, symBinAddr: 0x100041608, symSize: 0x2C0 }
  - { offsetInCU: 0x251E6, offset: 0x251E6, size: 0x8, addend: 0x0, symName: __ZNSt3__119__debug_db_insert_cB7v160006INS_6vectorINS_6threadENS_9allocatorIS2_EEEEEEvPT_, symObjAddr: 0x3F2C4, symBinAddr: 0x100042368, symSize: 0x10 }
  - { offsetInCU: 0x25217, offset: 0x25217, size: 0x8, addend: 0x0, symName: __ZNSt3__1eqB7v160006IP4GameEEbRKNS_11__wrap_iterIT_EES7_, symObjAddr: 0x41424, symBinAddr: 0x1000444C8, symSize: 0x9C }
  - { offsetInCU: 0x2525A, offset: 0x2525A, size: 0x8, addend: 0x0, symName: __ZNSt3__1neB7v160006ERKNS_16__deque_iteratorIiPiRiPS1_lLl1024EEES6_, symObjAddr: 0x4317C, symBinAddr: 0x100046220, symSize: 0xC4 }
  - { offsetInCU: 0x25297, offset: 0x25297, size: 0x8, addend: 0x0, symName: __ZNSt3__1eqB7v160006ERKNS_16__deque_iteratorIiPiRiPS1_lLl1024EEES6_, symObjAddr: 0x44270, symBinAddr: 0x100047314, symSize: 0x124 }
  - { offsetInCU: 0x252D4, offset: 0x252D4, size: 0x8, addend: 0x0, symName: __ZNSt3__112__to_addressB7v160006IPiEEPT_S3_, symObjAddr: 0x44F6C, symBinAddr: 0x100048010, symSize: 0x14 }
  - { offsetInCU: 0x25309, offset: 0x25309, size: 0x8, addend: 0x0, symName: __ZNSt3__1neB7v160006ERKNS_16__deque_iteratorINS_8functionIFvvEEEPS3_RS3_PS4_lLl128EEES9_, symObjAddr: 0x46E8C, symBinAddr: 0x100049F30, symSize: 0xC4 }
  - { offsetInCU: 0x25346, offset: 0x25346, size: 0x8, addend: 0x0, symName: __ZNSt3__1eqB7v160006ERKNS_16__deque_iteratorINS_8functionIFvvEEEPS3_RS3_PS4_lLl128EEES9_, symObjAddr: 0x47ED4, symBinAddr: 0x10004AF78, symSize: 0x124 }
  - { offsetInCU: 0x25383, offset: 0x25383, size: 0x8, addend: 0x0, symName: __ZNSt3__112__to_addressB7v160006IPNS_8functionIFvvEEEEEPT_S6_, symObjAddr: 0x48C20, symBinAddr: 0x10004BCC4, symSize: 0x14 }
  - { offsetInCU: 0x253B8, offset: 0x253B8, size: 0x8, addend: 0x0, symName: __ZNSt3__118__debug_db_erase_cB7v160006INS_6vectorINS_6threadENS_9allocatorIS2_EEEEEEvPT_, symObjAddr: 0x49D4C, symBinAddr: 0x10004CDF0, symSize: 0x10 }
  - { offsetInCU: 0x253E9, offset: 0x253E9, size: 0x8, addend: 0x0, symName: __ZNSt3__112__to_addressB7v160006INS_6threadEEEPT_S3_, symObjAddr: 0x4A2AC, symBinAddr: 0x10004D350, symSize: 0x14 }
  - { offsetInCU: 0x2541E, offset: 0x2541E, size: 0x8, addend: 0x0, symName: __ZNSt3__119__debug_db_insert_cB7v160006INS_12basic_stringIcNS_11char_traitsIcEENS_9allocatorIcEEEEEEvPT_, symObjAddr: 0x4AEF8, symBinAddr: 0x10004DF9C, symSize: 0x10 }
  - { offsetInCU: 0x2544F, offset: 0x2544F, size: 0x8, addend: 0x0, symName: __ZNSt3__118__constexpr_strlenB7v160006EPKc, symObjAddr: 0x4B1C4, symBinAddr: 0x10004E268, symSize: 0x24 }
  - { offsetInCU: 0x2547B, offset: 0x2547B, size: 0x8, addend: 0x0, symName: __ZNSt3__119__debug_db_insert_cB7v160006INS_13unordered_mapINS_12basic_stringIcNS_11char_traitsIcEENS_9allocatorIcEEEE5ValueNS_4hashIS7_EENS_8equal_toIS7_EENS5_INS_4pairIKS7_S8_EEEEEEEEvPT_, symObjAddr: 0x4B584, symBinAddr: 0x10004E628, symSize: 0x10 }
  - { offsetInCU: 0x254AC, offset: 0x254AC, size: 0x8, addend: 0x0, symName: __ZNSt3__116__constrain_hashB7v160006Emm, symObjAddr: 0x4F90C, symBinAddr: 0x1000529B0, symSize: 0xDC }
  - { offsetInCU: 0x254E6, offset: 0x254E6, size: 0x8, addend: 0x0, symName: __ZNSt3__116__is_hash_power2B7v160006Em, symObjAddr: 0x50B8C, symBinAddr: 0x100053C30, symSize: 0x50 }
  - { offsetInCU: 0x25512, offset: 0x25512, size: 0x8, addend: 0x0, symName: __ZNSt3__116__do_string_hashB7v160006IPKcEEmT_S3_, symObjAddr: 0x51590, symBinAddr: 0x100054634, symSize: 0x1EC }
  - { offsetInCU: 0x2555A, offset: 0x2555A, size: 0x8, addend: 0x0, symName: __ZNSt3__110__loadwordB7v160006ImEET_PKv, symObjAddr: 0x54DFC, symBinAddr: 0x100057EA0, symSize: 0x214 }
  - { offsetInCU: 0x255A2, offset: 0x255A2, size: 0x8, addend: 0x0, symName: __ZNSt3__14swapB7v160006ImEENS_9enable_ifIXaasr21is_move_constructibleIT_EE5valuesr18is_move_assignableIS2_EE5valueEvE4typeERS2_S5_, symObjAddr: 0x55890, symBinAddr: 0x100058934, symSize: 0x1C0 }
  - { offsetInCU: 0x255F3, offset: 0x255F3, size: 0x8, addend: 0x0, symName: __ZNSt3__110__loadwordB7v160006IjEET_PKv, symObjAddr: 0x55B9C, symBinAddr: 0x100058C40, symSize: 0x240 }
  - { offsetInCU: 0x2563B, offset: 0x2563B, size: 0x8, addend: 0x0, symName: __ZNSt3__112__to_addressB7v160006IKcEEPT_S3_, symObjAddr: 0x5640C, symBinAddr: 0x1000594B0, symSize: 0x14 }
  - { offsetInCU: 0x256A3, offset: 0x256A3, size: 0x8, addend: 0x0, symName: __ZNSt3__1eqB7v160006INS_9allocatorIcEEEEbRKNS_12basic_stringIcNS_11char_traitsIcEET_EES9_, symObjAddr: 0x57A94, symBinAddr: 0x10005AB38, symSize: 0x458 }
  - { offsetInCU: 0x25716, offset: 0x25716, size: 0x8, addend: 0x0, symName: __ZNSt3__118__constexpr_memcmpB7v160006IcEEiPKT_S3_m, symObjAddr: 0x57F64, symBinAddr: 0x10005B008, symSize: 0x34 }
  - { offsetInCU: 0x25767, offset: 0x25767, size: 0x8, addend: 0x0, symName: __ZNSt3__17launderB7v160006IKNS_4pairIKNS_12basic_stringIcNS_11char_traitsIcEENS_9allocatorIcEEEE5ValueEEEEPT_SD_, symObjAddr: 0x57F98, symBinAddr: 0x10005B03C, symSize: 0x24 }
  - { offsetInCU: 0x2579F, offset: 0x2579F, size: 0x8, addend: 0x0, symName: __ZNSt3__19__launderB7v160006IKNS_4pairIKNS_12basic_stringIcNS_11char_traitsIcEENS_9allocatorIcEEEE5ValueEEEEPT_SD_, symObjAddr: 0x57FBC, symBinAddr: 0x10005B060, symSize: 0x14 }
  - { offsetInCU: 0x257F4, offset: 0x257F4, size: 0x8, addend: 0x0, symName: __ZNSt3__116__next_hash_pow2B7v160006Em, symObjAddr: 0x5AF38, symBinAddr: 0x10005DFDC, symSize: 0xCC }
  - { offsetInCU: 0x25820, offset: 0x25820, size: 0x8, addend: 0x0, symName: __ZNSt3__125__debug_db_invalidate_allB7v160006INS_12__hash_tableINS_17__hash_value_typeINS_12basic_stringIcNS_11char_traitsIcEENS_9allocatorIcEEEE5ValueEENS_22__unordered_map_hasherIS8_SA_NS_4hashIS8_EENS_8equal_toIS8_EELb1EEENS_21__unordered_map_equalIS8_SA_SF_SD_Lb1EEENS6_ISA_EEEEEEvPT_, symObjAddr: 0x5B004, symBinAddr: 0x10005E0A8, symSize: 0x10 }
  - { offsetInCU: 0x2586F, offset: 0x2586F, size: 0x8, addend: 0x0, symName: __ZNSt3__118__debug_db_erase_cB7v160006INS_12__hash_tableINS_17__hash_value_typeINS_12basic_stringIcNS_11char_traitsIcEENS_9allocatorIcEEEE5ValueEENS_22__unordered_map_hasherIS8_SA_NS_4hashIS8_EENS_8equal_toIS8_EELb1EEENS_21__unordered_map_equalIS8_SA_SF_SD_Lb1EEENS6_ISA_EEEEEEvPT_, symObjAddr: 0x5D090, symBinAddr: 0x100060134, symSize: 0x10 }
  - { offsetInCU: 0x258A0, offset: 0x258A0, size: 0x8, addend: 0x0, symName: __ZNSt3__119__debug_db_insert_cB7v160006INS_13unordered_mapINS_12basic_stringIcNS_11char_traitsIcEENS_9allocatorIcEEEE4SuitNS_4hashIS7_EENS_8equal_toIS7_EENS5_INS_4pairIKS7_S8_EEEEEEEEvPT_, symObjAddr: 0x5D868, symBinAddr: 0x10006090C, symSize: 0x10 }
  - { offsetInCU: 0x258D1, offset: 0x258D1, size: 0x8, addend: 0x0, symName: __ZNSt3__17launderB7v160006IKNS_4pairIKNS_12basic_stringIcNS_11char_traitsIcEENS_9allocatorIcEEEE4SuitEEEEPT_SD_, symObjAddr: 0x63E28, symBinAddr: 0x100066ECC, symSize: 0x24 }
  - { offsetInCU: 0x25909, offset: 0x25909, size: 0x8, addend: 0x0, symName: __ZNSt3__19__launderB7v160006IKNS_4pairIKNS_12basic_stringIcNS_11char_traitsIcEENS_9allocatorIcEEEE4SuitEEEEPT_SD_, symObjAddr: 0x63E4C, symBinAddr: 0x100066EF0, symSize: 0x14 }
  - { offsetInCU: 0x2595E, offset: 0x2595E, size: 0x8, addend: 0x0, symName: __ZNSt3__125__debug_db_invalidate_allB7v160006INS_12__hash_tableINS_17__hash_value_typeINS_12basic_stringIcNS_11char_traitsIcEENS_9allocatorIcEEEE4SuitEENS_22__unordered_map_hasherIS8_SA_NS_4hashIS8_EENS_8equal_toIS8_EELb1EEENS_21__unordered_map_equalIS8_SA_SF_SD_Lb1EEENS6_ISA_EEEEEEvPT_, symObjAddr: 0x66D1C, symBinAddr: 0x100069DC0, symSize: 0x10 }
  - { offsetInCU: 0x2598F, offset: 0x2598F, size: 0x8, addend: 0x0, symName: __ZNSt3__118__debug_db_erase_cB7v160006INS_12__hash_tableINS_17__hash_value_typeINS_12basic_stringIcNS_11char_traitsIcEENS_9allocatorIcEEEE4SuitEENS_22__unordered_map_hasherIS8_SA_NS_4hashIS8_EENS_8equal_toIS8_EELb1EEENS_21__unordered_map_equalIS8_SA_SF_SD_Lb1EEENS6_ISA_EEEEEEvPT_, symObjAddr: 0x68DA8, symBinAddr: 0x10006BE4C, symSize: 0x10 }
  - { offsetInCU: 0x25F55, offset: 0x25F55, size: 0x8, addend: 0x0, symName: __ZNSt3__19use_facetB7v160006INS_5ctypeIcEEEERKT_RKNS_6localeE, symObjAddr: 0x6A070, symBinAddr: 0x10006D114, symSize: 0x188 }
  - { offsetInCU: 0x26335, offset: 0x26335, size: 0x8, addend: 0x0, symName: __ZNSt3__125__debug_db_invalidate_allB7v160006INS_12basic_stringIcNS_11char_traitsIcEENS_9allocatorIcEEEEEEvPT_, symObjAddr: 0x6B6C4, symBinAddr: 0x10006E768, symSize: 0x10 }
  - { offsetInCU: 0x263D0, offset: 0x263D0, size: 0x8, addend: 0x0, symName: __ZNSt3__116forward_as_tupleB7v160006IJRKNS_12basic_stringIcNS_11char_traitsIcEENS_9allocatorIcEEEEEEENS_5tupleIJDpOT_EEESC_, symObjAddr: 0x6FC60, symBinAddr: 0x100072D04, symSize: 0x244 }
  - { offsetInCU: 0x2640B, offset: 0x2640B, size: 0x8, addend: 0x0, symName: __ZNSt3__116forward_as_tupleB7v160006IJEEENS_5tupleIJDpOT_EEES4_, symObjAddr: 0x6FEA4, symBinAddr: 0x100072F48, symSize: 0x4 }
  - { offsetInCU: 0x2643B, offset: 0x2643B, size: 0x8, addend: 0x0, symName: __ZNSt3__13getB7v160006ILm0EJRKNS_12basic_stringIcNS_11char_traitsIcEENS_9allocatorIcEEEEEEERNS_13tuple_elementIXT_ENS_5tupleIJDpT0_EEEE4typeERSD_, symObjAddr: 0x71004, symBinAddr: 0x1000740A8, symSize: 0xE0 }
  - { offsetInCU: 0x264A2, offset: 0x264A2, size: 0x8, addend: 0x0, symName: __ZNSt3__116__pad_and_outputB7v160006IcNS_11char_traitsIcEEEENS_19ostreambuf_iteratorIT_T0_EES6_PKS4_S8_S8_RNS_8ios_baseES4_, symObjAddr: 0x75550, symBinAddr: 0x1000785F4, symSize: 0xB88 }
  - { offsetInCU: 0x2657F, offset: 0x2657F, size: 0x8, addend: 0x0, symName: __ZNSt3__112__to_addressB7v160006IcEEPT_S2_, symObjAddr: 0x76C10, symBinAddr: 0x100079CB4, symSize: 0x14 }
  - { offsetInCU: 0x269B1, offset: 0x269B1, size: 0x8, addend: 0x0, symName: __ZNSt3__122__libcpp_thread_createB7v160006EPP17_opaque_pthread_tPFPvS3_ES3_, symObjAddr: 0x77CAC, symBinAddr: 0x10007AD50, symSize: 0x38 }
  - { offsetInCU: 0x269FD, offset: 0x269FD, size: 0x8, addend: 0x0, symName: __ZNSt3__114__thread_proxyB7v160006INS_5tupleIJNS_10unique_ptrINS_15__thread_structENS_14default_deleteIS3_EEEEM10ThreadPoolFvvEPS7_EEEEEPvSC_, symObjAddr: 0x77CE4, symBinAddr: 0x10007AD88, symSize: 0x3D0 }
  - { offsetInCU: 0x26B4E, offset: 0x26B4E, size: 0x8, addend: 0x0, symName: __ZNSt3__13getB7v160006ILm0EJNS_10unique_ptrINS_15__thread_structENS_14default_deleteIS2_EEEEM10ThreadPoolFvvEPS6_EEERNS_13tuple_elementIXT_ENS_5tupleIJDpT0_EEEE4typeERSE_, symObjAddr: 0x7A6F0, symBinAddr: 0x10007D794, symSize: 0xE0 }
  - { offsetInCU: 0x26B9B, offset: 0x26B9B, size: 0x8, addend: 0x0, symName: __ZNSt3__116__thread_executeB7v160006INS_10unique_ptrINS_15__thread_structENS_14default_deleteIS2_EEEEM10ThreadPoolFvvEJPS6_EJLm2EEEEvRNS_5tupleIJT_T0_DpT1_EEENS_15__tuple_indicesIJXspT2_EEEE, symObjAddr: 0x7A7D0, symBinAddr: 0x10007D874, symSize: 0x150 }
  - { offsetInCU: 0x26BFA, offset: 0x26BFA, size: 0x8, addend: 0x0, symName: __ZNSt3__116__libcpp_tls_setB7v160006EmPv, symObjAddr: 0x7A920, symBinAddr: 0x10007D9C4, symSize: 0x2C }
  - { offsetInCU: 0x26C37, offset: 0x26C37, size: 0x8, addend: 0x0, symName: __ZNSt3__18__invokeB7v160006IM10ThreadPoolFvvEPS1_JEvEEDTcldsdeclsr3stdE7declvalIT0_EEclsr3stdE7declvalIT_EEspclsr3stdE7declvalIT1_EEEEOS6_OS5_DpOS7_, symObjAddr: 0x7A9F8, symBinAddr: 0x10007DA9C, symSize: 0x16C }
  - { offsetInCU: 0x26C88, offset: 0x26C88, size: 0x8, addend: 0x0, symName: __ZNSt3__13getB7v160006ILm1EJNS_10unique_ptrINS_15__thread_structENS_14default_deleteIS2_EEEEM10ThreadPoolFvvEPS6_EEERNS_13tuple_elementIXT_ENS_5tupleIJDpT0_EEEE4typeERSE_, symObjAddr: 0x7AB64, symBinAddr: 0x10007DC08, symSize: 0xE4 }
  - { offsetInCU: 0x26CD5, offset: 0x26CD5, size: 0x8, addend: 0x0, symName: __ZNSt3__13getB7v160006ILm2EJNS_10unique_ptrINS_15__thread_structENS_14default_deleteIS2_EEEEM10ThreadPoolFvvEPS6_EEERNS_13tuple_elementIXT_ENS_5tupleIJDpT0_EEEE4typeERSE_, symObjAddr: 0x7AC48, symBinAddr: 0x10007DCEC, symSize: 0xE4 }
  - { offsetInCU: 0x26D22, offset: 0x26D22, size: 0x8, addend: 0x0, symName: __ZNSt3__119__allocate_at_leastB7v160006INS_9allocatorINS_6threadEEEEENS_19__allocation_resultINS_16allocator_traitsIT_E7pointerEEERS6_m, symObjAddr: 0x7FDF4, symBinAddr: 0x100082E98, symSize: 0x28C }
  - { offsetInCU: 0x26D67, offset: 0x26D67, size: 0x8, addend: 0x0, symName: __ZNSt3__142__uninitialized_allocator_move_if_noexceptB7v160006INS_9allocatorINS_6threadEEENS_16reverse_iteratorIPS2_EES6_S6_EET2_RT_T0_T1_S7_, symObjAddr: 0x808C0, symBinAddr: 0x100083964, symSize: 0x5D8 }
  - { offsetInCU: 0x26E1C, offset: 0x26E1C, size: 0x8, addend: 0x0, symName: __ZNSt3__14swapB7v160006IPNS_6threadEEENS_9enable_ifIXaasr21is_move_constructibleIT_EE5valuesr18is_move_assignableIS4_EE5valueEvE4typeERS4_S7_, symObjAddr: 0x80FC8, symBinAddr: 0x10008406C, symSize: 0x1C0 }
  - { offsetInCU: 0x26E6D, offset: 0x26E6D, size: 0x8, addend: 0x0, symName: __ZNSt3__125__debug_db_invalidate_allB7v160006INS_6vectorINS_6threadENS_9allocatorIS2_EEEEEEvPT_, symObjAddr: 0x814E8, symBinAddr: 0x10008458C, symSize: 0x10 }
  - { offsetInCU: 0x26E9E, offset: 0x26E9E, size: 0x8, addend: 0x0, symName: __ZNSt3__122__make_exception_guardB7v160006INS_29_AllocatorDestroyRangeReverseINS_9allocatorINS_6threadEEENS_16reverse_iteratorIPS3_EEEEEENS_28__exception_guard_exceptionsIT_EESA_, symObjAddr: 0x814F8, symBinAddr: 0x10008459C, symSize: 0x23C }
  - { offsetInCU: 0x26ED5, offset: 0x26ED5, size: 0x8, addend: 0x0, symName: __ZNSt3__1neB7v160006IPNS_6threadES2_EEbRKNS_16reverse_iteratorIT_EERKNS3_IT0_EE, symObjAddr: 0x817C4, symBinAddr: 0x100084868, symSize: 0x9C }
  - { offsetInCU: 0x26F21, offset: 0x26F21, size: 0x8, addend: 0x0, symName: __ZNSt3__112__to_addressB7v160006INS_16reverse_iteratorIPNS_6threadEEEvEENS_5decayIDTclsr19__to_address_helperIT_EE6__callclsr3stdE7declvalIRKS6_EEEEE4typeES8_, symObjAddr: 0x81860, symBinAddr: 0x100084904, symSize: 0x6C }
  - { offsetInCU: 0x26F81, offset: 0x26F81, size: 0x8, addend: 0x0, symName: __ZNSt3__119__allocator_destroyB7v160006INS_9allocatorINS_6threadEEENS_16reverse_iteratorINS4_IPS2_EEEES7_EEvRT_T0_T1_, symObjAddr: 0x82748, symBinAddr: 0x1000857EC, symSize: 0x1A4 }
  - { offsetInCU: 0x26FE6, offset: 0x26FE6, size: 0x8, addend: 0x0, symName: __ZNSt3__1neB7v160006INS_16reverse_iteratorIPNS_6threadEEES4_EEbRKNS1_IT_EERKNS1_IT0_EE, symObjAddr: 0x82B88, symBinAddr: 0x100085C2C, symSize: 0x324 }
  - { offsetInCU: 0x27034, offset: 0x27034, size: 0x8, addend: 0x0, symName: __ZNSt3__112__to_addressB7v160006INS_16reverse_iteratorINS1_IPNS_6threadEEEEEvEENS_5decayIDTclsr19__to_address_helperIT_EE6__callclsr3stdE7declvalIRKS7_EEEEE4typeES9_, symObjAddr: 0x82EAC, symBinAddr: 0x100085F50, symSize: 0x6C }
  - { offsetInCU: 0x27094, offset: 0x27094, size: 0x8, addend: 0x0, symName: __ZNSt3__14swapB7v160006IPNS_10__function6__baseIFvvEEEEENS_9enable_ifIXaasr21is_move_constructibleIT_EE5valuesr18is_move_assignableIS7_EE5valueEvE4typeERS7_SA_, symObjAddr: 0x8753C, symBinAddr: 0x10008A5E0, symSize: 0x1C0 }
  - { offsetInCU: 0x270E5, offset: 0x270E5, size: 0x8, addend: 0x0, symName: __ZNSt3__112__to_addressB7v160006INS_8functionIFvvEEEEEPT_S5_, symObjAddr: 0x87BE0, symBinAddr: 0x10008AC84, symSize: 0x14 }
  - { offsetInCU: 0x2711B, offset: 0x2711B, size: 0x8, addend: 0x0, symName: __ZNSt3__125__throw_bad_function_callB7v160006Ev, symObjAddr: 0x88278, symBinAddr: 0x10008B31C, symSize: 0x90 }
  - { offsetInCU: 0x275C4, offset: 0x275C4, size: 0x8, addend: 0x0, symName: __ZNSt3__14swapB7v160006IPPNS_8functionIFvvEEEEENS_9enable_ifIXaasr21is_move_constructibleIT_EE5valuesr18is_move_assignableIS7_EE5valueEvE4typeERS7_SA_, symObjAddr: 0x8FE30, symBinAddr: 0x100092ED4, symSize: 0x1C0 }
  - { offsetInCU: 0x27615, offset: 0x27615, size: 0x8, addend: 0x0, symName: __ZNSt3__14moveB7v160006IPPNS_8functionIFvvEEES5_EET0_T_S7_S6_, symObjAddr: 0x902E0, symBinAddr: 0x100093384, symSize: 0x2B4 }
  - { offsetInCU: 0x27672, offset: 0x27672, size: 0x8, addend: 0x0, symName: __ZNSt3__16__moveB7v160006INS_17_ClassicAlgPolicyEPPNS_8functionIFvvEEES6_S6_EENS_4pairIT0_T2_EES8_T1_S9_, symObjAddr: 0x90E2C, symBinAddr: 0x100093ED0, symSize: 0x22C }
  - { offsetInCU: 0x276E1, offset: 0x276E1, size: 0x8, addend: 0x0, symName: __ZNSt3__123__dispatch_copy_or_moveB7v160006INS_17_ClassicAlgPolicyENS_11__move_loopIS1_EENS_14__move_trivialEPPNS_8functionIFvvEEES9_S9_EENS_4pairIT2_T4_EESB_T3_SC_, symObjAddr: 0x91058, symBinAddr: 0x1000940FC, symSize: 0x22C }
  - { offsetInCU: 0x27762, offset: 0x27762, size: 0x8, addend: 0x0, symName: __ZNSt3__121__unwrap_and_dispatchB7v160006INS_10__overloadINS_11__move_loopINS_17_ClassicAlgPolicyEEENS_14__move_trivialEEEPPNS_8functionIFvvEEESB_SB_Li0EEENS_4pairIT0_T2_EESD_T1_SE_, symObjAddr: 0x91284, symBinAddr: 0x100094328, symSize: 0x634 }
  - { offsetInCU: 0x277FB, offset: 0x277FB, size: 0x8, addend: 0x0, symName: __ZNSt3__114__unwrap_rangeB7v160006IPPNS_8functionIFvvEEES5_EENS_4pairIT0_S7_EET_S9_, symObjAddr: 0x918B8, symBinAddr: 0x10009495C, symSize: 0x350 }
  - { offsetInCU: 0x279FD, offset: 0x279FD, size: 0x8, addend: 0x0, symName: __ZNSt3__113__unwrap_iterB7v160006IPPNS_8functionIFvvEEENS_18__unwrap_iter_implIS5_Lb1EEELi0EEEDTclsrT0_8__unwrapclsr3stdE7declvalIT_EEEES9_, symObjAddr: 0x91E64, symBinAddr: 0x100094F08, symSize: 0x24 }
  - { offsetInCU: 0x27A41, offset: 0x27A41, size: 0x8, addend: 0x0, symName: __ZNSt3__19make_pairB7v160006IPPNS_8functionIFvvEEES5_EENS_4pairINS_18__unwrap_ref_decayIT_E4typeENS7_IT0_E4typeEEEOS8_OSB_, symObjAddr: 0x91E88, symBinAddr: 0x100094F2C, symSize: 0x2A0 }
  - { offsetInCU: 0x27A92, offset: 0x27A92, size: 0x8, addend: 0x0, symName: __ZNSt3__114__rewrap_rangeB7v160006IPPNS_8functionIFvvEEES5_EET_S6_T0_, symObjAddr: 0x92128, symBinAddr: 0x1000951CC, symSize: 0x2C }
  - { offsetInCU: 0x27ADE, offset: 0x27ADE, size: 0x8, addend: 0x0, symName: __ZNSt3__113__rewrap_iterB7v160006IPPNS_8functionIFvvEEES5_NS_18__unwrap_iter_implIS5_Lb1EEEEET_S8_T0_, symObjAddr: 0x92154, symBinAddr: 0x1000951F8, symSize: 0x48 }
  - { offsetInCU: 0x27B33, offset: 0x27B33, size: 0x8, addend: 0x0, symName: __ZNSt3__119__copy_trivial_implB7v160006IPNS_8functionIFvvEEES4_EENS_4pairIPT_PT0_EES7_S7_S9_, symObjAddr: 0x9219C, symBinAddr: 0x100095240, symSize: 0x484 }
  - { offsetInCU: 0x27BA2, offset: 0x27BA2, size: 0x8, addend: 0x0, symName: __ZNSt3__19make_pairB7v160006IRPPNS_8functionIFvvEEES5_EENS_4pairINS_18__unwrap_ref_decayIT_E4typeENS8_IT0_E4typeEEEOS9_OSC_, symObjAddr: 0x92620, symBinAddr: 0x1000956C4, symSize: 0x2A0 }
  - { offsetInCU: 0x27C46, offset: 0x27C46, size: 0x8, addend: 0x0, symName: __ZNSt3__18distanceB7v160006INS_13move_iteratorIPPNS_8functionIFvvEEEEEEENS_15iterator_traitsIT_E15difference_typeES9_S9_, symObjAddr: 0x92F50, symBinAddr: 0x100095FF4, symSize: 0x350 }
  - { offsetInCU: 0x27C91, offset: 0x27C91, size: 0x8, addend: 0x0, symName: __ZNSt3__110__distanceB7v160006INS_13move_iteratorIPPNS_8functionIFvvEEEEEEENS_15iterator_traitsIT_E15difference_typeES9_S9_NS_26random_access_iterator_tagE, symObjAddr: 0x937AC, symBinAddr: 0x100096850, symSize: 0x274 }
  - { offsetInCU: 0x27CE7, offset: 0x27CE7, size: 0x8, addend: 0x0, symName: __ZNSt3__1miB7v160006IPPNS_8functionIFvvEEES5_EEDTmicldtfp_4baseEcldtfp0_4baseEERKNS_13move_iteratorIT_EERKNS7_IT0_EE, symObjAddr: 0x93A20, symBinAddr: 0x100096AC4, symSize: 0x9C }
  - { offsetInCU: 0x27D36, offset: 0x27D36, size: 0x8, addend: 0x0, symName: __ZNSt3__113move_backwardB7v160006IPPNS_8functionIFvvEEES5_EET0_T_S7_S6_, symObjAddr: 0x946BC, symBinAddr: 0x100097760, symSize: 0x2B4 }
  - { offsetInCU: 0x27D93, offset: 0x27D93, size: 0x8, addend: 0x0, symName: __ZNSt3__115__move_backwardB7v160006INS_17_ClassicAlgPolicyEPPNS_8functionIFvvEEES6_S6_EENS_4pairIT0_T2_EES8_T1_S9_, symObjAddr: 0x94970, symBinAddr: 0x100097A14, symSize: 0x22C }
  - { offsetInCU: 0x27E02, offset: 0x27E02, size: 0x8, addend: 0x0, symName: __ZNSt3__123__dispatch_copy_or_moveB7v160006INS_17_ClassicAlgPolicyENS_20__move_backward_loopIS1_EENS_23__move_backward_trivialEPPNS_8functionIFvvEEES9_S9_EENS_4pairIT2_T4_EESB_T3_SC_, symObjAddr: 0x94B9C, symBinAddr: 0x100097C40, symSize: 0x22C }
  - { offsetInCU: 0x27E83, offset: 0x27E83, size: 0x8, addend: 0x0, symName: __ZNSt3__121__unwrap_and_dispatchB7v160006INS_10__overloadINS_20__move_backward_loopINS_17_ClassicAlgPolicyEEENS_23__move_backward_trivialEEEPPNS_8functionIFvvEEESB_SB_Li0EEENS_4pairIT0_T2_EESD_T1_SE_, symObjAddr: 0x94DC8, symBinAddr: 0x100097E6C, symSize: 0x634 }
  - { offsetInCU: 0x27F9E, offset: 0x27F9E, size: 0x8, addend: 0x0, symName: __ZNSt3__128__copy_backward_trivial_implB7v160006IPNS_8functionIFvvEEES4_EENS_4pairIPT_PT0_EES7_S7_S9_, symObjAddr: 0x95658, symBinAddr: 0x1000986FC, symSize: 0x4E4 }
  - { offsetInCU: 0x28010, offset: 0x28010, size: 0x8, addend: 0x0, symName: __ZNSt3__19make_pairB7v160006IRPPNS_8functionIFvvEEES6_EENS_4pairINS_18__unwrap_ref_decayIT_E4typeENS8_IT0_E4typeEEEOS9_OSC_, symObjAddr: 0x95B3C, symBinAddr: 0x100098BE0, symSize: 0x2A0 }
  - { offsetInCU: 0x28061, offset: 0x28061, size: 0x8, addend: 0x0, symName: __ZNSt3__119__allocate_at_leastB7v160006INS_9allocatorIPNS_8functionIFvvEEEEEEENS_19__allocation_resultINS_16allocator_traitsIT_E7pointerEEERS9_m, symObjAddr: 0x968D4, symBinAddr: 0x100099978, symSize: 0x28C }
  - { offsetInCU: 0x280A6, offset: 0x280A6, size: 0x8, addend: 0x0, symName: __ZNSt3__119__debug_db_insert_cB7v160006INS_13unordered_mapIiNS_12basic_stringIcNS_11char_traitsIcEENS_9allocatorIcEEEENS_4hashIiEENS_8equal_toIiEENS5_INS_4pairIKiS7_EEEEEEEEvPT_, symObjAddr: 0x99438, symBinAddr: 0x10009C4DC, symSize: 0x10 }
  - { offsetInCU: 0x280D7, offset: 0x280D7, size: 0x8, addend: 0x0, symName: __ZNSt3__17launderB7v160006IKNS_4pairIKiNS_12basic_stringIcNS_11char_traitsIcEENS_9allocatorIcEEEEEEEEPT_SC_, symObjAddr: 0x9FE50, symBinAddr: 0x1000A2EF4, symSize: 0x24 }
  - { offsetInCU: 0x2810F, offset: 0x2810F, size: 0x8, addend: 0x0, symName: __ZNSt3__19__launderB7v160006IKNS_4pairIKiNS_12basic_stringIcNS_11char_traitsIcEENS_9allocatorIcEEEEEEEEPT_SC_, symObjAddr: 0x9FE74, symBinAddr: 0x1000A2F18, symSize: 0x14 }
  - { offsetInCU: 0x28197, offset: 0x28197, size: 0x8, addend: 0x0, symName: __ZNSt3__17launderB7v160006INS_4pairIKiNS_12basic_stringIcNS_11char_traitsIcEENS_9allocatorIcEEEEEEEEPT_SB_, symObjAddr: 0xA11F0, symBinAddr: 0x1000A4294, symSize: 0x24 }
  - { offsetInCU: 0x281CF, offset: 0x281CF, size: 0x8, addend: 0x0, symName: __ZNSt3__19__launderB7v160006INS_4pairIKiNS_12basic_stringIcNS_11char_traitsIcEENS_9allocatorIcEEEEEEEEPT_SB_, symObjAddr: 0xA1214, symBinAddr: 0x1000A42B8, symSize: 0x14 }
  - { offsetInCU: 0x28206, offset: 0x28206, size: 0x8, addend: 0x0, symName: __ZNSt3__125__debug_db_invalidate_allB7v160006INS_12__hash_tableINS_17__hash_value_typeIiNS_12basic_stringIcNS_11char_traitsIcEENS_9allocatorIcEEEEEENS_22__unordered_map_hasherIiS9_NS_4hashIiEENS_8equal_toIiEELb1EEENS_21__unordered_map_equalIiS9_SE_SC_Lb1EEENS6_IS9_EEEEEEvPT_, symObjAddr: 0xA30A0, symBinAddr: 0x1000A6144, symSize: 0x10 }
  - { offsetInCU: 0x28237, offset: 0x28237, size: 0x8, addend: 0x0, symName: __ZNSt3__118__debug_db_erase_cB7v160006INS_12__hash_tableINS_17__hash_value_typeIiNS_12basic_stringIcNS_11char_traitsIcEENS_9allocatorIcEEEEEENS_22__unordered_map_hasherIiS9_NS_4hashIiEENS_8equal_toIiEELb1EEENS_21__unordered_map_equalIiS9_SE_SC_Lb1EEENS6_IS9_EEEEEEvPT_, symObjAddr: 0xA52C4, symBinAddr: 0x1000A8368, symSize: 0x10 }
  - { offsetInCU: 0x28268, offset: 0x28268, size: 0x8, addend: 0x0, symName: __ZNSt3__118__debug_db_erase_cB7v160006INS_6vectorI4CardNS_9allocatorIS2_EEEEEEvPT_, symObjAddr: 0xA5F98, symBinAddr: 0x1000A903C, symSize: 0x10 }
  - { offsetInCU: 0x28299, offset: 0x28299, size: 0x8, addend: 0x0, symName: __ZNSt3__116forward_as_tupleB7v160006IJRK5ValueEEENS_5tupleIJDpOT_EEES7_, symObjAddr: 0xA8318, symBinAddr: 0x1000AB3BC, symSize: 0x244 }
  - { offsetInCU: 0x282D3, offset: 0x282D3, size: 0x8, addend: 0x0, symName: __ZNSt3__17launderB7v160006IKNS_4pairIK5ValueiEEEEPT_S7_, symObjAddr: 0xAB080, symBinAddr: 0x1000AE124, symSize: 0x24 }
  - { offsetInCU: 0x2830B, offset: 0x2830B, size: 0x8, addend: 0x0, symName: __ZNSt3__19__launderB7v160006IKNS_4pairIK5ValueiEEEEPT_S7_, symObjAddr: 0xAB0A4, symBinAddr: 0x1000AE148, symSize: 0x14 }
  - { offsetInCU: 0x28360, offset: 0x28360, size: 0x8, addend: 0x0, symName: __ZNSt3__13getB7v160006ILm0EJRK5ValueEEERNS_13tuple_elementIXT_ENS_5tupleIJDpT0_EEEE4typeERS8_, symObjAddr: 0xAC5B8, symBinAddr: 0x1000AF65C, symSize: 0xE0 }
  - { offsetInCU: 0x283A3, offset: 0x283A3, size: 0x8, addend: 0x0, symName: __ZNSt3__125__debug_db_invalidate_allB7v160006INS_12__hash_tableINS_17__hash_value_typeI5ValueiEENS_22__unordered_map_hasherIS3_S4_NS_4hashIS3_EENS_8equal_toIS3_EELb1EEENS_21__unordered_map_equalIS3_S4_S9_S7_Lb1EEENS_9allocatorIS4_EEEEEEvPT_, symObjAddr: 0xAE604, symBinAddr: 0x1000B16A8, symSize: 0x10 }
  - { offsetInCU: 0x2841C, offset: 0x2841C, size: 0x8, addend: 0x0, symName: __ZNSt3__116__swap_allocatorB7v160006INS_9allocatorI4CardEEEEvRT_S5_NS_17integral_constantIbLb0EEE, symObjAddr: 0xB0AC8, symBinAddr: 0x1000B3B6C, symSize: 0x14 }
  - { offsetInCU: 0x2845D, offset: 0x2845D, size: 0x8, addend: 0x0, symName: __ZNSt3__115__debug_db_swapB7v160006INS_6vectorI4CardNS_9allocatorIS2_EEEEEEvPT_S7_, symObjAddr: 0xB0ADC, symBinAddr: 0x1000B3B80, symSize: 0x14 }
  - { offsetInCU: 0x2849C, offset: 0x2849C, size: 0x8, addend: 0x0, symName: __ZNSt3__122__make_exception_guardB7v160006INS_6vectorI4CardNS_9allocatorIS2_EEE16__destroy_vectorEEENS_28__exception_guard_exceptionsIT_EES8_, symObjAddr: 0xB1340, symBinAddr: 0x1000B43E4, symSize: 0x2BC }
  - { offsetInCU: 0x284D5, offset: 0x284D5, size: 0x8, addend: 0x0, symName: __ZNSt3__130__uninitialized_allocator_copyB7v160006INS_9allocatorI4CardEEPS2_S4_S4_EET2_RT_T0_T1_S5_, symObjAddr: 0xB28D8, symBinAddr: 0x1000B597C, symSize: 0x6EC }
  - { offsetInCU: 0x28581, offset: 0x28581, size: 0x8, addend: 0x0, symName: __ZNSt3__122__make_exception_guardB7v160006INS_29_AllocatorDestroyRangeReverseINS_9allocatorI4CardEEPS3_EEEENS_28__exception_guard_exceptionsIT_EES8_, symObjAddr: 0xB2FC4, symBinAddr: 0x1000B6068, symSize: 0x23C }
  - { offsetInCU: 0x285B8, offset: 0x285B8, size: 0x8, addend: 0x0, symName: __ZNSt3__119__allocator_destroyB7v160006INS_9allocatorI4CardEENS_16reverse_iteratorIPS2_EES6_EEvRT_T0_T1_, symObjAddr: 0xB3E24, symBinAddr: 0x1000B6EC8, symSize: 0x2DC }
  - { offsetInCU: 0x28624, offset: 0x28624, size: 0x8, addend: 0x0, symName: __ZNSt3__112__to_addressB7v160006INS_16reverse_iteratorIP4CardEEvEENS_5decayIDTclsr19__to_address_helperIT_EE6__callclsr3stdE7declvalIRKS6_EEEEE4typeES8_, symObjAddr: 0xB4100, symBinAddr: 0x1000B71A4, symSize: 0x6C }
  - { offsetInCU: 0x28684, offset: 0x28684, size: 0x8, addend: 0x0, symName: '__ZNSt3__118__stable_partitionB7v160006INS_17_ClassicAlgPolicyERZN8CheckWin13StraightFlushER5ValueE3$_1NS_11__wrap_iterIP4CardEENS_26random_access_iterator_tagEEET1_SC_SC_OT0_T2_', symObjAddr: 0xB43C4, symBinAddr: 0x1000B7468, symSize: 0x43C }
  - { offsetInCU: 0x2870D, offset: 0x2870D, size: 0x8, addend: 0x0, symName: '__ZNSt3__123__stable_partition_implB7v160006INS_17_ClassicAlgPolicyERZN8CheckWin13StraightFlushER5ValueE3$_1NS_11__wrap_iterIP4CardEEEET1_SB_SB_T0_NS_26bidirectional_iterator_tagE', symObjAddr: 0xB4800, symBinAddr: 0x1000B78A4, symSize: 0xABC }
  - { offsetInCU: 0x28BE1, offset: 0x28BE1, size: 0x8, addend: 0x0, symName: __ZNSt3__120get_temporary_bufferB7v160006I4CardEENS_4pairIPT_lEEl, symObjAddr: 0xB5ACC, symBinAddr: 0x1000B8B70, symSize: 0x494 }
  - { offsetInCU: 0x28C39, offset: 0x28C39, size: 0x8, addend: 0x0, symName: '__ZNSt3__123__stable_partition_implINS_17_ClassicAlgPolicyERZN8CheckWin13StraightFlushER5ValueE3$_1NS_11__wrap_iterIP4CardEElNS_4pairIS9_lEEEET1_SD_SD_T0_T2_T3_NS_26bidirectional_iterator_tagE', symObjAddr: 0xB646C, symBinAddr: 0x1000B9510, symSize: 0x1800 }
  - { offsetInCU: 0x28E15, offset: 0x28E15, size: 0x8, addend: 0x0, symName: __ZNSt3__18distanceB7v160006INS_11__wrap_iterIP4CardEEEENS_15iterator_traitsIT_E15difference_typeES6_S6_, symObjAddr: 0xB7CE4, symBinAddr: 0x1000BAD88, symSize: 0x350 }
  - { offsetInCU: 0x28E60, offset: 0x28E60, size: 0x8, addend: 0x0, symName: __ZNSt3__110__distanceB7v160006INS_11__wrap_iterIP4CardEEEENS_15iterator_traitsIT_E15difference_typeES6_S6_NS_26random_access_iterator_tagE, symObjAddr: 0xB8034, symBinAddr: 0x1000BB0D8, symSize: 0x274 }
  - { offsetInCU: 0x28EB6, offset: 0x28EB6, size: 0x8, addend: 0x0, symName: __ZNSt3__1miB7v160006IP4CardS2_EEDTmicldtfp_4baseEcldtfp0_4baseEERKNS_11__wrap_iterIT_EERKNS4_IT0_EE, symObjAddr: 0xB82A8, symBinAddr: 0x1000BB34C, symSize: 0x9C }
  - { offsetInCU: 0x28F02, offset: 0x28F02, size: 0x8, addend: 0x0, symName: __ZNSt3__123return_temporary_bufferB7v160006I4CardEEvPT_, symObjAddr: 0xB8CB0, symBinAddr: 0x1000BBD54, symSize: 0x3C }
  - { offsetInCU: 0x28F33, offset: 0x28F33, size: 0x8, addend: 0x0, symName: __ZNSt3__127__libcpp_deallocate_unsizedB7v160006EPvm, symObjAddr: 0xB8CEC, symBinAddr: 0x1000BBD90, symSize: 0x54 }
  - { offsetInCU: 0x293AA, offset: 0x293AA, size: 0x8, addend: 0x0, symName: __ZNSt3__18__rotateB7v160006INS_17_ClassicAlgPolicyENS_11__wrap_iterIP4CardEES5_EENS_4pairIT0_S7_EES7_S7_T1_, symObjAddr: 0xB92E8, symBinAddr: 0x1000BC38C, symSize: 0x670 }
  - { offsetInCU: 0x29440, offset: 0x29440, size: 0x8, addend: 0x0, symName: __ZNSt3__19iter_swapB7v160006INS_11__wrap_iterIP4CardEES4_EEvT_T0_, symObjAddr: 0xB9958, symBinAddr: 0x1000BC9FC, symSize: 0x308 }
  - { offsetInCU: 0x29490, offset: 0x29490, size: 0x8, addend: 0x0, symName: __ZNSt3__121__convert_to_integralB7v160006El, symObjAddr: 0xBACCC, symBinAddr: 0x1000BDD70, symSize: 0x14 }
  - { offsetInCU: 0x294BC, offset: 0x294BC, size: 0x8, addend: 0x0, symName: __ZNSt3__19__advanceB7v160006INS_11__wrap_iterIP4CardEEEEvRT_NS_15iterator_traitsIS5_E15difference_typeENS_26random_access_iterator_tagE, symObjAddr: 0xBACE0, symBinAddr: 0x1000BDD84, symSize: 0x7C }
  - { offsetInCU: 0x29608, offset: 0x29608, size: 0x8, addend: 0x0, symName: __ZNSt3__113__rotate_implB7v160006INS_17_ClassicAlgPolicyENS_11__wrap_iterIP4CardEEEET0_S6_S6_S6_NS_26random_access_iterator_tagE, symObjAddr: 0xBB368, symBinAddr: 0x1000BE40C, symSize: 0x7B0 }
  - { offsetInCU: 0x2967A, offset: 0x2967A, size: 0x8, addend: 0x0, symName: __ZNSt3__113__rotate_leftB7v160006INS_17_ClassicAlgPolicyENS_11__wrap_iterIP4CardEEEET0_S6_S6_, symObjAddr: 0xBBF1C, symBinAddr: 0x1000BEFC0, symSize: 0x50C }
  - { offsetInCU: 0x296FE, offset: 0x296FE, size: 0x8, addend: 0x0, symName: __ZNSt3__114__rotate_rightB7v160006INS_17_ClassicAlgPolicyENS_11__wrap_iterIP4CardEEEET0_S6_S6_, symObjAddr: 0xBC428, symBinAddr: 0x1000BF4CC, symSize: 0x548 }
  - { offsetInCU: 0x29795, offset: 0x29795, size: 0x8, addend: 0x0, symName: __ZNSt3__112__rotate_gcdB7v160006INS_17_ClassicAlgPolicyENS_11__wrap_iterIP4CardEEEET0_S6_S6_S6_, symObjAddr: 0xBC970, symBinAddr: 0x1000BFA14, symSize: 0xA84 }
  - { offsetInCU: 0x298BC, offset: 0x298BC, size: 0x8, addend: 0x0, symName: __ZNSt3__14nextB7v160006INS_11__wrap_iterIP4CardEEEENS_9enable_ifIXsr25__is_cpp17_input_iteratorIT_EE5valueES6_E4typeES6_NS_15iterator_traitsIS6_E15difference_typeE, symObjAddr: 0xBD3F4, symBinAddr: 0x1000C0498, symSize: 0x2A4 }
  - { offsetInCU: 0x29904, offset: 0x29904, size: 0x8, addend: 0x0, symName: __ZNSt3__16__moveB7v160006INS_17_ClassicAlgPolicyENS_11__wrap_iterIP4CardEES5_S5_EENS_4pairIT0_T2_EES7_T1_S8_, symObjAddr: 0xBD698, symBinAddr: 0x1000C073C, symSize: 0x484 }
  - { offsetInCU: 0x2997D, offset: 0x2997D, size: 0x8, addend: 0x0, symName: __ZNSt3__123__dispatch_copy_or_moveB7v160006INS_17_ClassicAlgPolicyENS_11__move_loopIS1_EENS_14__move_trivialENS_11__wrap_iterIP4CardEES8_S8_EENS_4pairIT2_T4_EESA_T3_SB_, symObjAddr: 0xBDB1C, symBinAddr: 0x1000C0BC0, symSize: 0x484 }
  - { offsetInCU: 0x29A08, offset: 0x29A08, size: 0x8, addend: 0x0, symName: __ZNSt3__121__unwrap_and_dispatchB7v160006INS_10__overloadINS_11__move_loopINS_17_ClassicAlgPolicyEEENS_14__move_trivialEEENS_11__wrap_iterIP4CardEESA_SA_Li0EEENS_4pairIT0_T2_EESC_T1_SD_, symObjAddr: 0xBDFA0, symBinAddr: 0x1000C1044, symSize: 0x8F4 }
  - { offsetInCU: 0x29AAD, offset: 0x29AAD, size: 0x8, addend: 0x0, symName: __ZNSt3__114__unwrap_rangeB7v160006INS_11__wrap_iterIP4CardEES3_EENS_4pairIT0_S6_EET_S8_, symObjAddr: 0xBE894, symBinAddr: 0x1000C1938, symSize: 0x4D4 }
  - { offsetInCU: 0x29C33, offset: 0x29C33, size: 0x8, addend: 0x0, symName: __ZNSt3__19make_pairB7v160006INS_11__wrap_iterIP4CardEES4_EENS_4pairINS_18__unwrap_ref_decayIT_E4typeENS6_IT0_E4typeEEEOS7_OSA_, symObjAddr: 0xBEFC4, symBinAddr: 0x1000C2068, symSize: 0x2A0 }
  - { offsetInCU: 0x29C84, offset: 0x29C84, size: 0x8, addend: 0x0, symName: __ZNSt3__114__rewrap_rangeB7v160006INS_11__wrap_iterIP4CardEES3_EET_S5_T0_, symObjAddr: 0xBF264, symBinAddr: 0x1000C2308, symSize: 0x324 }
  - { offsetInCU: 0x29CD5, offset: 0x29CD5, size: 0x8, addend: 0x0, symName: __ZNSt3__113__rewrap_iterB7v160006INS_11__wrap_iterIP4CardEES3_NS_18__unwrap_iter_implIS4_Lb1EEEEET_S7_T0_, symObjAddr: 0xBF588, symBinAddr: 0x1000C262C, symSize: 0x338 }
  - { offsetInCU: 0x29D2F, offset: 0x29D2F, size: 0x8, addend: 0x0, symName: __ZNSt3__19make_pairB7v160006IP4CardS2_EENS_4pairINS_18__unwrap_ref_decayIT_E4typeENS4_IT0_E4typeEEEOS5_OS8_, symObjAddr: 0xBF8C0, symBinAddr: 0x1000C2964, symSize: 0x2A0 }
  - { offsetInCU: 0x29D80, offset: 0x29D80, size: 0x8, addend: 0x0, symName: __ZNSt3__119__copy_trivial_implB7v160006I4CardS1_EENS_4pairIPT_PT0_EES4_S4_S6_, symObjAddr: 0xBFDF8, symBinAddr: 0x1000C2E9C, symSize: 0x484 }
  - { offsetInCU: 0x29DEF, offset: 0x29DEF, size: 0x8, addend: 0x0, symName: __ZNSt3__19make_pairB7v160006IRP4CardS2_EENS_4pairINS_18__unwrap_ref_decayIT_E4typeENS5_IT0_E4typeEEEOS6_OS9_, symObjAddr: 0xC027C, symBinAddr: 0x1000C3320, symSize: 0x2A0 }
  - { offsetInCU: 0x29E40, offset: 0x29E40, size: 0x8, addend: 0x0, symName: __ZNSt3__115__move_backwardB7v160006INS_17_ClassicAlgPolicyENS_11__wrap_iterIP4CardEES5_S5_EENS_4pairIT0_T2_EES7_T1_S8_, symObjAddr: 0xC0FA4, symBinAddr: 0x1000C4048, symSize: 0x484 }
  - { offsetInCU: 0x29EB9, offset: 0x29EB9, size: 0x8, addend: 0x0, symName: __ZNSt3__14prevB7v160006INS_11__wrap_iterIP4CardEEEENS_9enable_ifIXsr25__is_cpp17_input_iteratorIT_EE5valueES6_E4typeES6_NS_15iterator_traitsIS6_E15difference_typeE, symObjAddr: 0xC1428, symBinAddr: 0x1000C44CC, symSize: 0x2D8 }
  - { offsetInCU: 0x29F01, offset: 0x29F01, size: 0x8, addend: 0x0, symName: __ZNSt3__123__dispatch_copy_or_moveB7v160006INS_17_ClassicAlgPolicyENS_20__move_backward_loopIS1_EENS_23__move_backward_trivialENS_11__wrap_iterIP4CardEES8_S8_EENS_4pairIT2_T4_EESA_T3_SB_, symObjAddr: 0xC1700, symBinAddr: 0x1000C47A4, symSize: 0x484 }
  - { offsetInCU: 0x29F8C, offset: 0x29F8C, size: 0x8, addend: 0x0, symName: __ZNSt3__121__unwrap_and_dispatchB7v160006INS_10__overloadINS_20__move_backward_loopINS_17_ClassicAlgPolicyEEENS_23__move_backward_trivialEEENS_11__wrap_iterIP4CardEESA_SA_Li0EEENS_4pairIT0_T2_EESC_T1_SD_, symObjAddr: 0xC1B84, symBinAddr: 0x1000C4C28, symSize: 0x8F4 }
  - { offsetInCU: 0x2A031, offset: 0x2A031, size: 0x8, addend: 0x0, symName: __ZNSt3__128__copy_backward_trivial_implB7v160006I4CardS1_EENS_4pairIPT_PT0_EES4_S4_S6_, symObjAddr: 0xC26D4, symBinAddr: 0x1000C5778, symSize: 0x4E4 }
  - { offsetInCU: 0x2A0A3, offset: 0x2A0A3, size: 0x8, addend: 0x0, symName: __ZNSt3__19make_pairB7v160006IRP4CardS3_EENS_4pairINS_18__unwrap_ref_decayIT_E4typeENS5_IT0_E4typeEEEOS6_OS9_, symObjAddr: 0xC2BB8, symBinAddr: 0x1000C5C5C, symSize: 0x2A0 }
  - { offsetInCU: 0x2A0F4, offset: 0x2A0F4, size: 0x8, addend: 0x0, symName: __ZNSt3__113__swap_rangesB7v160006INS_17_ClassicAlgPolicyENS_11__wrap_iterIP4CardEES5_S5_S5_EENS_4pairIT0_T2_EES7_T1_S8_T3_, symObjAddr: 0xC30F0, symBinAddr: 0x1000C6194, symSize: 0x404 }
  - { offsetInCU: 0x2A189, offset: 0x2A189, size: 0x8, addend: 0x0, symName: __ZNSt3__110__algo_gcdB7v160006IlEET_S1_S1_, symObjAddr: 0xC34F4, symBinAddr: 0x1000C6598, symSize: 0xC8 }
  - { offsetInCU: 0x2A1E0, offset: 0x2A1E0, size: 0x8, addend: 0x0, symName: __ZNSt3__18distanceB7v160006IP4CardEENS_15iterator_traitsIT_E15difference_typeES4_S4_, symObjAddr: 0xC3C0C, symBinAddr: 0x1000C6CB0, symSize: 0x2C }
  - { offsetInCU: 0x2A223, offset: 0x2A223, size: 0x8, addend: 0x0, symName: __ZNSt3__14copyB7v160006IP4CardS2_EET0_T_S4_S3_, symObjAddr: 0xC3CD0, symBinAddr: 0x1000C6D74, symSize: 0x2B4 }
  - { offsetInCU: 0x2A280, offset: 0x2A280, size: 0x8, addend: 0x0, symName: __ZNSt3__110__distanceB7v160006IP4CardEENS_15iterator_traitsIT_E15difference_typeES4_S4_NS_26random_access_iterator_tagE, symObjAddr: 0xC41C0, symBinAddr: 0x1000C7264, symSize: 0x28 }
  - { offsetInCU: 0x2A2CD, offset: 0x2A2CD, size: 0x8, addend: 0x0, symName: __ZNSt3__121__convert_to_integralB7v160006Em, symObjAddr: 0xC41E8, symBinAddr: 0x1000C728C, symSize: 0x14 }
  - { offsetInCU: 0x2A2F9, offset: 0x2A2F9, size: 0x8, addend: 0x0, symName: __ZNSt3__19__advanceB7v160006IP4CardEEvRT_NS_15iterator_traitsIS3_E15difference_typeENS_26random_access_iterator_tagE, symObjAddr: 0xC41FC, symBinAddr: 0x1000C72A0, symSize: 0x19C }
  - { offsetInCU: 0x2A342, offset: 0x2A342, size: 0x8, addend: 0x0, symName: __ZNSt3__16__copyB7v160006INS_17_ClassicAlgPolicyEP4CardS3_S3_EENS_4pairIT0_T2_EES5_T1_S6_, symObjAddr: 0xC4398, symBinAddr: 0x1000C743C, symSize: 0x22C }
  - { offsetInCU: 0x2A3B1, offset: 0x2A3B1, size: 0x8, addend: 0x0, symName: __ZNSt3__123__dispatch_copy_or_moveB7v160006INS_17_ClassicAlgPolicyENS_11__copy_loopIS1_EENS_14__copy_trivialEP4CardS6_S6_EENS_4pairIT2_T4_EES8_T3_S9_, symObjAddr: 0xC45C4, symBinAddr: 0x1000C7668, symSize: 0x22C }
  - { offsetInCU: 0x2A432, offset: 0x2A432, size: 0x8, addend: 0x0, symName: __ZNSt3__121__unwrap_and_dispatchB7v160006INS_10__overloadINS_11__copy_loopINS_17_ClassicAlgPolicyEEENS_14__copy_trivialEEEP4CardS8_S8_Li0EEENS_4pairIT0_T2_EESA_T1_SB_, symObjAddr: 0xC47F0, symBinAddr: 0x1000C7894, symSize: 0x634 }
  - { offsetInCU: 0x2A4CB, offset: 0x2A4CB, size: 0x8, addend: 0x0, symName: __ZNSt3__114__unwrap_rangeB7v160006IP4CardS2_EENS_4pairIT0_S4_EET_S6_, symObjAddr: 0xC4E24, symBinAddr: 0x1000C7EC8, symSize: 0x350 }
  - { offsetInCU: 0x2A55F, offset: 0x2A55F, size: 0x8, addend: 0x0, symName: __ZNSt3__113__unwrap_iterB7v160006IP4CardNS_18__unwrap_iter_implIS2_Lb1EEELi0EEEDTclsrT0_8__unwrapclsr3stdE7declvalIT_EEEES6_, symObjAddr: 0xC53D0, symBinAddr: 0x1000C8474, symSize: 0x24 }
  - { offsetInCU: 0x2A5A3, offset: 0x2A5A3, size: 0x8, addend: 0x0, symName: __ZNSt3__114__rewrap_rangeB7v160006IP4CardS2_EET_S3_T0_, symObjAddr: 0xC53F4, symBinAddr: 0x1000C8498, symSize: 0x2C }
  - { offsetInCU: 0x2A5EF, offset: 0x2A5EF, size: 0x8, addend: 0x0, symName: __ZNSt3__113__rewrap_iterB7v160006IP4CardS2_NS_18__unwrap_iter_implIS2_Lb1EEEEET_S5_T0_, symObjAddr: 0xC5420, symBinAddr: 0x1000C84C4, symSize: 0x48 }
  - { offsetInCU: 0x2A697, offset: 0x2A697, size: 0x8, addend: 0x0, symName: __ZNSt3__1neB7v160006ERKNS_15__hash_iteratorIPNS_11__hash_nodeINS_17__hash_value_typeI5ValueiEEPvEEEESA_, symObjAddr: 0xC6050, symBinAddr: 0x1000C90F4, symSize: 0xC4 }
  - { offsetInCU: 0x2A6D4, offset: 0x2A6D4, size: 0x8, addend: 0x0, symName: __ZNSt3__1eqB7v160006ERKNS_15__hash_iteratorIPNS_11__hash_nodeINS_17__hash_value_typeI5ValueiEEPvEEEESA_, symObjAddr: 0xC6114, symBinAddr: 0x1000C91B8, symSize: 0x114 }
  - { offsetInCU: 0x2A711, offset: 0x2A711, size: 0x8, addend: 0x0, symName: __ZNSt3__116forward_as_tupleB7v160006IJ5ValueEEENS_5tupleIJDpOT_EEES5_, symObjAddr: 0xC8118, symBinAddr: 0x1000CB1BC, symSize: 0x244 }
  - { offsetInCU: 0x2A74B, offset: 0x2A74B, size: 0x8, addend: 0x0, symName: __ZNSt3__13getB7v160006ILm0EJO5ValueEEERNS_13tuple_elementIXT_ENS_5tupleIJDpT0_EEEE4typeERS7_, symObjAddr: 0xC9588, symBinAddr: 0x1000CC62C, symSize: 0xE0 }
  - { offsetInCU: 0x2A7A3, offset: 0x2A7A3, size: 0x8, addend: 0x0, symName: __ZNSt3__112__to_addressB7v160006INS_4pairI4CardS2_EEEEPT_S5_, symObjAddr: 0xCAB00, symBinAddr: 0x1000CDBA4, symSize: 0x14 }
  - { offsetInCU: 0x2A7D8, offset: 0x2A7D8, size: 0x8, addend: 0x0, symName: __ZNSt3__119__allocate_at_leastB7v160006INS_9allocatorINS_4pairI4CardS3_EEEEEENS_19__allocation_resultINS_16allocator_traitsIT_E7pointerEEERS8_m, symObjAddr: 0xCE04C, symBinAddr: 0x1000D10F0, symSize: 0x28C }
  - { offsetInCU: 0x2A81D, offset: 0x2A81D, size: 0x8, addend: 0x0, symName: __ZNSt3__142__uninitialized_allocator_move_if_noexceptB7v160006INS_9allocatorINS_4pairI4CardS3_EEEENS_16reverse_iteratorIPS4_EES8_S8_EET2_RT_T0_T1_S9_, symObjAddr: 0xCEF44, symBinAddr: 0x1000D1FE8, symSize: 0x5D8 }
  - { offsetInCU: 0x2A8D2, offset: 0x2A8D2, size: 0x8, addend: 0x0, symName: __ZNSt3__14swapB7v160006IPNS_4pairI4CardS2_EEEENS_9enable_ifIXaasr21is_move_constructibleIT_EE5valuesr18is_move_assignableIS6_EE5valueEvE4typeERS6_S9_, symObjAddr: 0xCF64C, symBinAddr: 0x1000D26F0, symSize: 0x1C0 }
  - { offsetInCU: 0x2A923, offset: 0x2A923, size: 0x8, addend: 0x0, symName: __ZNSt3__125__debug_db_invalidate_allB7v160006INS_6vectorINS_4pairI4CardS3_EENS_9allocatorIS4_EEEEEEvPT_, symObjAddr: 0xCFB6C, symBinAddr: 0x1000D2C10, symSize: 0x10 }
  - { offsetInCU: 0x2A954, offset: 0x2A954, size: 0x8, addend: 0x0, symName: __ZNSt3__122__make_exception_guardB7v160006INS_29_AllocatorDestroyRangeReverseINS_9allocatorINS_4pairI4CardS4_EEEENS_16reverse_iteratorIPS5_EEEEEENS_28__exception_guard_exceptionsIT_EESC_, symObjAddr: 0xCFB7C, symBinAddr: 0x1000D2C20, symSize: 0x23C }
  - { offsetInCU: 0x2A98B, offset: 0x2A98B, size: 0x8, addend: 0x0, symName: __ZNSt3__1neB7v160006IPNS_4pairI4CardS2_EES4_EEbRKNS_16reverse_iteratorIT_EERKNS5_IT0_EE, symObjAddr: 0xCFE48, symBinAddr: 0x1000D2EEC, symSize: 0x9C }
  - { offsetInCU: 0x2A9D7, offset: 0x2A9D7, size: 0x8, addend: 0x0, symName: __ZNSt3__112__to_addressB7v160006INS_16reverse_iteratorIPNS_4pairI4CardS3_EEEEvEENS_5decayIDTclsr19__to_address_helperIT_EE6__callclsr3stdE7declvalIRKS8_EEEEE4typeESA_, symObjAddr: 0xCFEE4, symBinAddr: 0x1000D2F88, symSize: 0x6C }
  - { offsetInCU: 0x2AA37, offset: 0x2AA37, size: 0x8, addend: 0x0, symName: __ZNSt3__119__allocator_destroyB7v160006INS_9allocatorINS_4pairI4CardS3_EEEENS_16reverse_iteratorINS6_IPS4_EEEES9_EEvRT_T0_T1_, symObjAddr: 0xD0DCC, symBinAddr: 0x1000D3E70, symSize: 0x1A4 }
  - { offsetInCU: 0x2AA9C, offset: 0x2AA9C, size: 0x8, addend: 0x0, symName: __ZNSt3__1neB7v160006INS_16reverse_iteratorIPNS_4pairI4CardS3_EEEES6_EEbRKNS1_IT_EERKNS1_IT0_EE, symObjAddr: 0xD120C, symBinAddr: 0x1000D42B0, symSize: 0x324 }
  - { offsetInCU: 0x2AAEA, offset: 0x2AAEA, size: 0x8, addend: 0x0, symName: __ZNSt3__112__to_addressB7v160006INS_16reverse_iteratorINS1_IPNS_4pairI4CardS3_EEEEEEvEENS_5decayIDTclsr19__to_address_helperIT_EE6__callclsr3stdE7declvalIRKS9_EEEEE4typeESB_, symObjAddr: 0xD155C, symBinAddr: 0x1000D4600, symSize: 0x6C }
  - { offsetInCU: 0x2B1A6, offset: 0x2B1A6, size: 0x8, addend: 0x0, symName: __ZNSt3__116forward_as_tupleB7v160006IJNS_6__bindIM4GameFvvEJPS2_EEEEEENS_5tupleIJDpOT_EEESA_, symObjAddr: 0xD70BC, symBinAddr: 0x1000DA160, symSize: 0x244 }
  - { offsetInCU: 0x2B1E0, offset: 0x2B1E0, size: 0x8, addend: 0x0, symName: __ZNSt3__116forward_as_tupleB7v160006IJNS_9allocatorINS_6__bindIM4GameFvvEJPS3_EEEEEEEENS_5tupleIJDpOT_EEESC_, symObjAddr: 0xD7300, symBinAddr: 0x1000DA3A4, symSize: 0x228 }
  - { offsetInCU: 0x2B244, offset: 0x2B244, size: 0x8, addend: 0x0, symName: __ZNSt3__13getB7v160006ILm0EJONS_6__bindIM4GameFvvEJPS2_EEEEEERNS_13tuple_elementIXT_ENS_5tupleIJDpT0_EEEE4typeERSC_, symObjAddr: 0xD8890, symBinAddr: 0x1000DB934, symSize: 0xE0 }
  - { offsetInCU: 0x2B286, offset: 0x2B286, size: 0x8, addend: 0x0, symName: __ZNSt3__13getB7v160006ILm0EJONS_9allocatorINS_6__bindIM4GameFvvEJPS3_EEEEEEEERNS_13tuple_elementIXT_ENS_5tupleIJDpT0_EEEE4typeERSE_, symObjAddr: 0xD8A64, symBinAddr: 0x1000DBB08, symSize: 0xC4 }
  - { offsetInCU: 0x2B454, offset: 0x2B454, size: 0x8, addend: 0x0, symName: __ZNSt3__116forward_as_tupleB7v160006IJRKNS_6__bindIM4GameFvvEJPS2_EEEEEENS_5tupleIJDpOT_EEESC_, symObjAddr: 0xDA044, symBinAddr: 0x1000DD0E8, symSize: 0x244 }
  - { offsetInCU: 0x2B4A3, offset: 0x2B4A3, size: 0x8, addend: 0x0, symName: __ZNSt3__13getB7v160006ILm0EJRKNS_6__bindIM4GameFvvEJPS2_EEEEEERNS_13tuple_elementIXT_ENS_5tupleIJDpT0_EEEE4typeERSD_, symObjAddr: 0xDB030, symBinAddr: 0x1000DE0D4, symSize: 0xE0 }
  - { offsetInCU: 0x2B4E5, offset: 0x2B4E5, size: 0x8, addend: 0x0, symName: __ZNSt3__116forward_as_tupleB7v160006IJRKNS_9allocatorINS_6__bindIM4GameFvvEJPS3_EEEEEEEENS_5tupleIJDpOT_EEESE_, symObjAddr: 0xDC184, symBinAddr: 0x1000DF228, symSize: 0x228 }
  - { offsetInCU: 0x2B534, offset: 0x2B534, size: 0x8, addend: 0x0, symName: __ZNSt3__13getB7v160006ILm0EJRKNS_9allocatorINS_6__bindIM4GameFvvEJPS3_EEEEEEEERNS_13tuple_elementIXT_ENS_5tupleIJDpT0_EEEE4typeERSF_, symObjAddr: 0xDD0D4, symBinAddr: 0x1000E0178, symSize: 0xC4 }
  - { offsetInCU: 0x2B5A9, offset: 0x2B5A9, size: 0x8, addend: 0x0, symName: __ZNSt3__18__invokeB7v160006IRNS_6__bindIM4GameFvvEJPS2_EEEJEEEDTclclsr3stdE7declvalIT_EEspclsr3stdE7declvalIT0_EEEEOS8_DpOS9_, symObjAddr: 0xDD55C, symBinAddr: 0x1000E0600, symSize: 0x6C }
  - { offsetInCU: 0x2B61B, offset: 0x2B61B, size: 0x8, addend: 0x0, symName: __ZNSt3__115__apply_functorB7v160006IM4GameFvvENS_5tupleIJPS1_EEEJLm0EENS4_IJEEEEENS_13__bind_returnIT_T0_T2_Xsr22__is_valid_bind_returnIS9_SA_SB_EE5valueEE4typeERS9_RSA_NS_15__tuple_indicesIJXspT1_EEEEOSB_, symObjAddr: 0xDD880, symBinAddr: 0x1000E0924, symSize: 0x188 }
  - { offsetInCU: 0x2B69A, offset: 0x2B69A, size: 0x8, addend: 0x0, symName: __ZNSt3__18__invokeB7v160006IRM4GameFvvERPS1_JEvEEDTcldsdeclsr3stdE7declvalIT0_EEclsr3stdE7declvalIT_EEspclsr3stdE7declvalIT1_EEEEOS8_OS7_DpOS9_, symObjAddr: 0xDDA08, symBinAddr: 0x1000E0AAC, symSize: 0x16C }
  - { offsetInCU: 0x2B6EB, offset: 0x2B6EB, size: 0x8, addend: 0x0, symName: __ZNSt3__14__muB7v160006IP4GameNS_5tupleIJEEEEENS_9enable_ifIXaaaantsr18is_bind_expressionIT_EE5valueeqsr14is_placeholderIS6_EE5valueLi0Entsr22__is_reference_wrapperIS6_EE5valueERS6_E4typeES7_RT0_, symObjAddr: 0xDDB74, symBinAddr: 0x1000E0C18, symSize: 0x6C }
  - { offsetInCU: 0x2B733, offset: 0x2B733, size: 0x8, addend: 0x0, symName: __ZNSt3__13getB7v160006ILm0EJP4GameEEERNS_13tuple_elementIXT_ENS_5tupleIJDpT0_EEEE4typeERS7_, symObjAddr: 0xDDBE0, symBinAddr: 0x1000E0C84, symSize: 0xE0 }
  - { offsetInCU: 0x2B776, offset: 0x2B776, size: 0x8, addend: 0x0, symName: __ZNSt3__119__debug_db_insert_cB7v160006INS_6vectorI4GameNS_9allocatorIS2_EEEEEEvPT_, symObjAddr: 0xDE810, symBinAddr: 0x1000E18B4, symSize: 0x10 }
  - { offsetInCU: 0x2B7A7, offset: 0x2B7A7, size: 0x8, addend: 0x0, symName: __ZNSt3__118__debug_db_erase_cB7v160006INS_6vectorI4GameNS_9allocatorIS2_EEEEEEvPT_, symObjAddr: 0xDF798, symBinAddr: 0x1000E283C, symSize: 0x10 }
  - { offsetInCU: 0x2B7D8, offset: 0x2B7D8, size: 0x8, addend: 0x0, symName: __ZNSt3__112__to_addressB7v160006I4GameEEPT_S3_, symObjAddr: 0xDFCF8, symBinAddr: 0x1000E2D9C, symSize: 0x14 }
  - { offsetInCU: 0x2B80D, offset: 0x2B80D, size: 0x8, addend: 0x0, symName: __ZNSt3__118__debug_db_erase_cB7v160006INS_6vectorINS_4pairI4CardS3_EENS_9allocatorIS4_EEEEEEvPT_, symObjAddr: 0xE09EC, symBinAddr: 0x1000E3A90, symSize: 0x10 }
  - { offsetInCU: 0x2B83E, offset: 0x2B83E, size: 0x8, addend: 0x0, symName: __ZNSt3__119__debug_db_insert_cB7v160006INS_6vectorINS_4pairI4CardS3_EENS_9allocatorIS4_EEEEEEvPT_, symObjAddr: 0xE3C7C, symBinAddr: 0x1000E6D20, symSize: 0x10 }
  - { offsetInCU: 0x2B86F, offset: 0x2B86F, size: 0x8, addend: 0x0, symName: __ZNSt3__119__allocate_at_leastB7v160006INS_9allocatorI4GameEEEENS_19__allocation_resultINS_16allocator_traitsIT_E7pointerEEERS6_m, symObjAddr: 0xE641C, symBinAddr: 0x1000E94C0, symSize: 0x28C }
  - { offsetInCU: 0x2B8B4, offset: 0x2B8B4, size: 0x8, addend: 0x0, symName: __ZNSt3__142__uninitialized_allocator_move_if_noexceptB7v160006INS_9allocatorI4GameEENS_16reverse_iteratorIPS2_EES6_S6_EET2_RT_T0_T1_S7_, symObjAddr: 0xE6EEC, symBinAddr: 0x1000E9F90, symSize: 0x5D8 }
  - { offsetInCU: 0x2B969, offset: 0x2B969, size: 0x8, addend: 0x0, symName: __ZNSt3__14swapB7v160006IP4GameEENS_9enable_ifIXaasr21is_move_constructibleIT_EE5valuesr18is_move_assignableIS4_EE5valueEvE4typeERS4_S7_, symObjAddr: 0xE75F4, symBinAddr: 0x1000EA698, symSize: 0x1C0 }
  - { offsetInCU: 0x2B9BA, offset: 0x2B9BA, size: 0x8, addend: 0x0, symName: __ZNSt3__125__debug_db_invalidate_allB7v160006INS_6vectorI4GameNS_9allocatorIS2_EEEEEEvPT_, symObjAddr: 0xE7B2C, symBinAddr: 0x1000EABD0, symSize: 0x10 }
  - { offsetInCU: 0x2B9EB, offset: 0x2B9EB, size: 0x8, addend: 0x0, symName: __ZNSt3__122__make_exception_guardB7v160006INS_29_AllocatorDestroyRangeReverseINS_9allocatorI4GameEENS_16reverse_iteratorIPS3_EEEEEENS_28__exception_guard_exceptionsIT_EESA_, symObjAddr: 0xE7B3C, symBinAddr: 0x1000EABE0, symSize: 0x23C }
  - { offsetInCU: 0x2BA22, offset: 0x2BA22, size: 0x8, addend: 0x0, symName: __ZNSt3__1neB7v160006IP4GameS2_EEbRKNS_16reverse_iteratorIT_EERKNS3_IT0_EE, symObjAddr: 0xE7E08, symBinAddr: 0x1000EAEAC, symSize: 0x9C }
  - { offsetInCU: 0x2BA6E, offset: 0x2BA6E, size: 0x8, addend: 0x0, symName: __ZNSt3__112__to_addressB7v160006INS_16reverse_iteratorIP4GameEEvEENS_5decayIDTclsr19__to_address_helperIT_EE6__callclsr3stdE7declvalIRKS6_EEEEE4typeES8_, symObjAddr: 0xE7F30, symBinAddr: 0x1000EAFD4, symSize: 0x6C }
  - { offsetInCU: 0x2BAA4, offset: 0x2BAA4, size: 0x8, addend: 0x0, symName: __ZNSt3__1neB7v160006IPK4CardEEbRKNS_11__wrap_iterIT_EES8_, symObjAddr: 0xE9700, symBinAddr: 0x1000EC7A4, symSize: 0xC4 }
  - { offsetInCU: 0x2BAE7, offset: 0x2BAE7, size: 0x8, addend: 0x0, symName: __ZNSt3__1eqB7v160006IPK4CardEEbRKNS_11__wrap_iterIT_EES8_, symObjAddr: 0xE9E00, symBinAddr: 0x1000ECEA4, symSize: 0x9C }
  - { offsetInCU: 0x2BB2A, offset: 0x2BB2A, size: 0x8, addend: 0x0, symName: __ZNSt3__122__make_exception_guardB7v160006INS_6vectorINS_4pairI4CardS3_EENS_9allocatorIS4_EEE16__destroy_vectorEEENS_28__exception_guard_exceptionsIT_EESA_, symObjAddr: 0xEA684, symBinAddr: 0x1000ED728, symSize: 0x2BC }
  - { offsetInCU: 0x2BB63, offset: 0x2BB63, size: 0x8, addend: 0x0, symName: __ZNSt3__130__uninitialized_allocator_copyB7v160006INS_9allocatorINS_4pairI4CardS3_EEEEPS4_S6_S6_EET2_RT_T0_T1_S7_, symObjAddr: 0xEBC1C, symBinAddr: 0x1000EECC0, symSize: 0x6EC }
  - { offsetInCU: 0x2BC0F, offset: 0x2BC0F, size: 0x8, addend: 0x0, symName: __ZNSt3__122__make_exception_guardB7v160006INS_29_AllocatorDestroyRangeReverseINS_9allocatorINS_4pairI4CardS4_EEEEPS5_EEEENS_28__exception_guard_exceptionsIT_EESA_, symObjAddr: 0xEC308, symBinAddr: 0x1000EF3AC, symSize: 0x23C }
  - { offsetInCU: 0x2BC46, offset: 0x2BC46, size: 0x8, addend: 0x0, symName: __ZNSt3__119__allocator_destroyB7v160006INS_9allocatorINS_4pairI4CardS3_EEEENS_16reverse_iteratorIPS4_EES8_EEvRT_T0_T1_, symObjAddr: 0xED168, symBinAddr: 0x1000F020C, symSize: 0x2DC }
  - { offsetInCU: 0x2BCDC, offset: 0x2BCDC, size: 0x8, addend: 0x0, symName: __ZNSt3__119__allocator_destroyB7v160006INS_9allocatorI4GameEENS_16reverse_iteratorINS4_IPS2_EEEES7_EEvRT_T0_T1_, symObjAddr: 0xEDC30, symBinAddr: 0x1000F0CD4, symSize: 0x1A4 }
  - { offsetInCU: 0x2BD41, offset: 0x2BD41, size: 0x8, addend: 0x0, symName: __ZNSt3__1neB7v160006INS_16reverse_iteratorIP4GameEES4_EEbRKNS1_IT_EERKNS1_IT0_EE, symObjAddr: 0xEE070, symBinAddr: 0x1000F1114, symSize: 0x324 }
  - { offsetInCU: 0x2BD8F, offset: 0x2BD8F, size: 0x8, addend: 0x0, symName: __ZNSt3__112__to_addressB7v160006INS_16reverse_iteratorINS1_IP4GameEEEEvEENS_5decayIDTclsr19__to_address_helperIT_EE6__callclsr3stdE7declvalIRKS7_EEEEE4typeES9_, symObjAddr: 0xEE394, symBinAddr: 0x1000F1438, symSize: 0x6C }
  - { offsetInCU: 0x2BDEF, offset: 0x2BDEF, size: 0x8, addend: 0x0, symName: __ZNSt3__122__make_exception_guardB7v160006INS_6vectorI4GameNS_9allocatorIS2_EEE16__destroy_vectorEEENS_28__exception_guard_exceptionsIT_EES8_, symObjAddr: 0xEFF94, symBinAddr: 0x1000F3038, symSize: 0x2BC }
  - { offsetInCU: 0x2BE28, offset: 0x2BE28, size: 0x8, addend: 0x0, symName: __ZNSt3__130__uninitialized_allocator_copyB7v160006INS_9allocatorI4GameEEPS2_S4_S4_EET2_RT_T0_T1_S5_, symObjAddr: 0xF1534, symBinAddr: 0x1000F45D8, symSize: 0x6EC }
  - { offsetInCU: 0x2BED4, offset: 0x2BED4, size: 0x8, addend: 0x0, symName: __ZNSt3__122__make_exception_guardB7v160006INS_29_AllocatorDestroyRangeReverseINS_9allocatorI4GameEEPS3_EEEENS_28__exception_guard_exceptionsIT_EES8_, symObjAddr: 0xF1C20, symBinAddr: 0x1000F4CC4, symSize: 0x23C }
  - { offsetInCU: 0x2BF0B, offset: 0x2BF0B, size: 0x8, addend: 0x0, symName: __ZNSt3__119__allocator_destroyB7v160006INS_9allocatorI4GameEENS_16reverse_iteratorIPS2_EES6_EEvRT_T0_T1_, symObjAddr: 0xF2AC4, symBinAddr: 0x1000F5B68, symSize: 0x2DC }
  - { offsetInCU: 0x2CA26, offset: 0x2CA26, size: 0x8, addend: 0x0, symName: __ZSt28__throw_bad_array_new_lengthB7v160006v, symObjAddr: 0x1F038, symBinAddr: 0x1000220DC, symSize: 0x7C }
  - { offsetInCU: 0x2D2E5, offset: 0x2D2E5, size: 0x8, addend: 0x0, symName: _.str.14, symObjAddr: 0xF7BC0, symBinAddr: 0x1000FB9C0, symSize: 0x0 }
  - { offsetInCU: 0x2D2F6, offset: 0x2D2F6, size: 0x8, addend: 0x0, symName: _.str.15, symObjAddr: 0xF7BE0, symBinAddr: 0x1000FB9E0, symSize: 0x0 }
  - { offsetInCU: 0x2D313, offset: 0x2D313, size: 0x8, addend: 0x0, symName: _.str.16, symObjAddr: 0xF7C00, symBinAddr: 0x1000FBA00, symSize: 0x0 }
  - { offsetInCU: 0x2D324, offset: 0x2D324, size: 0x8, addend: 0x0, symName: _.str.17, symObjAddr: 0xF7C20, symBinAddr: 0x1000FBA20, symSize: 0x0 }
  - { offsetInCU: 0x2D345, offset: 0x2D345, size: 0x8, addend: 0x0, symName: _StringToSuit, symObjAddr: 0x2D1480, symBinAddr: 0x100173A00, symSize: 0x0 }
  - { offsetInCU: 0x2D934, offset: 0x2D934, size: 0x8, addend: 0x0, symName: _.str.18, symObjAddr: 0xF7C40, symBinAddr: 0x1000FBA40, symSize: 0x0 }
  - { offsetInCU: 0x2D945, offset: 0x2D945, size: 0x8, addend: 0x0, symName: _.str.19, symObjAddr: 0xF7C60, symBinAddr: 0x1000FBA60, symSize: 0x0 }
  - { offsetInCU: 0x2D962, offset: 0x2D962, size: 0x8, addend: 0x0, symName: _.str.22, symObjAddr: 0xF7C80, symBinAddr: 0x1000FBA80, symSize: 0x0 }
  - { offsetInCU: 0x2D97F, offset: 0x2D97F, size: 0x8, addend: 0x0, symName: _.str.23, symObjAddr: 0xF7CA0, symBinAddr: 0x1000FBAA0, symSize: 0x0 }
  - { offsetInCU: 0x2D990, offset: 0x2D990, size: 0x8, addend: 0x0, symName: _.str.25, symObjAddr: 0xF7CC0, symBinAddr: 0x1000FBAC0, symSize: 0x0 }
  - { offsetInCU: 0x2D9A1, offset: 0x2D9A1, size: 0x8, addend: 0x0, symName: _.str.26, symObjAddr: 0xF7CE0, symBinAddr: 0x1000FBAE0, symSize: 0x0 }
  - { offsetInCU: 0x2D9BE, offset: 0x2D9BE, size: 0x8, addend: 0x0, symName: _.str.27, symObjAddr: 0xF7D00, symBinAddr: 0x1000FBB00, symSize: 0x0 }
  - { offsetInCU: 0x2D9CF, offset: 0x2D9CF, size: 0x8, addend: 0x0, symName: _.str.28, symObjAddr: 0xF7D20, symBinAddr: 0x1000FBB20, symSize: 0x0 }
  - { offsetInCU: 0x2D9E0, offset: 0x2D9E0, size: 0x8, addend: 0x0, symName: _.str.29, symObjAddr: 0xF7D40, symBinAddr: 0x1000FBB40, symSize: 0x0 }
  - { offsetInCU: 0x2D9FD, offset: 0x2D9FD, size: 0x8, addend: 0x0, symName: _.str.30, symObjAddr: 0xF7D60, symBinAddr: 0x1000FBB60, symSize: 0x0 }
  - { offsetInCU: 0x2DA1A, offset: 0x2DA1A, size: 0x8, addend: 0x0, symName: _.str.31, symObjAddr: 0xF7D80, symBinAddr: 0x1000FBB80, symSize: 0x0 }
  - { offsetInCU: 0x2DA2B, offset: 0x2DA2B, size: 0x8, addend: 0x0, symName: _.str.32, symObjAddr: 0xF7DA0, symBinAddr: 0x1000FBBA0, symSize: 0x0 }
  - { offsetInCU: 0x2DA4C, offset: 0x2DA4C, size: 0x8, addend: 0x0, symName: _HANDS, symObjAddr: 0x2D14E0, symBinAddr: 0x100173A60, symSize: 0x0 }
  - { offsetInCU: 0x2E029, offset: 0x2E029, size: 0x8, addend: 0x0, symName: _rng, symObjAddr: 0x2D1540, symBinAddr: 0x100173AC0, symSize: 0x0 }
  - { offsetInCU: 0x2E113, offset: 0x2E113, size: 0x8, addend: 0x0, symName: _.str.34, symObjAddr: 0xF7DC0, symBinAddr: 0x1000FBBC0, symSize: 0x0 }
  - { offsetInCU: 0x2E132, offset: 0x2E132, size: 0x8, addend: 0x0, symName: _.str.35, symObjAddr: 0xF7DE0, symBinAddr: 0x1000FBBE0, symSize: 0x0 }
  - { offsetInCU: 0x2E14F, offset: 0x2E14F, size: 0x8, addend: 0x0, symName: _.str.37, symObjAddr: 0xF7E20, symBinAddr: 0x1000FBC20, symSize: 0x0 }
  - { offsetInCU: 0x2E160, offset: 0x2E160, size: 0x8, addend: 0x0, symName: _.str.38, symObjAddr: 0xF7E40, symBinAddr: 0x1000FBC40, symSize: 0x0 }
  - { offsetInCU: 0x2E17D, offset: 0x2E17D, size: 0x8, addend: 0x0, symName: _.str.39, symObjAddr: 0xF7E60, symBinAddr: 0x1000FBC60, symSize: 0x0 }
  - { offsetInCU: 0x2E18E, offset: 0x2E18E, size: 0x8, addend: 0x0, symName: _.str.40, symObjAddr: 0xF7E80, symBinAddr: 0x1000FBC80, symSize: 0x0 }
  - { offsetInCU: 0x2E19F, offset: 0x2E19F, size: 0x8, addend: 0x0, symName: _.str.41, symObjAddr: 0xF7EA0, symBinAddr: 0x1000FBCA0, symSize: 0x0 }
  - { offsetInCU: 0x2E1B0, offset: 0x2E1B0, size: 0x8, addend: 0x0, symName: _.str.46, symObjAddr: 0xF7EC0, symBinAddr: 0x1000FBCC0, symSize: 0x0 }
  - { offsetInCU: 0x2E1C3, offset: 0x2E1C3, size: 0x8, addend: 0x0, symName: _.str.53, symObjAddr: 0xF7EE0, symBinAddr: 0x1000FBCE0, symSize: 0x0 }
  - { offsetInCU: 0x2E1E1, offset: 0x2E1E1, size: 0x8, addend: 0x0, symName: _.str.92, symObjAddr: 0xF7F00, symBinAddr: 0x1000FBD00, symSize: 0x0 }
  - { offsetInCU: 0x2E6EE, offset: 0x2E6EE, size: 0x8, addend: 0x0, symName: __ZNSt3__16vectorI4CardNS_9allocatorIS1_EEE26__swap_out_circular_bufferERNS_14__split_bufferIS1_RS3_EE, symObjAddr: 0x1C8F8, symBinAddr: 0x10001F99C, symSize: 0x864 }
  - { offsetInCU: 0x2E750, offset: 0x2E750, size: 0x8, addend: 0x0, symName: __ZNSt3__124uniform_int_distributionIiEclINS_13random_deviceEEEiRT_RKNS1_10param_typeE, symObjAddr: 0x2A764, symBinAddr: 0x10002D808, symSize: 0x5E0 }
  - { offsetInCU: 0x2F5E4, offset: 0x2F5E4, size: 0x8, addend: 0x0, symName: __ZNSt3__16vectorINS_6threadENS_9allocatorIS1_EEE26__swap_out_circular_bufferERNS_14__split_bufferIS1_RS3_EE, symObjAddr: 0x7E5B0, symBinAddr: 0x100081654, symSize: 0x864 }
  - { offsetInCU: 0x2FB8C, offset: 0x2FB8C, size: 0x8, addend: 0x0, symName: __ZNKSt3__111__enum_hashI5ValueLb1EEclB7v160006ES1_, symObjAddr: 0xAA400, symBinAddr: 0x1000AD4A4, symSize: 0x214 }
  - { offsetInCU: 0x2FEAE, offset: 0x2FEAE, size: 0x8, addend: 0x0, symName: __ZNSt3__16vectorINS_4pairI4CardS2_EENS_9allocatorIS3_EEE26__swap_out_circular_bufferERNS_14__split_bufferIS3_RS5_EE, symObjAddr: 0xCC808, symBinAddr: 0x1000CF8AC, symSize: 0x864 }
  - { offsetInCU: 0x30581, offset: 0x30581, size: 0x8, addend: 0x0, symName: __ZNSt3__16vectorI4GameNS_9allocatorIS1_EEE26__swap_out_circular_bufferERNS_14__split_bufferIS1_RS3_EE, symObjAddr: 0xE4BBC, symBinAddr: 0x1000E7C60, symSize: 0x864 }
  - { offsetInCU: 0x328F1, offset: 0x328F1, size: 0x8, addend: 0x0, symName: __ZNSt3__14pairIKNS_12basic_stringIcNS_11char_traitsIcEENS_9allocatorIcEEEE5ValueEC1B7v160006IRA4_KcS8_LPv0EEEOT_OT0_, symObjAddr: 0x0, symBinAddr: 0x1000030A4, symSize: 0x88 }
  - { offsetInCU: 0x32966, offset: 0x32966, size: 0x8, addend: 0x0, symName: __ZNSt3__14pairIKNS_12basic_stringIcNS_11char_traitsIcEENS_9allocatorIcEEEE5ValueEC1B7v160006IRA6_KcS8_LPv0EEEOT_OT0_, symObjAddr: 0x88, symBinAddr: 0x10000312C, symSize: 0x88 }
  - { offsetInCU: 0x329DB, offset: 0x329DB, size: 0x8, addend: 0x0, symName: __ZNSt3__14pairIKNS_12basic_stringIcNS_11char_traitsIcEENS_9allocatorIcEEEE5ValueEC1B7v160006IRA5_KcS8_LPv0EEEOT_OT0_, symObjAddr: 0x110, symBinAddr: 0x1000031B4, symSize: 0x88 }
  - { offsetInCU: 0x32A39, offset: 0x32A39, size: 0x8, addend: 0x0, symName: __ZNSt3__113unordered_mapINS_12basic_stringIcNS_11char_traitsIcEENS_9allocatorIcEEEE5ValueNS_4hashIS6_EENS_8equal_toIS6_EENS4_INS_4pairIKS6_S7_EEEEEC1ESt16initializer_listISE_E, symObjAddr: 0x198, symBinAddr: 0x10000323C, symSize: 0x29C }
  - { offsetInCU: 0x32A79, offset: 0x32A79, size: 0x8, addend: 0x0, symName: __ZNSt3__14pairIKNS_12basic_stringIcNS_11char_traitsIcEENS_9allocatorIcEEEE5ValueED1Ev, symObjAddr: 0x434, symBinAddr: 0x1000034D8, symSize: 0x78 }
  - { offsetInCU: 0x32AA5, offset: 0x32AA5, size: 0x8, addend: 0x0, symName: __ZNSt3__113unordered_mapINS_12basic_stringIcNS_11char_traitsIcEENS_9allocatorIcEEEE5ValueNS_4hashIS6_EENS_8equal_toIS6_EENS4_INS_4pairIKS6_S7_EEEEED1B7v160006Ev, symObjAddr: 0x4AC, symBinAddr: 0x100003550, symSize: 0x78 }
  - { offsetInCU: 0x32AD5, offset: 0x32AD5, size: 0x8, addend: 0x0, symName: __ZNSt3__14pairIKNS_12basic_stringIcNS_11char_traitsIcEENS_9allocatorIcEEEE4SuitEC1B7v160006IRA6_KcS8_LPv0EEEOT_OT0_, symObjAddr: 0x524, symBinAddr: 0x1000035C8, symSize: 0x88 }
  - { offsetInCU: 0x32B4A, offset: 0x32B4A, size: 0x8, addend: 0x0, symName: __ZNSt3__14pairIKNS_12basic_stringIcNS_11char_traitsIcEENS_9allocatorIcEEEE4SuitEC1B7v160006IRA7_KcS8_LPv0EEEOT_OT0_, symObjAddr: 0x5AC, symBinAddr: 0x100003650, symSize: 0x88 }
  - { offsetInCU: 0x32BBF, offset: 0x32BBF, size: 0x8, addend: 0x0, symName: __ZNSt3__14pairIKNS_12basic_stringIcNS_11char_traitsIcEENS_9allocatorIcEEEE4SuitEC1B7v160006IRA9_KcS8_LPv0EEEOT_OT0_, symObjAddr: 0x634, symBinAddr: 0x1000036D8, symSize: 0x88 }
  - { offsetInCU: 0x32C1D, offset: 0x32C1D, size: 0x8, addend: 0x0, symName: __ZNSt3__113unordered_mapINS_12basic_stringIcNS_11char_traitsIcEENS_9allocatorIcEEEE4SuitNS_4hashIS6_EENS_8equal_toIS6_EENS4_INS_4pairIKS6_S7_EEEEEC1ESt16initializer_listISE_E, symObjAddr: 0x6BC, symBinAddr: 0x100003760, symSize: 0x29C }
  - { offsetInCU: 0x32C5D, offset: 0x32C5D, size: 0x8, addend: 0x0, symName: __ZNSt3__14pairIKNS_12basic_stringIcNS_11char_traitsIcEENS_9allocatorIcEEEE4SuitED1Ev, symObjAddr: 0x958, symBinAddr: 0x1000039FC, symSize: 0x78 }
  - { offsetInCU: 0x32C89, offset: 0x32C89, size: 0x8, addend: 0x0, symName: __ZNSt3__113unordered_mapINS_12basic_stringIcNS_11char_traitsIcEENS_9allocatorIcEEEE4SuitNS_4hashIS6_EENS_8equal_toIS6_EENS4_INS_4pairIKS6_S7_EEEEED1B7v160006Ev, symObjAddr: 0x9D0, symBinAddr: 0x100003A74, symSize: 0x78 }
  - { offsetInCU: 0x32CB2, offset: 0x32CB2, size: 0x8, addend: 0x0, symName: __ZrsRNSt3__113basic_istreamIcNS_11char_traitsIcEEEER4Card, symObjAddr: 0xA48, symBinAddr: 0x100003AEC, symSize: 0xB5C }
  - { offsetInCU: 0x32D26, offset: 0x32D26, size: 0x8, addend: 0x0, symName: __ZNSt3__112basic_stringIcNS_11char_traitsIcEENS_9allocatorIcEEEC1B7v160006Ev, symObjAddr: 0x15A4, symBinAddr: 0x100004648, symSize: 0x78 }
  - { offsetInCU: 0x32D50, offset: 0x32D50, size: 0x8, addend: 0x0, symName: __ZNSt3__113unordered_mapINS_12basic_stringIcNS_11char_traitsIcEENS_9allocatorIcEEEE5ValueNS_4hashIS6_EENS_8equal_toIS6_EENS4_INS_4pairIKS6_S7_EEEEE4findB7v160006ERSD_, symObjAddr: 0x2F98, symBinAddr: 0x10000603C, symSize: 0x390 }
  - { offsetInCU: 0x32D87, offset: 0x32D87, size: 0x8, addend: 0x0, symName: __ZNSt3__113unordered_mapINS_12basic_stringIcNS_11char_traitsIcEENS_9allocatorIcEEEE5ValueNS_4hashIS6_EENS_8equal_toIS6_EENS4_INS_4pairIKS6_S7_EEEEE3endB7v160006Ev, symObjAddr: 0x3328, symBinAddr: 0x1000063CC, symSize: 0x340 }
  - { offsetInCU: 0x32DAE, offset: 0x32DAE, size: 0x8, addend: 0x0, symName: __ZNSt3__113unordered_mapINS_12basic_stringIcNS_11char_traitsIcEENS_9allocatorIcEEEE4SuitNS_4hashIS6_EENS_8equal_toIS6_EENS4_INS_4pairIKS6_S7_EEEEE4findB7v160006ERSD_, symObjAddr: 0x3728, symBinAddr: 0x1000067CC, symSize: 0x390 }
  - { offsetInCU: 0x32DE5, offset: 0x32DE5, size: 0x8, addend: 0x0, symName: __ZNSt3__113unordered_mapINS_12basic_stringIcNS_11char_traitsIcEENS_9allocatorIcEEEE4SuitNS_4hashIS6_EENS_8equal_toIS6_EENS4_INS_4pairIKS6_S7_EEEEE3endB7v160006Ev, symObjAddr: 0x3AB8, symBinAddr: 0x100006B5C, symSize: 0x340 }
  - { offsetInCU: 0x32E2A, offset: 0x32E2A, size: 0x8, addend: 0x0, symName: __ZN12InvalidInputC1Ev, symObjAddr: 0x3DF8, symBinAddr: 0x100006E9C, symSize: 0x5C }
  - { offsetInCU: 0x32E54, offset: 0x32E54, size: 0x8, addend: 0x0, symName: __ZNSt3__113unordered_mapINS_12basic_stringIcNS_11char_traitsIcEENS_9allocatorIcEEEE5ValueNS_4hashIS6_EENS_8equal_toIS6_EENS4_INS_4pairIKS6_S7_EEEEEixERSD_, symObjAddr: 0x3E54, symBinAddr: 0x100006EF8, symSize: 0x4F8 }
  - { offsetInCU: 0x32E8D, offset: 0x32E8D, size: 0x8, addend: 0x0, symName: __ZNSt3__113unordered_mapINS_12basic_stringIcNS_11char_traitsIcEENS_9allocatorIcEEEE4SuitNS_4hashIS6_EENS_8equal_toIS6_EENS4_INS_4pairIKS6_S7_EEEEEixERSD_, symObjAddr: 0x434C, symBinAddr: 0x1000073F0, symSize: 0x4F8 }
  - { offsetInCU: 0x32EC6, offset: 0x32EC6, size: 0x8, addend: 0x0, symName: __ZN4CardC1E5Value4Suit, symObjAddr: 0x4844, symBinAddr: 0x1000078E8, symSize: 0x88 }
  - { offsetInCU: 0x32F0B, offset: 0x32F0B, size: 0x8, addend: 0x0, symName: __ZlsRNSt3__113basic_ostreamIcNS_11char_traitsIcEEEERK4Card, symObjAddr: 0x4D8C, symBinAddr: 0x100007E30, symSize: 0x960 }
  - { offsetInCU: 0x32F46, offset: 0x32F46, size: 0x8, addend: 0x0, symName: __ZNK4Card7get_ValEv, symObjAddr: 0x5730, symBinAddr: 0x1000087D4, symSize: 0xAC }
  - { offsetInCU: 0x32F6C, offset: 0x32F6C, size: 0x8, addend: 0x0, symName: __ZNK4Card8get_SuitEv, symObjAddr: 0x58AC, symBinAddr: 0x100008950, symSize: 0xB4 }
  - { offsetInCU: 0x32F92, offset: 0x32F92, size: 0x8, addend: 0x0, symName: __ZN10ThreadPool5StartEv, symObjAddr: 0x5960, symBinAddr: 0x100008A04, symSize: 0x470 }
  - { offsetInCU: 0x32FE6, offset: 0x32FE6, size: 0x8, addend: 0x0, symName: __ZNSt3__16vectorINS_6threadENS_9allocatorIS1_EEE12emplace_backIJS1_EEERS1_DpOT_, symObjAddr: 0x5DD0, symBinAddr: 0x100008E74, symSize: 0x24C }
  - { offsetInCU: 0x33028, offset: 0x33028, size: 0x8, addend: 0x0, symName: __ZN10ThreadPool10ThreadLoopEv, symObjAddr: 0x601C, symBinAddr: 0x1000090C0, symSize: 0x6E8 }
  - { offsetInCU: 0x330B2, offset: 0x330B2, size: 0x8, addend: 0x0, symName: __ZNSt3__16threadC1IM10ThreadPoolFvvEJPS2_EvEEOT_DpOT0_, symObjAddr: 0x6704, symBinAddr: 0x1000097A8, symSize: 0x88 }
  - { offsetInCU: 0x3310F, offset: 0x3310F, size: 0x8, addend: 0x0, symName: __ZNSt3__18functionIFvvEEC1B7v160006Ev, symObjAddr: 0x678C, symBinAddr: 0x100009830, symSize: 0x78 }
  - { offsetInCU: 0x33139, offset: 0x33139, size: 0x8, addend: 0x0, symName: __ZNSt3__111unique_lockINS_5mutexEEC1B7v160006ERS1_, symObjAddr: 0x6804, symBinAddr: 0x1000098A8, symSize: 0x80 }
  - { offsetInCU: 0x33171, offset: 0x33171, size: 0x8, addend: 0x0, symName: '__ZNSt3__118condition_variable4waitIZN10ThreadPool10ThreadLoopEvE3$_0EEvRNS_11unique_lockINS_5mutexEEET_', symObjAddr: 0x6884, symBinAddr: 0x100009928, symSize: 0x2B0 }
  - { offsetInCU: 0x331C4, offset: 0x331C4, size: 0x8, addend: 0x0, symName: __ZNSt3__15queueINS_8functionIFvvEEENS_5dequeIS3_NS_9allocatorIS3_EEEEE5frontB7v160006Ev, symObjAddr: 0x6B34, symBinAddr: 0x100009BD8, symSize: 0xF8 }
  - { offsetInCU: 0x331EA, offset: 0x331EA, size: 0x8, addend: 0x0, symName: __ZNSt3__18functionIFvvEEaSERKS2_, symObjAddr: 0x6C2C, symBinAddr: 0x100009CD0, symSize: 0x330 }
  - { offsetInCU: 0x33223, offset: 0x33223, size: 0x8, addend: 0x0, symName: __ZNSt3__15queueINS_8functionIFvvEEENS_5dequeIS3_NS_9allocatorIS3_EEEEE3popB7v160006Ev, symObjAddr: 0x6F5C, symBinAddr: 0x10000A000, symSize: 0xB0 }
  - { offsetInCU: 0x33249, offset: 0x33249, size: 0x8, addend: 0x0, symName: __ZNSt3__111unique_lockINS_5mutexEED1B7v160006Ev, symObjAddr: 0x700C, symBinAddr: 0x10000A0B0, symSize: 0x78 }
  - { offsetInCU: 0x33273, offset: 0x33273, size: 0x8, addend: 0x0, symName: __ZNKSt3__18functionIFvvEEclEv, symObjAddr: 0x7084, symBinAddr: 0x10000A128, symSize: 0xB0 }
  - { offsetInCU: 0x3329B, offset: 0x3329B, size: 0x8, addend: 0x0, symName: __ZNSt3__18functionIFvvEED1Ev, symObjAddr: 0x7134, symBinAddr: 0x10000A1D8, symSize: 0x78 }
  - { offsetInCU: 0x332C7, offset: 0x332C7, size: 0x8, addend: 0x0, symName: __ZN10ThreadPool8QueueJobERKNSt3__18functionIFvvEEE, symObjAddr: 0x71AC, symBinAddr: 0x10000A250, symSize: 0x40C }
  - { offsetInCU: 0x33316, offset: 0x33316, size: 0x8, addend: 0x0, symName: __ZNSt3__15queueINS_8functionIFvvEEENS_5dequeIS3_NS_9allocatorIS3_EEEEE4pushB7v160006ERKS3_, symObjAddr: 0x75B8, symBinAddr: 0x10000A65C, symSize: 0x100 }
  - { offsetInCU: 0x3334B, offset: 0x3334B, size: 0x8, addend: 0x0, symName: __ZN10ThreadPool4busyEv, symObjAddr: 0x76B8, symBinAddr: 0x10000A75C, symSize: 0x3B8 }
  - { offsetInCU: 0x3339A, offset: 0x3339A, size: 0x8, addend: 0x0, symName: __ZNKSt3__15queueINS_8functionIFvvEEENS_5dequeIS3_NS_9allocatorIS3_EEEEE5emptyB7v160006Ev, symObjAddr: 0x7A70, symBinAddr: 0x10000AB14, symSize: 0xB4 }
  - { offsetInCU: 0x333C0, offset: 0x333C0, size: 0x8, addend: 0x0, symName: __ZN10ThreadPool4StopEv, symObjAddr: 0x7B24, symBinAddr: 0x10000ABC8, symSize: 0x5E0 }
  - { offsetInCU: 0x33463, offset: 0x33463, size: 0x8, addend: 0x0, symName: __ZNSt3__16vectorINS_6threadENS_9allocatorIS1_EEE5beginB7v160006Ev, symObjAddr: 0x8104, symBinAddr: 0x10000B1A8, symSize: 0x2B0 }
  - { offsetInCU: 0x3348C, offset: 0x3348C, size: 0x8, addend: 0x0, symName: __ZNSt3__16vectorINS_6threadENS_9allocatorIS1_EEE3endB7v160006Ev, symObjAddr: 0x83B4, symBinAddr: 0x10000B458, symSize: 0x2B4 }
  - { offsetInCU: 0x334B5, offset: 0x334B5, size: 0x8, addend: 0x0, symName: __ZNKSt3__111__wrap_iterIPNS_6threadEEdeB7v160006Ev, symObjAddr: 0x872C, symBinAddr: 0x10000B7D0, symSize: 0xF4 }
  - { offsetInCU: 0x334DB, offset: 0x334DB, size: 0x8, addend: 0x0, symName: __ZNSt3__111__wrap_iterIPNS_6threadEEppB7v160006Ev, symObjAddr: 0x8820, symBinAddr: 0x10000B8C4, symSize: 0x1A8 }
  - { offsetInCU: 0x33501, offset: 0x33501, size: 0x8, addend: 0x0, symName: __ZNSt3__16vectorINS_6threadENS_9allocatorIS1_EEE5clearB7v160006Ev, symObjAddr: 0x89C8, symBinAddr: 0x10000BA6C, symSize: 0x90 }
  - { offsetInCU: 0x33553, offset: 0x33553, size: 0x8, addend: 0x0, symName: __ZNSt3__14pairIKiNS_12basic_stringIcNS_11char_traitsIcEENS_9allocatorIcEEEEEC1B7v160006IiRA10_KcLPv0EEEOT_OT0_, symObjAddr: 0x8A58, symBinAddr: 0x10000BAFC, symSize: 0x88 }
  - { offsetInCU: 0x335B1, offset: 0x335B1, size: 0x8, addend: 0x0, symName: __ZNSt3__14pairIKiNS_12basic_stringIcNS_11char_traitsIcEENS_9allocatorIcEEEEEC1B7v160006IiRA5_KcLPv0EEEOT_OT0_, symObjAddr: 0x8AE0, symBinAddr: 0x10000BB84, symSize: 0x88 }
  - { offsetInCU: 0x3360F, offset: 0x3360F, size: 0x8, addend: 0x0, symName: __ZNSt3__14pairIKiNS_12basic_stringIcNS_11char_traitsIcEENS_9allocatorIcEEEEEC1B7v160006IiRA9_KcLPv0EEEOT_OT0_, symObjAddr: 0x8B68, symBinAddr: 0x10000BC0C, symSize: 0x88 }
  - { offsetInCU: 0x33684, offset: 0x33684, size: 0x8, addend: 0x0, symName: __ZNSt3__14pairIKiNS_12basic_stringIcNS_11char_traitsIcEENS_9allocatorIcEEEEEC1B7v160006IiRA16_KcLPv0EEEOT_OT0_, symObjAddr: 0x8BF0, symBinAddr: 0x10000BC94, symSize: 0x88 }
  - { offsetInCU: 0x336E2, offset: 0x336E2, size: 0x8, addend: 0x0, symName: __ZNSt3__14pairIKiNS_12basic_stringIcNS_11char_traitsIcEENS_9allocatorIcEEEEEC1B7v160006IiRA6_KcLPv0EEEOT_OT0_, symObjAddr: 0x8C78, symBinAddr: 0x10000BD1C, symSize: 0x88 }
  - { offsetInCU: 0x33757, offset: 0x33757, size: 0x8, addend: 0x0, symName: __ZNSt3__14pairIKiNS_12basic_stringIcNS_11char_traitsIcEENS_9allocatorIcEEEEEC1B7v160006IiRA11_KcLPv0EEEOT_OT0_, symObjAddr: 0x8D00, symBinAddr: 0x10000BDA4, symSize: 0x88 }
  - { offsetInCU: 0x337CC, offset: 0x337CC, size: 0x8, addend: 0x0, symName: __ZNSt3__14pairIKiNS_12basic_stringIcNS_11char_traitsIcEENS_9allocatorIcEEEEEC1B7v160006IiRA15_KcLPv0EEEOT_OT0_, symObjAddr: 0x8D88, symBinAddr: 0x10000BE2C, symSize: 0x88 }
  - { offsetInCU: 0x33841, offset: 0x33841, size: 0x8, addend: 0x0, symName: __ZNSt3__14pairIKiNS_12basic_stringIcNS_11char_traitsIcEENS_9allocatorIcEEEEEC1B7v160006IiRA12_KcLPv0EEEOT_OT0_, symObjAddr: 0x8E10, symBinAddr: 0x10000BEB4, symSize: 0x88 }
  - { offsetInCU: 0x3389F, offset: 0x3389F, size: 0x8, addend: 0x0, symName: __ZNSt3__113unordered_mapIiNS_12basic_stringIcNS_11char_traitsIcEENS_9allocatorIcEEEENS_4hashIiEENS_8equal_toIiEENS4_INS_4pairIKiS6_EEEEEC1ESt16initializer_listISD_E, symObjAddr: 0x8E98, symBinAddr: 0x10000BF3C, symSize: 0x29C }
  - { offsetInCU: 0x338DF, offset: 0x338DF, size: 0x8, addend: 0x0, symName: __ZNSt3__14pairIKiNS_12basic_stringIcNS_11char_traitsIcEENS_9allocatorIcEEEEED1Ev, symObjAddr: 0x9134, symBinAddr: 0x10000C1D8, symSize: 0x78 }
  - { offsetInCU: 0x3390B, offset: 0x3390B, size: 0x8, addend: 0x0, symName: __ZNSt3__113unordered_mapIiNS_12basic_stringIcNS_11char_traitsIcEENS_9allocatorIcEEEENS_4hashIiEENS_8equal_toIiEENS4_INS_4pairIKiS6_EEEEED1B7v160006Ev, symObjAddr: 0x91AC, symBinAddr: 0x10000C250, symSize: 0x78 }
  - { offsetInCU: 0x33935, offset: 0x33935, size: 0x8, addend: 0x0, symName: __ZN21RandomNumberGeneratorC1Eii, symObjAddr: 0x9224, symBinAddr: 0x10000C2C8, symSize: 0x88 }
  - { offsetInCU: 0x3397B, offset: 0x3397B, size: 0x8, addend: 0x0, symName: __ZN21RandomNumberGeneratorD1Ev, symObjAddr: 0x92AC, symBinAddr: 0x10000C350, symSize: 0x78 }
  - { offsetInCU: 0x339A7, offset: 0x339A7, size: 0x8, addend: 0x0, symName: __ZN4Game4Deck5resetEv, symObjAddr: 0x9324, symBinAddr: 0x10000C3C8, symSize: 0x2AC }
  - { offsetInCU: 0x339E1, offset: 0x339E1, size: 0x8, addend: 0x0, symName: __ZN4Game4DeckC1Ev, symObjAddr: 0x95D0, symBinAddr: 0x10000C674, symSize: 0x78 }
  - { offsetInCU: 0x33A0B, offset: 0x33A0B, size: 0x8, addend: 0x0, symName: __ZN4Game4DeckD1Ev, symObjAddr: 0x96E8, symBinAddr: 0x10000C78C, symSize: 0x78 }
  - { offsetInCU: 0x33A37, offset: 0x33A37, size: 0x8, addend: 0x0, symName: __ZN4Game4Deck5resetE4CardS1_, symObjAddr: 0x9760, symBinAddr: 0x10000C804, symSize: 0x494 }
  - { offsetInCU: 0x33A95, offset: 0x33A95, size: 0x8, addend: 0x0, symName: __ZN4Game4DeckC1ERK4CardS3_, symObjAddr: 0x9BF4, symBinAddr: 0x10000CC98, symSize: 0x88 }
  - { offsetInCU: 0x33ADB, offset: 0x33ADB, size: 0x8, addend: 0x0, symName: __ZN4Game4Deck4dealEv, symObjAddr: 0x9C7C, symBinAddr: 0x10000CD20, symSize: 0x364 }
  - { offsetInCU: 0x33B15, offset: 0x33B15, size: 0x8, addend: 0x0, symName: __ZNSt3__16vectorI4CardNS_9allocatorIS1_EEE4backB7v160006Ev, symObjAddr: 0x9FE0, symBinAddr: 0x10000D084, symSize: 0x18C }
  - { offsetInCU: 0x33B3B, offset: 0x33B3B, size: 0x8, addend: 0x0, symName: __ZNSt3__16vectorI4CardNS_9allocatorIS1_EEE8pop_backEv, symObjAddr: 0xA16C, symBinAddr: 0x10000D210, symSize: 0x150 }
  - { offsetInCU: 0x33B63, offset: 0x33B63, size: 0x8, addend: 0x0, symName: __ZN4Game4Deck7shuffleEv, symObjAddr: 0xA2BC, symBinAddr: 0x10000D360, symSize: 0x2F8 }
  - { offsetInCU: 0x33BC2, offset: 0x33BC2, size: 0x8, addend: 0x0, symName: __ZNKSt3__16vectorI4CardNS_9allocatorIS1_EEE4sizeB7v160006Ev, symObjAddr: 0xA5B4, symBinAddr: 0x10000D658, symSize: 0xF8 }
  - { offsetInCU: 0x33BE8, offset: 0x33BE8, size: 0x8, addend: 0x0, symName: __ZN21RandomNumberGeneratorclEv, symObjAddr: 0xA6AC, symBinAddr: 0x10000D750, symSize: 0x100 }
  - { offsetInCU: 0x33C0E, offset: 0x33C0E, size: 0x8, addend: 0x0, symName: __ZNSt3__16vectorI4CardNS_9allocatorIS1_EEEixB7v160006Em, symObjAddr: 0xA9A8, symBinAddr: 0x10000DA4C, symSize: 0x1CC }
  - { offsetInCU: 0x33E80, offset: 0x33E80, size: 0x8, addend: 0x0, symName: __ZN8CheckWin10RoyalFlushEv, symObjAddr: 0xAB74, symBinAddr: 0x10000DC18, symSize: 0x2F4 }
  - { offsetInCU: 0x33EC9, offset: 0x33EC9, size: 0x8, addend: 0x0, symName: __ZN8CheckWin13StraightFlushER5Value, symObjAddr: 0xAE68, symBinAddr: 0x10000DF0C, symSize: 0xB38 }
  - { offsetInCU: 0x33F5E, offset: 0x33F5E, size: 0x8, addend: 0x0, symName: __ZN8CheckWin5FlushEv, symObjAddr: 0xB9A0, symBinAddr: 0x10000EA44, symSize: 0x264 }
  - { offsetInCU: 0x33F85, offset: 0x33F85, size: 0x8, addend: 0x0, symName: __ZNSt3__16vectorI4CardNS_9allocatorIS1_EEEC1ERKS4_, symObjAddr: 0xBC04, symBinAddr: 0x10000ECA8, symSize: 0x80 }
  - { offsetInCU: 0x33FC0, offset: 0x33FC0, size: 0x8, addend: 0x0, symName: __ZNSt3__16vectorI4CardNS_9allocatorIS1_EEE5beginB7v160006Ev, symObjAddr: 0xC0B4, symBinAddr: 0x10000F158, symSize: 0x2B0 }
  - { offsetInCU: 0x33FE9, offset: 0x33FE9, size: 0x8, addend: 0x0, symName: __ZNSt3__16vectorI4CardNS_9allocatorIS1_EEE3endB7v160006Ev, symObjAddr: 0xC364, symBinAddr: 0x10000F408, symSize: 0x2B4 }
  - { offsetInCU: 0x34012, offset: 0x34012, size: 0x8, addend: 0x0, symName: __ZN8CheckWin8StraightEjjR5Value, symObjAddr: 0xC618, symBinAddr: 0x10000F6BC, symSize: 0x17BC }
  - { offsetInCU: 0x340D2, offset: 0x340D2, size: 0x8, addend: 0x0, symName: __ZNSt3__16vectorI4CardNS_9allocatorIS1_EEEaSB7v160006ERKS4_, symObjAddr: 0xDDD4, symBinAddr: 0x100010E78, symSize: 0x218 }
  - { offsetInCU: 0x34109, offset: 0x34109, size: 0x8, addend: 0x0, symName: __ZNSt3__16vectorI4CardNS_9allocatorIS1_EEED1B7v160006Ev, symObjAddr: 0xDFEC, symBinAddr: 0x100011090, symSize: 0x78 }
  - { offsetInCU: 0x34133, offset: 0x34133, size: 0x8, addend: 0x0, symName: __ZN8CheckWin11FourofAKindEv, symObjAddr: 0xE064, symBinAddr: 0x100011108, symSize: 0x524 }
  - { offsetInCU: 0x341B9, offset: 0x341B9, size: 0x8, addend: 0x0, symName: __ZNSt3__113unordered_mapI5ValueiNS_4hashIS1_EENS_8equal_toIS1_EENS_9allocatorINS_4pairIKS1_iEEEEE5beginB7v160006Ev, symObjAddr: 0xE588, symBinAddr: 0x10001162C, symSize: 0x340 }
  - { offsetInCU: 0x341E0, offset: 0x341E0, size: 0x8, addend: 0x0, symName: __ZNSt3__113unordered_mapI5ValueiNS_4hashIS1_EENS_8equal_toIS1_EENS_9allocatorINS_4pairIKS1_iEEEEE3endB7v160006Ev, symObjAddr: 0xE8C8, symBinAddr: 0x10001196C, symSize: 0x340 }
  - { offsetInCU: 0x34207, offset: 0x34207, size: 0x8, addend: 0x0, symName: __ZNKSt3__119__hash_map_iteratorINS_15__hash_iteratorIPNS_11__hash_nodeINS_17__hash_value_typeI5ValueiEEPvEEEEEdeB7v160006Ev, symObjAddr: 0xECC8, symBinAddr: 0x100011D6C, symSize: 0x144 }
  - { offsetInCU: 0x3422D, offset: 0x3422D, size: 0x8, addend: 0x0, symName: __ZNSt3__119__hash_map_iteratorINS_15__hash_iteratorIPNS_11__hash_nodeINS_17__hash_value_typeI5ValueiEEPvEEEEEppB7v160006Ev, symObjAddr: 0xEE0C, symBinAddr: 0x100011EB0, symSize: 0xF8 }
  - { offsetInCU: 0x34253, offset: 0x34253, size: 0x8, addend: 0x0, symName: __ZN8CheckWin9FullHouseEv, symObjAddr: 0xEF04, symBinAddr: 0x100011FA8, symSize: 0x640 }
  - { offsetInCU: 0x342F7, offset: 0x342F7, size: 0x8, addend: 0x0, symName: __ZN4Card8nextRankE5Value, symObjAddr: 0xF544, symBinAddr: 0x1000125E8, symSize: 0x80 }
  - { offsetInCU: 0x3431A, offset: 0x3431A, size: 0x8, addend: 0x0, symName: __ZNSt3__113unordered_mapI5ValueiNS_4hashIS1_EENS_8equal_toIS1_EENS_9allocatorINS_4pairIKS1_iEEEEEixERS8_, symObjAddr: 0xF5C4, symBinAddr: 0x100012668, symSize: 0x4F8 }
  - { offsetInCU: 0x34353, offset: 0x34353, size: 0x8, addend: 0x0, symName: __ZNSt3__113unordered_mapI5ValueiNS_4hashIS1_EENS_8equal_toIS1_EENS_9allocatorINS_4pairIKS1_iEEEEEixEOS1_, symObjAddr: 0xFABC, symBinAddr: 0x100012B60, symSize: 0x4F8 }
  - { offsetInCU: 0x3438C, offset: 0x3438C, size: 0x8, addend: 0x0, symName: __ZN8CheckWin12ThreeofAKindEv, symObjAddr: 0xFFB4, symBinAddr: 0x100013058, symSize: 0x524 }
  - { offsetInCU: 0x34412, offset: 0x34412, size: 0x8, addend: 0x0, symName: __ZN8CheckWin7TwoPairEv, symObjAddr: 0x104D8, symBinAddr: 0x10001357C, symSize: 0x508 }
  - { offsetInCU: 0x344A7, offset: 0x344A7, size: 0x8, addend: 0x0, symName: __ZN8CheckWin4PairEv, symObjAddr: 0x109E0, symBinAddr: 0x100013A84, symSize: 0x524 }
  - { offsetInCU: 0x3452D, offset: 0x3452D, size: 0x8, addend: 0x0, symName: __ZN8CheckWin16bestPossibleHandEv, symObjAddr: 0x10F04, symBinAddr: 0x100013FA8, symSize: 0x3FC }
  - { offsetInCU: 0x34585, offset: 0x34585, size: 0x8, addend: 0x0, symName: __ZN4Game14SerialsimulateEv, symObjAddr: 0x11300, symBinAddr: 0x1000143A4, symSize: 0x16B8 }
  - { offsetInCU: 0x3465C, offset: 0x3465C, size: 0x8, addend: 0x0, symName: __ZNSt3__16vectorINS_4pairI4CardS2_EENS_9allocatorIS3_EEE9push_backB7v160006EOS3_, symObjAddr: 0x129B8, symBinAddr: 0x100015A5C, symSize: 0x1FC }
  - { offsetInCU: 0x34699, offset: 0x34699, size: 0x8, addend: 0x0, symName: __ZNSt3__14pairI4CardS1_EC1B7v160006IKS1_S4_LPv0EEEOT_OT0_, symObjAddr: 0x12BB4, symBinAddr: 0x100015C58, symSize: 0x88 }
  - { offsetInCU: 0x346F7, offset: 0x346F7, size: 0x8, addend: 0x0, symName: __ZNSt3__16vectorI4CardNS_9allocatorIS1_EEE9push_backB7v160006ERKS1_, symObjAddr: 0x12C3C, symBinAddr: 0x100015CE0, symSize: 0x1FC }
  - { offsetInCU: 0x3472E, offset: 0x3472E, size: 0x8, addend: 0x0, symName: __ZN8CheckWinC1ENSt3__16vectorI4CardNS0_9allocatorIS2_EEEE, symObjAddr: 0x12E38, symBinAddr: 0x100015EDC, symSize: 0x84 }
  - { offsetInCU: 0x34767, offset: 0x34767, size: 0x8, addend: 0x0, symName: __ZNSt3__16vectorINS_4pairI4CardS2_EENS_9allocatorIS3_EEEixB7v160006Em, symObjAddr: 0x12EBC, symBinAddr: 0x100015F60, symSize: 0x1CC }
  - { offsetInCU: 0x3479E, offset: 0x3479E, size: 0x8, addend: 0x0, symName: __ZN8CheckWinD1Ev, symObjAddr: 0x1318C, symBinAddr: 0x100016230, symSize: 0x78 }
  - { offsetInCU: 0x347CA, offset: 0x347CA, size: 0x8, addend: 0x0, symName: __ZNSt3__16vectorINS_4pairI4CardS2_EENS_9allocatorIS3_EEE5clearB7v160006Ev, symObjAddr: 0x13204, symBinAddr: 0x1000162A8, symSize: 0x90 }
  - { offsetInCU: 0x347FF, offset: 0x347FF, size: 0x8, addend: 0x0, symName: __ZNSt3__16vectorI4CardNS_9allocatorIS1_EEE5clearB7v160006Ev, symObjAddr: 0x13294, symBinAddr: 0x100016338, symSize: 0x90 }
  - { offsetInCU: 0x34833, offset: 0x34833, size: 0x8, addend: 0x0, symName: __Z16ThreadedsimulateRNSt3__16vectorI4GameNS_9allocatorIS1_EEEE, symObjAddr: 0x13324, symBinAddr: 0x1000163C8, symSize: 0x7CC }
  - { offsetInCU: 0x348C0, offset: 0x348C0, size: 0x8, addend: 0x0, symName: __ZN10ThreadPoolC1Ev, symObjAddr: 0x13AF0, symBinAddr: 0x100016B94, symSize: 0x78 }
  - { offsetInCU: 0x348EC, offset: 0x348EC, size: 0x8, addend: 0x0, symName: __ZNSt3__16vectorI4GameNS_9allocatorIS1_EEE5beginB7v160006Ev, symObjAddr: 0x13B68, symBinAddr: 0x100016C0C, symSize: 0x2B0 }
  - { offsetInCU: 0x34915, offset: 0x34915, size: 0x8, addend: 0x0, symName: __ZNSt3__16vectorI4GameNS_9allocatorIS1_EEE3endB7v160006Ev, symObjAddr: 0x13E18, symBinAddr: 0x100016EBC, symSize: 0x2B4 }
  - { offsetInCU: 0x3493E, offset: 0x3493E, size: 0x8, addend: 0x0, symName: __ZNKSt3__111__wrap_iterIP4GameEdeB7v160006Ev, symObjAddr: 0x14190, symBinAddr: 0x100017234, symSize: 0xF4 }
  - { offsetInCU: 0x34964, offset: 0x34964, size: 0x8, addend: 0x0, symName: __ZNSt3__18functionIFvvEEC1INS_6__bindIM4GameFvvEJPS5_EEEvEET_, symObjAddr: 0x1438C, symBinAddr: 0x100017430, symSize: 0x84 }
  - { offsetInCU: 0x349AA, offset: 0x349AA, size: 0x8, addend: 0x0, symName: __ZNSt3__111__wrap_iterIP4GameEppB7v160006Ev, symObjAddr: 0x14410, symBinAddr: 0x1000174B4, symSize: 0x1A8 }
  - { offsetInCU: 0x349D0, offset: 0x349D0, size: 0x8, addend: 0x0, symName: __ZN10ThreadPoolD1Ev, symObjAddr: 0x145B8, symBinAddr: 0x10001765C, symSize: 0x78 }
  - { offsetInCU: 0x349FB, offset: 0x349FB, size: 0x8, addend: 0x0, symName: __Z12printResultsNSt3__16vectorI4GameNS_9allocatorIS1_EEEE, symObjAddr: 0x14630, symBinAddr: 0x1000176D4, symSize: 0xAA8 }
  - { offsetInCU: 0x34AA8, offset: 0x34AA8, size: 0x8, addend: 0x0, symName: __ZNSt3__16vectorI4GameNS_9allocatorIS1_EEEixB7v160006Em, symObjAddr: 0x150D8, symBinAddr: 0x10001817C, symSize: 0x1D4 }
  - { offsetInCU: 0x34ADF, offset: 0x34ADF, size: 0x8, addend: 0x0, symName: __ZNSt3__113basic_ostreamIcNS_11char_traitsIcEEElsB7v160006EPFRS3_S4_E, symObjAddr: 0x152AC, symBinAddr: 0x100018350, symSize: 0x108 }
  - { offsetInCU: 0x34B12, offset: 0x34B12, size: 0x8, addend: 0x0, symName: __Z4getVc, symObjAddr: 0x1578C, symBinAddr: 0x100018830, symSize: 0x1C8 }
  - { offsetInCU: 0x34B3E, offset: 0x34B3E, size: 0x8, addend: 0x0, symName: __Z5getStc, symObjAddr: 0x15954, symBinAddr: 0x1000189F8, symSize: 0x84 }
  - { offsetInCU: 0x34B6A, offset: 0x34B6A, size: 0x8, addend: 0x0, symName: __Z13handleRequestiPc, symObjAddr: 0x159D8, symBinAddr: 0x100018A7C, symSize: 0xCF0 }
  - { offsetInCU: 0x34C4A, offset: 0x34C4A, size: 0x8, addend: 0x0, symName: __ZNSt3__112basic_stringIcNS_11char_traitsIcEENS_9allocatorIcEEEC1B7v160006IDnEEPKc, symObjAddr: 0x166C8, symBinAddr: 0x10001976C, symSize: 0x80 }
  - { offsetInCU: 0x34C88, offset: 0x34C88, size: 0x8, addend: 0x0, symName: __ZNKSt3__112basic_stringIcNS_11char_traitsIcEENS_9allocatorIcEEE6substrB7v160006Emm, symObjAddr: 0x16748, symBinAddr: 0x1000197EC, symSize: 0x2E0 }
  - { offsetInCU: 0x34CCF, offset: 0x34CCF, size: 0x8, addend: 0x0, symName: __ZNSt3__14pairI4CardS1_EC1B7v160006ILb1ELPv0EEEv, symObjAddr: 0x16A28, symBinAddr: 0x100019ACC, symSize: 0x78 }
  - { offsetInCU: 0x34D09, offset: 0x34D09, size: 0x8, addend: 0x0, symName: __ZNSt3__112basic_stringIcNS_11char_traitsIcEENS_9allocatorIcEEEixB7v160006Em, symObjAddr: 0x16AA0, symBinAddr: 0x100019B44, symSize: 0x170 }
  - { offsetInCU: 0x34D3E, offset: 0x34D3E, size: 0x8, addend: 0x0, symName: __ZNSt3__16vectorI4GameNS_9allocatorIS1_EEEC1B7v160006Ev, symObjAddr: 0x16C10, symBinAddr: 0x100019CB4, symSize: 0x78 }
  - { offsetInCU: 0x34D6E, offset: 0x34D6E, size: 0x8, addend: 0x0, symName: __ZNSt3__16vectorI4GameNS_9allocatorIS1_EEE12emplace_backIJRNS_4pairI4CardS7_EElEEERS1_DpOT_, symObjAddr: 0x16C88, symBinAddr: 0x100019D2C, symSize: 0x2E8 }
  - { offsetInCU: 0x34DC4, offset: 0x34DC4, size: 0x8, addend: 0x0, symName: __ZNSt3__16vectorI4GameNS_9allocatorIS1_EEEC1ERKS4_, symObjAddr: 0x16F70, symBinAddr: 0x10001A014, symSize: 0x80 }
  - { offsetInCU: 0x34DFF, offset: 0x34DFF, size: 0x8, addend: 0x0, symName: __ZNSt3__16vectorI4GameNS_9allocatorIS1_EEED1B7v160006Ev, symObjAddr: 0x16FF0, symBinAddr: 0x10001A094, symSize: 0x78 }
  - { offsetInCU: 0x34E29, offset: 0x34E29, size: 0x8, addend: 0x0, symName: __ZNKSt3__112basic_stringIcNS_11char_traitsIcEENS_9allocatorIcEEE5c_strB7v160006Ev, symObjAddr: 0x17068, symBinAddr: 0x10001A10C, symSize: 0x6C }
  - { offsetInCU: 0x34E4F, offset: 0x34E4F, size: 0x8, addend: 0x0, symName: __ZNKSt3__112basic_stringIcNS_11char_traitsIcEENS_9allocatorIcEEE6lengthB7v160006Ev, symObjAddr: 0x170D4, symBinAddr: 0x10001A178, symSize: 0x6C }
  - { offsetInCU: 0x34E75, offset: 0x34E75, size: 0x8, addend: 0x0, symName: _main, symObjAddr: 0x17260, symBinAddr: 0x10001A304, symSize: 0x628 }
  - { offsetInCU: 0x34EE4, offset: 0x34EE4, size: 0x8, addend: 0x0, symName: __ZNSt3__14pairIKNS_12basic_stringIcNS_11char_traitsIcEENS_9allocatorIcEEEE5ValueEC2B7v160006IRA4_KcS8_LPv0EEEOT_OT0_, symObjAddr: 0x17888, symBinAddr: 0x10001A92C, symSize: 0x1B0 }
  - { offsetInCU: 0x34F42, offset: 0x34F42, size: 0x8, addend: 0x0, symName: __ZNSt3__14pairIKNS_12basic_stringIcNS_11char_traitsIcEENS_9allocatorIcEEEE5ValueEC2B7v160006IRA6_KcS8_LPv0EEEOT_OT0_, symObjAddr: 0x17A38, symBinAddr: 0x10001AADC, symSize: 0x1B0 }
  - { offsetInCU: 0x34FA0, offset: 0x34FA0, size: 0x8, addend: 0x0, symName: __ZNSt3__14pairIKNS_12basic_stringIcNS_11char_traitsIcEENS_9allocatorIcEEEE5ValueEC2B7v160006IRA5_KcS8_LPv0EEEOT_OT0_, symObjAddr: 0x17BE8, symBinAddr: 0x10001AC8C, symSize: 0x1B0 }
  - { offsetInCU: 0x34FFE, offset: 0x34FFE, size: 0x8, addend: 0x0, symName: __ZNSt3__14pairIKNS_12basic_stringIcNS_11char_traitsIcEENS_9allocatorIcEEEE5ValueED2Ev, symObjAddr: 0x17D98, symBinAddr: 0x10001AE3C, symSize: 0x78 }
  - { offsetInCU: 0x3502A, offset: 0x3502A, size: 0x8, addend: 0x0, symName: __ZNSt3__14pairIKNS_12basic_stringIcNS_11char_traitsIcEENS_9allocatorIcEEEE4SuitEC2B7v160006IRA6_KcS8_LPv0EEEOT_OT0_, symObjAddr: 0x17E10, symBinAddr: 0x10001AEB4, symSize: 0x1B0 }
  - { offsetInCU: 0x35088, offset: 0x35088, size: 0x8, addend: 0x0, symName: __ZNSt3__14pairIKNS_12basic_stringIcNS_11char_traitsIcEENS_9allocatorIcEEEE4SuitEC2B7v160006IRA7_KcS8_LPv0EEEOT_OT0_, symObjAddr: 0x17FC0, symBinAddr: 0x10001B064, symSize: 0x1B0 }
  - { offsetInCU: 0x350E6, offset: 0x350E6, size: 0x8, addend: 0x0, symName: __ZNSt3__14pairIKNS_12basic_stringIcNS_11char_traitsIcEENS_9allocatorIcEEEE4SuitEC2B7v160006IRA9_KcS8_LPv0EEEOT_OT0_, symObjAddr: 0x18170, symBinAddr: 0x10001B214, symSize: 0x1B0 }
  - { offsetInCU: 0x35144, offset: 0x35144, size: 0x8, addend: 0x0, symName: __ZNSt3__14pairIKNS_12basic_stringIcNS_11char_traitsIcEENS_9allocatorIcEEEE4SuitED2Ev, symObjAddr: 0x18320, symBinAddr: 0x10001B3C4, symSize: 0x78 }
  - { offsetInCU: 0x35170, offset: 0x35170, size: 0x8, addend: 0x0, symName: __ZN12InvalidInputC2Ev, symObjAddr: 0x18398, symBinAddr: 0x10001B43C, symSize: 0x54 }
  - { offsetInCU: 0x3519A, offset: 0x3519A, size: 0x8, addend: 0x0, symName: __ZN4CardC2E5Value4Suit, symObjAddr: 0x183EC, symBinAddr: 0x10001B490, symSize: 0x160 }
  - { offsetInCU: 0x351E0, offset: 0x351E0, size: 0x8, addend: 0x0, symName: __ZNKSt3__111__wrap_iterIPNS_6threadEE4baseB7v160006Ev, symObjAddr: 0x185E8, symBinAddr: 0x10001B68C, symSize: 0xAC }
  - { offsetInCU: 0x35206, offset: 0x35206, size: 0x8, addend: 0x0, symName: __ZNSt3__14pairIKiNS_12basic_stringIcNS_11char_traitsIcEENS_9allocatorIcEEEEEC2B7v160006IiRA10_KcLPv0EEEOT_OT0_, symObjAddr: 0x18694, symBinAddr: 0x10001B738, symSize: 0x1A4 }
  - { offsetInCU: 0x35264, offset: 0x35264, size: 0x8, addend: 0x0, symName: __ZNSt3__14pairIKiNS_12basic_stringIcNS_11char_traitsIcEENS_9allocatorIcEEEEEC2B7v160006IiRA5_KcLPv0EEEOT_OT0_, symObjAddr: 0x18838, symBinAddr: 0x10001B8DC, symSize: 0x1A4 }
  - { offsetInCU: 0x352C2, offset: 0x352C2, size: 0x8, addend: 0x0, symName: __ZNSt3__14pairIKiNS_12basic_stringIcNS_11char_traitsIcEENS_9allocatorIcEEEEEC2B7v160006IiRA9_KcLPv0EEEOT_OT0_, symObjAddr: 0x189DC, symBinAddr: 0x10001BA80, symSize: 0x1A4 }
  - { offsetInCU: 0x35320, offset: 0x35320, size: 0x8, addend: 0x0, symName: __ZNSt3__14pairIKiNS_12basic_stringIcNS_11char_traitsIcEENS_9allocatorIcEEEEEC2B7v160006IiRA16_KcLPv0EEEOT_OT0_, symObjAddr: 0x18B80, symBinAddr: 0x10001BC24, symSize: 0x1A4 }
  - { offsetInCU: 0x3537E, offset: 0x3537E, size: 0x8, addend: 0x0, symName: __ZNSt3__14pairIKiNS_12basic_stringIcNS_11char_traitsIcEENS_9allocatorIcEEEEEC2B7v160006IiRA6_KcLPv0EEEOT_OT0_, symObjAddr: 0x18D24, symBinAddr: 0x10001BDC8, symSize: 0x1A4 }
  - { offsetInCU: 0x353DC, offset: 0x353DC, size: 0x8, addend: 0x0, symName: __ZNSt3__14pairIKiNS_12basic_stringIcNS_11char_traitsIcEENS_9allocatorIcEEEEEC2B7v160006IiRA11_KcLPv0EEEOT_OT0_, symObjAddr: 0x18EC8, symBinAddr: 0x10001BF6C, symSize: 0x1A4 }
  - { offsetInCU: 0x3543A, offset: 0x3543A, size: 0x8, addend: 0x0, symName: __ZNSt3__14pairIKiNS_12basic_stringIcNS_11char_traitsIcEENS_9allocatorIcEEEEEC2B7v160006IiRA15_KcLPv0EEEOT_OT0_, symObjAddr: 0x1906C, symBinAddr: 0x10001C110, symSize: 0x1A4 }
  - { offsetInCU: 0x35498, offset: 0x35498, size: 0x8, addend: 0x0, symName: __ZNSt3__14pairIKiNS_12basic_stringIcNS_11char_traitsIcEENS_9allocatorIcEEEEEC2B7v160006IiRA12_KcLPv0EEEOT_OT0_, symObjAddr: 0x19210, symBinAddr: 0x10001C2B4, symSize: 0x1A4 }
  - { offsetInCU: 0x354F6, offset: 0x354F6, size: 0x8, addend: 0x0, symName: __ZNSt3__14pairIKiNS_12basic_stringIcNS_11char_traitsIcEENS_9allocatorIcEEEEED2Ev, symObjAddr: 0x193B4, symBinAddr: 0x10001C458, symSize: 0x7C }
  - { offsetInCU: 0x35522, offset: 0x35522, size: 0x8, addend: 0x0, symName: __ZN21RandomNumberGeneratorC2Eii, symObjAddr: 0x19430, symBinAddr: 0x10001C4D4, symSize: 0x26C }
  - { offsetInCU: 0x35568, offset: 0x35568, size: 0x8, addend: 0x0, symName: __ZNSt3__113random_deviceC1Ev, symObjAddr: 0x1969C, symBinAddr: 0x10001C740, symSize: 0x338 }
  - { offsetInCU: 0x35593, offset: 0x35593, size: 0x8, addend: 0x0, symName: __ZNSt3__124uniform_int_distributionIiEC1Eii, symObjAddr: 0x199D4, symBinAddr: 0x10001CA78, symSize: 0x88 }
  - { offsetInCU: 0x355D9, offset: 0x355D9, size: 0x8, addend: 0x0, symName: __ZNSt3__124uniform_int_distributionIiEC2Eii, symObjAddr: 0x19A5C, symBinAddr: 0x10001CB00, symSize: 0x88 }
  - { offsetInCU: 0x3561F, offset: 0x3561F, size: 0x8, addend: 0x0, symName: __ZNSt3__124uniform_int_distributionIiE10param_typeC1Eii, symObjAddr: 0x19AE4, symBinAddr: 0x10001CB88, symSize: 0x88 }
  - { offsetInCU: 0x35665, offset: 0x35665, size: 0x8, addend: 0x0, symName: __ZNSt3__124uniform_int_distributionIiE10param_typeC2Eii, symObjAddr: 0x19B6C, symBinAddr: 0x10001CC10, symSize: 0x160 }
  - { offsetInCU: 0x356AB, offset: 0x356AB, size: 0x8, addend: 0x0, symName: __ZN21RandomNumberGeneratorD2Ev, symObjAddr: 0x19CCC, symBinAddr: 0x10001CD70, symSize: 0x78 }
  - { offsetInCU: 0x356D7, offset: 0x356D7, size: 0x8, addend: 0x0, symName: __ZN4Game4DeckC2Ev, symObjAddr: 0x19D44, symBinAddr: 0x10001CDE8, symSize: 0x888 }
  - { offsetInCU: 0x357A9, offset: 0x357A9, size: 0x8, addend: 0x0, symName: __ZNSt3__16vectorI4CardNS_9allocatorIS1_EEEC1B7v160006Ev, symObjAddr: 0x1A5CC, symBinAddr: 0x10001D670, symSize: 0x78 }
  - { offsetInCU: 0x357D3, offset: 0x357D3, size: 0x8, addend: 0x0, symName: __ZNSt3__16vectorI4CardNS_9allocatorIS1_EEE7reserveEm, symObjAddr: 0x1A644, symBinAddr: 0x10001D6E8, symSize: 0x41C }
  - { offsetInCU: 0x35835, offset: 0x35835, size: 0x8, addend: 0x0, symName: __ZNSt3__113unordered_mapINS_12basic_stringIcNS_11char_traitsIcEENS_9allocatorIcEEEE5ValueNS_4hashIS6_EENS_8equal_toIS6_EENS4_INS_4pairIKS6_S7_EEEEE5beginB7v160006Ev, symObjAddr: 0x1AA60, symBinAddr: 0x10001DB04, symSize: 0x340 }
  - { offsetInCU: 0x3585C, offset: 0x3585C, size: 0x8, addend: 0x0, symName: __ZNKSt3__119__hash_map_iteratorINS_15__hash_iteratorIPNS_11__hash_nodeINS_17__hash_value_typeINS_12basic_stringIcNS_11char_traitsIcEENS_9allocatorIcEEEE5ValueEEPvEEEEEdeB7v160006Ev, symObjAddr: 0x1AE60, symBinAddr: 0x10001DF04, symSize: 0x144 }
  - { offsetInCU: 0x35882, offset: 0x35882, size: 0x8, addend: 0x0, symName: __ZNSt3__14pairIKNS_12basic_stringIcNS_11char_traitsIcEENS_9allocatorIcEEEE5ValueEC1ERKS9_, symObjAddr: 0x1AFA4, symBinAddr: 0x10001E048, symSize: 0x80 }
  - { offsetInCU: 0x358B6, offset: 0x358B6, size: 0x8, addend: 0x0, symName: __ZNSt3__113unordered_mapINS_12basic_stringIcNS_11char_traitsIcEENS_9allocatorIcEEEE4SuitNS_4hashIS6_EENS_8equal_toIS6_EENS4_INS_4pairIKS6_S7_EEEEE5beginB7v160006Ev, symObjAddr: 0x1B024, symBinAddr: 0x10001E0C8, symSize: 0x340 }
  - { offsetInCU: 0x358DD, offset: 0x358DD, size: 0x8, addend: 0x0, symName: __ZNKSt3__119__hash_map_iteratorINS_15__hash_iteratorIPNS_11__hash_nodeINS_17__hash_value_typeINS_12basic_stringIcNS_11char_traitsIcEENS_9allocatorIcEEEE4SuitEEPvEEEEEdeB7v160006Ev, symObjAddr: 0x1B424, symBinAddr: 0x10001E4C8, symSize: 0x144 }
  - { offsetInCU: 0x35903, offset: 0x35903, size: 0x8, addend: 0x0, symName: __ZNSt3__14pairIKNS_12basic_stringIcNS_11char_traitsIcEENS_9allocatorIcEEEE4SuitEC1ERKS9_, symObjAddr: 0x1B568, symBinAddr: 0x10001E60C, symSize: 0x80 }
  - { offsetInCU: 0x3593D, offset: 0x3593D, size: 0x8, addend: 0x0, symName: __ZNSt3__16vectorI4CardNS_9allocatorIS1_EEE12emplace_backIJR5ValueR4SuitEEERS1_DpOT_, symObjAddr: 0x1B5E8, symBinAddr: 0x10001E68C, symSize: 0x2E8 }
  - { offsetInCU: 0x35993, offset: 0x35993, size: 0x8, addend: 0x0, symName: __ZNSt3__119__hash_map_iteratorINS_15__hash_iteratorIPNS_11__hash_nodeINS_17__hash_value_typeINS_12basic_stringIcNS_11char_traitsIcEENS_9allocatorIcEEEE4SuitEEPvEEEEEppB7v160006Ev, symObjAddr: 0x1B8D0, symBinAddr: 0x10001E974, symSize: 0xF8 }
  - { offsetInCU: 0x359B9, offset: 0x359B9, size: 0x8, addend: 0x0, symName: __ZNSt3__119__hash_map_iteratorINS_15__hash_iteratorIPNS_11__hash_nodeINS_17__hash_value_typeINS_12basic_stringIcNS_11char_traitsIcEENS_9allocatorIcEEEE5ValueEEPvEEEEEppB7v160006Ev, symObjAddr: 0x1B9C8, symBinAddr: 0x10001EA6C, symSize: 0xF8 }
  - { offsetInCU: 0x359DF, offset: 0x359DF, size: 0x8, addend: 0x0, symName: __ZNSt3__16vectorI4CardNS_9allocatorIS1_EEEC2B7v160006Ev, symObjAddr: 0x1BAC0, symBinAddr: 0x10001EB64, symSize: 0x34C }
  - { offsetInCU: 0x35A16, offset: 0x35A16, size: 0x8, addend: 0x0, symName: __ZNSt3__117__compressed_pairIP4CardNS_9allocatorIS1_EEEC1B7v160006IDnNS_18__default_init_tagEEEOT_OT0_, symObjAddr: 0x1BE0C, symBinAddr: 0x10001EEB0, symSize: 0x88 }
  - { offsetInCU: 0x35A6E, offset: 0x35A6E, size: 0x8, addend: 0x0, symName: __ZNSt3__117__compressed_pairIP4CardNS_9allocatorIS1_EEEC2B7v160006IDnNS_18__default_init_tagEEEOT_OT0_, symObjAddr: 0x1BEB0, symBinAddr: 0x10001EF54, symSize: 0x140 }
  - { offsetInCU: 0x35AC6, offset: 0x35AC6, size: 0x8, addend: 0x0, symName: __ZNSt3__122__compressed_pair_elemIP4CardLi0ELb0EEC2B7v160006IDnvEEOT_, symObjAddr: 0x1BFF0, symBinAddr: 0x10001F094, symSize: 0xBC }
  - { offsetInCU: 0x35B08, offset: 0x35B08, size: 0x8, addend: 0x0, symName: __ZNSt3__122__compressed_pair_elemINS_9allocatorI4CardEELi1ELb1EEC2B7v160006ENS_18__default_init_tagE, symObjAddr: 0x1C0AC, symBinAddr: 0x10001F150, symSize: 0x84 }
  - { offsetInCU: 0x35B3C, offset: 0x35B3C, size: 0x8, addend: 0x0, symName: __ZNSt3__19allocatorI4CardEC2B7v160006Ev, symObjAddr: 0x1C130, symBinAddr: 0x10001F1D4, symSize: 0x84 }
  - { offsetInCU: 0x35B66, offset: 0x35B66, size: 0x8, addend: 0x0, symName: __ZNSt3__116__non_trivial_ifILb1ENS_9allocatorI4CardEEEC2B7v160006Ev, symObjAddr: 0x1C1B4, symBinAddr: 0x10001F258, symSize: 0x54 }
  - { offsetInCU: 0x35B90, offset: 0x35B90, size: 0x8, addend: 0x0, symName: __ZNKSt3__16vectorI4CardNS_9allocatorIS1_EEE8capacityB7v160006Ev, symObjAddr: 0x1C208, symBinAddr: 0x10001F2AC, symSize: 0x144 }
  - { offsetInCU: 0x35BB6, offset: 0x35BB6, size: 0x8, addend: 0x0, symName: __ZNKSt3__16vectorI4CardNS_9allocatorIS1_EEE8max_sizeEv, symObjAddr: 0x1C34C, symBinAddr: 0x10001F3F0, symSize: 0x3B8 }
  - { offsetInCU: 0x35BDF, offset: 0x35BDF, size: 0x8, addend: 0x0, symName: __ZNKSt3__16vectorI4CardNS_9allocatorIS1_EEE20__throw_length_errorB7v160006Ev, symObjAddr: 0x1C704, symBinAddr: 0x10001F7A8, symSize: 0x80 }
  - { offsetInCU: 0x35C05, offset: 0x35C05, size: 0x8, addend: 0x0, symName: __ZNSt3__16vectorI4CardNS_9allocatorIS1_EEE7__allocB7v160006Ev, symObjAddr: 0x1C784, symBinAddr: 0x10001F828, symSize: 0xE4 }
  - { offsetInCU: 0x35C2B, offset: 0x35C2B, size: 0x8, addend: 0x0, symName: __ZNSt3__114__split_bufferI4CardRNS_9allocatorIS1_EEEC1EmmS4_, symObjAddr: 0x1C868, symBinAddr: 0x10001F90C, symSize: 0x90 }
  - { offsetInCU: 0x35C81, offset: 0x35C81, size: 0x8, addend: 0x0, symName: __ZNSt3__114__split_bufferI4CardRNS_9allocatorIS1_EEED1Ev, symObjAddr: 0x1D15C, symBinAddr: 0x100020200, symSize: 0x78 }
  - { offsetInCU: 0x35CAD, offset: 0x35CAD, size: 0x8, addend: 0x0, symName: __ZNKSt3__16vectorI4CardNS_9allocatorIS1_EEE9__end_capB7v160006Ev, symObjAddr: 0x1D1D4, symBinAddr: 0x100020278, symSize: 0x100 }
  - { offsetInCU: 0x35CD3, offset: 0x35CD3, size: 0x8, addend: 0x0, symName: __ZNKSt3__117__compressed_pairIP4CardNS_9allocatorIS1_EEE5firstB7v160006Ev, symObjAddr: 0x1D2D4, symBinAddr: 0x100020378, symSize: 0x124 }
  - { offsetInCU: 0x35CF9, offset: 0x35CF9, size: 0x8, addend: 0x0, symName: __ZNKSt3__122__compressed_pair_elemIP4CardLi0ELb0EE5__getB7v160006Ev, symObjAddr: 0x1D3F8, symBinAddr: 0x10002049C, symSize: 0xAC }
  - { offsetInCU: 0x35D2A, offset: 0x35D2A, size: 0x8, addend: 0x0, symName: __ZNSt3__116allocator_traitsINS_9allocatorI4CardEEE8max_sizeB7v160006IS3_vEEmRKS3_, symObjAddr: 0x1D5A8, symBinAddr: 0x10002064C, symSize: 0x24 }
  - { offsetInCU: 0x35D58, offset: 0x35D58, size: 0x8, addend: 0x0, symName: __ZNKSt3__16vectorI4CardNS_9allocatorIS1_EEE7__allocB7v160006Ev, symObjAddr: 0x1D5CC, symBinAddr: 0x100020670, symSize: 0xE4 }
  - { offsetInCU: 0x35D7E, offset: 0x35D7E, size: 0x8, addend: 0x0, symName: __ZNSt3__114numeric_limitsIlE3maxB7v160006Ev, symObjAddr: 0x1D6B0, symBinAddr: 0x100020754, symSize: 0x14 }
  - { offsetInCU: 0x35D9D, offset: 0x35D9D, size: 0x8, addend: 0x0, symName: __ZNKSt3__16__lessImmEclB7v160006ERKmS3_, symObjAddr: 0x1D984, symBinAddr: 0x100020A28, symSize: 0xEC }
  - { offsetInCU: 0x35DDF, offset: 0x35DDF, size: 0x8, addend: 0x0, symName: __ZNKSt3__19allocatorI4CardE8max_sizeB7v160006Ev, symObjAddr: 0x1DA70, symBinAddr: 0x100020B14, symSize: 0x4C }
  - { offsetInCU: 0x35E05, offset: 0x35E05, size: 0x8, addend: 0x0, symName: __ZNKSt3__117__compressed_pairIP4CardNS_9allocatorIS1_EEE6secondB7v160006Ev, symObjAddr: 0x1DABC, symBinAddr: 0x100020B60, symSize: 0x108 }
  - { offsetInCU: 0x35E2B, offset: 0x35E2B, size: 0x8, addend: 0x0, symName: __ZNKSt3__122__compressed_pair_elemINS_9allocatorI4CardEELi1ELb1EE5__getB7v160006Ev, symObjAddr: 0x1DBC4, symBinAddr: 0x100020C68, symSize: 0x74 }
  - { offsetInCU: 0x35E51, offset: 0x35E51, size: 0x8, addend: 0x0, symName: __ZNSt3__123__libcpp_numeric_limitsIlLb1EE3maxB7v160006Ev, symObjAddr: 0x1DC38, symBinAddr: 0x100020CDC, symSize: 0x8 }
  - { offsetInCU: 0x35E65, offset: 0x35E65, size: 0x8, addend: 0x0, symName: __ZNSt12length_errorC1B7v160006EPKc, symObjAddr: 0x1DCF4, symBinAddr: 0x100020D98, symSize: 0x80 }
  - { offsetInCU: 0x35E9D, offset: 0x35E9D, size: 0x8, addend: 0x0, symName: __ZNSt12length_errorC2B7v160006EPKc, symObjAddr: 0x1DD74, symBinAddr: 0x100020E18, symSize: 0x128 }
  - { offsetInCU: 0x35ED5, offset: 0x35ED5, size: 0x8, addend: 0x0, symName: __ZNSt3__117__compressed_pairIP4CardNS_9allocatorIS1_EEE6secondB7v160006Ev, symObjAddr: 0x1DE9C, symBinAddr: 0x100020F40, symSize: 0x108 }
  - { offsetInCU: 0x35EFB, offset: 0x35EFB, size: 0x8, addend: 0x0, symName: __ZNSt3__122__compressed_pair_elemINS_9allocatorI4CardEELi1ELb1EE5__getB7v160006Ev, symObjAddr: 0x1DFA4, symBinAddr: 0x100021048, symSize: 0x74 }
  - { offsetInCU: 0x35F21, offset: 0x35F21, size: 0x8, addend: 0x0, symName: __ZNSt3__114__split_bufferI4CardRNS_9allocatorIS1_EEEC2EmmS4_, symObjAddr: 0x1E018, symBinAddr: 0x1000210BC, symSize: 0x7D8 }
  - { offsetInCU: 0x35F9C, offset: 0x35F9C, size: 0x8, addend: 0x0, symName: __ZNSt3__117__compressed_pairIP4CardRNS_9allocatorIS1_EEEC1B7v160006IDnS5_EEOT_OT0_, symObjAddr: 0x1E7F0, symBinAddr: 0x100021894, symSize: 0x88 }
  - { offsetInCU: 0x35FF4, offset: 0x35FF4, size: 0x8, addend: 0x0, symName: __ZNSt3__114__split_bufferI4CardRNS_9allocatorIS1_EEE7__allocB7v160006Ev, symObjAddr: 0x1EB04, symBinAddr: 0x100021BA8, symSize: 0xE4 }
  - { offsetInCU: 0x3601A, offset: 0x3601A, size: 0x8, addend: 0x0, symName: __ZNSt3__114__split_bufferI4CardRNS_9allocatorIS1_EEE9__end_capB7v160006Ev, symObjAddr: 0x1EBE8, symBinAddr: 0x100021C8C, symSize: 0x100 }
  - { offsetInCU: 0x36040, offset: 0x36040, size: 0x8, addend: 0x0, symName: __ZNSt3__117__compressed_pairIP4CardRNS_9allocatorIS1_EEEC2B7v160006IDnS5_EEOT_OT0_, symObjAddr: 0x1ECE8, symBinAddr: 0x100021D8C, symSize: 0x198 }
  - { offsetInCU: 0x36098, offset: 0x36098, size: 0x8, addend: 0x0, symName: __ZNSt3__122__compressed_pair_elemIRNS_9allocatorI4CardEELi1ELb0EEC2B7v160006IS4_vEEOT_, symObjAddr: 0x1EE80, symBinAddr: 0x100021F24, symSize: 0xEC }
  - { offsetInCU: 0x360DA, offset: 0x360DA, size: 0x8, addend: 0x0, symName: __ZNSt3__19allocatorI4CardE8allocateB7v160006Em, symObjAddr: 0x1EF6C, symBinAddr: 0x100022010, symSize: 0xCC }
  - { offsetInCU: 0x3610E, offset: 0x3610E, size: 0x8, addend: 0x0, symName: __ZNSt3__117__compressed_pairIP4CardRNS_9allocatorIS1_EEE6secondB7v160006Ev, symObjAddr: 0x1F1C4, symBinAddr: 0x100022268, symSize: 0x110 }
  - { offsetInCU: 0x36134, offset: 0x36134, size: 0x8, addend: 0x0, symName: __ZNSt3__122__compressed_pair_elemIRNS_9allocatorI4CardEELi1ELb0EE5__getB7v160006Ev, symObjAddr: 0x1F2D4, symBinAddr: 0x100022378, symSize: 0xD8 }
  - { offsetInCU: 0x3615A, offset: 0x3615A, size: 0x8, addend: 0x0, symName: __ZNSt3__117__compressed_pairIP4CardRNS_9allocatorIS1_EEE5firstB7v160006Ev, symObjAddr: 0x1F3AC, symBinAddr: 0x100022450, symSize: 0x124 }
  - { offsetInCU: 0x36180, offset: 0x36180, size: 0x8, addend: 0x0, symName: __ZNSt3__122__compressed_pair_elemIP4CardLi0ELb0EE5__getB7v160006Ev, symObjAddr: 0x1F4D0, symBinAddr: 0x100022574, symSize: 0xAC }
  - { offsetInCU: 0x361A6, offset: 0x361A6, size: 0x8, addend: 0x0, symName: __ZNKSt3__16vectorI4CardNS_9allocatorIS1_EEE17__annotate_deleteB7v160006Ev, symObjAddr: 0x1F57C, symBinAddr: 0x100022620, symSize: 0x370 }
  - { offsetInCU: 0x361CC, offset: 0x361CC, size: 0x8, addend: 0x0, symName: __ZNSt3__116reverse_iteratorIP4CardEC1B7v160006ES2_, symObjAddr: 0x1FD94, symBinAddr: 0x100022E38, symSize: 0x80 }
  - { offsetInCU: 0x36204, offset: 0x36204, size: 0x8, addend: 0x0, symName: __ZNKSt3__116reverse_iteratorIP4CardE4baseB7v160006Ev, symObjAddr: 0x1FE14, symBinAddr: 0x100022EB8, symSize: 0xB0 }
  - { offsetInCU: 0x3622A, offset: 0x3622A, size: 0x8, addend: 0x0, symName: __ZNSt3__16vectorI4CardNS_9allocatorIS1_EEE9__end_capB7v160006Ev, symObjAddr: 0x20084, symBinAddr: 0x100023128, symSize: 0x100 }
  - { offsetInCU: 0x36250, offset: 0x36250, size: 0x8, addend: 0x0, symName: __ZNKSt3__16vectorI4CardNS_9allocatorIS1_EEE14__annotate_newB7v160006Em, symObjAddr: 0x20184, symBinAddr: 0x100023228, symSize: 0x360 }
  - { offsetInCU: 0x36285, offset: 0x36285, size: 0x8, addend: 0x0, symName: __ZNKSt3__16vectorI4CardNS_9allocatorIS1_EEE31__annotate_contiguous_containerEPKvS6_S6_S6_, symObjAddr: 0x204F4, symBinAddr: 0x100023598, symSize: 0x9C }
  - { offsetInCU: 0x362E7, offset: 0x362E7, size: 0x8, addend: 0x0, symName: __ZNKSt3__16vectorI4CardNS_9allocatorIS1_EEE4dataB7v160006Ev, symObjAddr: 0x20590, symBinAddr: 0x100023634, symSize: 0xB0 }
  - { offsetInCU: 0x36335, offset: 0x36335, size: 0x8, addend: 0x0, symName: __ZNKSt3__111__move_loopINS_17_ClassicAlgPolicyEEclB7v160006INS_16reverse_iteratorIP4CardEES7_S7_EENS_4pairIT_T1_EES9_T0_SA_, symObjAddr: 0x22014, symBinAddr: 0x1000250B8, symSize: 0x370 }
  - { offsetInCU: 0x363B3, offset: 0x363B3, size: 0x8, addend: 0x0, symName: __ZNSt3__18_IterOpsINS_17_ClassicAlgPolicyEE11__iter_moveB7v160006IRNS_16reverse_iteratorIP4CardEEEENS_9enable_ifIXsr12is_referenceIDTdeclsr3stdE7declvalIRT_EEEEE5valueEDTclsr3stdE4movedeclsr3stdE7declvalISB_EEEEE4typeEOSA_, symObjAddr: 0x22FD0, symBinAddr: 0x100026074, symSize: 0xB8 }
  - { offsetInCU: 0x363DF, offset: 0x363DF, size: 0x8, addend: 0x0, symName: __ZNKSt3__116reverse_iteratorIP4CardEdeB7v160006Ev, symObjAddr: 0x23088, symBinAddr: 0x10002612C, symSize: 0x184 }
  - { offsetInCU: 0x36413, offset: 0x36413, size: 0x8, addend: 0x0, symName: __ZNSt3__116reverse_iteratorIP4CardEppB7v160006Ev, symObjAddr: 0x2320C, symBinAddr: 0x1000262B0, symSize: 0x1B0 }
  - { offsetInCU: 0x36439, offset: 0x36439, size: 0x8, addend: 0x0, symName: __ZNSt3__18_IterOpsINS_17_ClassicAlgPolicyEE25__validate_iter_referenceB7v160006IRNS_16reverse_iteratorIP4CardEEEEvv, symObjAddr: 0x233BC, symBinAddr: 0x100026460, symSize: 0x4 }
  - { offsetInCU: 0x36457, offset: 0x36457, size: 0x8, addend: 0x0, symName: __ZNSt3__118__unwrap_iter_implINS_16reverse_iteratorIP4CardEELb0EE8__unwrapB7v160006ES4_, symObjAddr: 0x233C0, symBinAddr: 0x100026464, symSize: 0x274 }
  - { offsetInCU: 0x36484, offset: 0x36484, size: 0x8, addend: 0x0, symName: __ZNSt3__14pairINS_16reverse_iteratorIP4CardEES4_EC1B7v160006IS4_S4_LPv0EEEOT_OT0_, symObjAddr: 0x23634, symBinAddr: 0x1000266D8, symSize: 0x88 }
  - { offsetInCU: 0x364E2, offset: 0x364E2, size: 0x8, addend: 0x0, symName: __ZNSt3__14pairINS_16reverse_iteratorIP4CardEES4_EC2B7v160006IS4_S4_LPv0EEEOT_OT0_, symObjAddr: 0x236BC, symBinAddr: 0x100026760, symSize: 0xA0 }
  - { offsetInCU: 0x36540, offset: 0x36540, size: 0x8, addend: 0x0, symName: __ZNSt3__118__unwrap_iter_implINS_16reverse_iteratorIP4CardEELb0EE8__rewrapB7v160006ES4_S4_, symObjAddr: 0x2375C, symBinAddr: 0x100026800, symSize: 0x2E0 }
  - { offsetInCU: 0x36575, offset: 0x36575, size: 0x8, addend: 0x0, symName: __ZNSt3__116reverse_iteratorIP4CardEC2B7v160006ES2_, symObjAddr: 0x23A3C, symBinAddr: 0x100026AE0, symSize: 0x10C }
  - { offsetInCU: 0x365AD, offset: 0x365AD, size: 0x8, addend: 0x0, symName: __ZNSt3__117__compressed_pairIP4CardNS_9allocatorIS1_EEE5firstB7v160006Ev, symObjAddr: 0x23B48, symBinAddr: 0x100026BEC, symSize: 0x124 }
  - { offsetInCU: 0x365D3, offset: 0x365D3, size: 0x8, addend: 0x0, symName: __ZNSt3__114__split_bufferI4CardRNS_9allocatorIS1_EEED2Ev, symObjAddr: 0x23C6C, symBinAddr: 0x100026D10, symSize: 0x16C }
  - { offsetInCU: 0x365FF, offset: 0x365FF, size: 0x8, addend: 0x0, symName: __ZNSt3__114__split_bufferI4CardRNS_9allocatorIS1_EEE5clearB7v160006Ev, symObjAddr: 0x23DD8, symBinAddr: 0x100026E7C, symSize: 0xB4 }
  - { offsetInCU: 0x36625, offset: 0x36625, size: 0x8, addend: 0x0, symName: __ZNSt3__116allocator_traitsINS_9allocatorI4CardEEE10deallocateB7v160006ERS3_PS2_m, symObjAddr: 0x23E8C, symBinAddr: 0x100026F30, symSize: 0x34 }
  - { offsetInCU: 0x36667, offset: 0x36667, size: 0x8, addend: 0x0, symName: __ZNKSt3__114__split_bufferI4CardRNS_9allocatorIS1_EEE8capacityB7v160006Ev, symObjAddr: 0x23EC0, symBinAddr: 0x100026F64, symSize: 0x144 }
  - { offsetInCU: 0x3668D, offset: 0x3668D, size: 0x8, addend: 0x0, symName: __ZNSt3__114__split_bufferI4CardRNS_9allocatorIS1_EEE17__destruct_at_endB7v160006EPS1_, symObjAddr: 0x24004, symBinAddr: 0x1000270A8, symSize: 0x74 }
  - { offsetInCU: 0x366C1, offset: 0x366C1, size: 0x8, addend: 0x0, symName: __ZNSt3__114__split_bufferI4CardRNS_9allocatorIS1_EEE17__destruct_at_endB7v160006EPS1_NS_17integral_constantIbLb0EEE, symObjAddr: 0x24078, symBinAddr: 0x10002711C, symSize: 0x224 }
  - { offsetInCU: 0x36701, offset: 0x36701, size: 0x8, addend: 0x0, symName: __ZNSt3__116allocator_traitsINS_9allocatorI4CardEEE7destroyB7v160006IS2_vEEvRS3_PT_, symObjAddr: 0x2429C, symBinAddr: 0x100027340, symSize: 0x2C }
  - { offsetInCU: 0x3673E, offset: 0x3673E, size: 0x8, addend: 0x0, symName: __ZNSt3__19allocatorI4CardE7destroyB7v160006EPS1_, symObjAddr: 0x242C8, symBinAddr: 0x10002736C, symSize: 0x4C }
  - { offsetInCU: 0x36772, offset: 0x36772, size: 0x8, addend: 0x0, symName: __ZNSt3__19allocatorI4CardE10deallocateB7v160006EPS1_m, symObjAddr: 0x24314, symBinAddr: 0x1000273B8, symSize: 0x78 }
  - { offsetInCU: 0x367B4, offset: 0x367B4, size: 0x8, addend: 0x0, symName: __ZNKSt3__114__split_bufferI4CardRNS_9allocatorIS1_EEE9__end_capB7v160006Ev, symObjAddr: 0x24494, symBinAddr: 0x100027538, symSize: 0x100 }
  - { offsetInCU: 0x367DA, offset: 0x367DA, size: 0x8, addend: 0x0, symName: __ZNKSt3__117__compressed_pairIP4CardRNS_9allocatorIS1_EEE5firstB7v160006Ev, symObjAddr: 0x24594, symBinAddr: 0x100027638, symSize: 0x124 }
  - { offsetInCU: 0x36800, offset: 0x36800, size: 0x8, addend: 0x0, symName: __ZNSt3__112__hash_tableINS_17__hash_value_typeINS_12basic_stringIcNS_11char_traitsIcEENS_9allocatorIcEEEE5ValueEENS_22__unordered_map_hasherIS7_S9_NS_4hashIS7_EENS_8equal_toIS7_EELb1EEENS_21__unordered_map_equalIS7_S9_SE_SC_Lb1EEENS5_IS9_EEE5beginEv, symObjAddr: 0x246B8, symBinAddr: 0x10002775C, symSize: 0x358 }
  - { offsetInCU: 0x36829, offset: 0x36829, size: 0x8, addend: 0x0, symName: __ZNSt3__119__hash_map_iteratorINS_15__hash_iteratorIPNS_11__hash_nodeINS_17__hash_value_typeINS_12basic_stringIcNS_11char_traitsIcEENS_9allocatorIcEEEE5ValueEEPvEEEEEC1B7v160006ESF_, symObjAddr: 0x24A10, symBinAddr: 0x100027AB4, symSize: 0x28C }
  - { offsetInCU: 0x36867, offset: 0x36867, size: 0x8, addend: 0x0, symName: __ZNSt3__117__compressed_pairINS_16__hash_node_baseIPNS_11__hash_nodeINS_17__hash_value_typeINS_12basic_stringIcNS_11char_traitsIcEENS_9allocatorIcEEEE5ValueEEPvEEEENS7_ISD_EEE5firstB7v160006Ev, symObjAddr: 0x24C9C, symBinAddr: 0x100027D40, symSize: 0x124 }
  - { offsetInCU: 0x3688D, offset: 0x3688D, size: 0x8, addend: 0x0, symName: __ZNSt3__115__hash_iteratorIPNS_11__hash_nodeINS_17__hash_value_typeINS_12basic_stringIcNS_11char_traitsIcEENS_9allocatorIcEEEE5ValueEEPvEEEC1B7v160006EPNS_16__hash_node_baseISD_EEPKv, symObjAddr: 0x24DC0, symBinAddr: 0x100027E64, symSize: 0x88 }
  - { offsetInCU: 0x368D5, offset: 0x368D5, size: 0x8, addend: 0x0, symName: __ZNSt3__122__compressed_pair_elemINS_16__hash_node_baseIPNS_11__hash_nodeINS_17__hash_value_typeINS_12basic_stringIcNS_11char_traitsIcEENS_9allocatorIcEEEE5ValueEEPvEEEELi0ELb0EE5__getB7v160006Ev, symObjAddr: 0x24E48, symBinAddr: 0x100027EEC, symSize: 0xAC }
  - { offsetInCU: 0x368FB, offset: 0x368FB, size: 0x8, addend: 0x0, symName: __ZNSt3__115__hash_iteratorIPNS_11__hash_nodeINS_17__hash_value_typeINS_12basic_stringIcNS_11char_traitsIcEENS_9allocatorIcEEEE5ValueEEPvEEEC2B7v160006EPNS_16__hash_node_baseISD_EEPKv, symObjAddr: 0x24EF4, symBinAddr: 0x100027F98, symSize: 0xCC }
  - { offsetInCU: 0x36943, offset: 0x36943, size: 0x8, addend: 0x0, symName: __ZNSt3__119__hash_map_iteratorINS_15__hash_iteratorIPNS_11__hash_nodeINS_17__hash_value_typeINS_12basic_stringIcNS_11char_traitsIcEENS_9allocatorIcEEEE5ValueEEPvEEEEEC2B7v160006ESF_, symObjAddr: 0x24FC0, symBinAddr: 0x100028064, symSize: 0x25C }
  - { offsetInCU: 0x36981, offset: 0x36981, size: 0x8, addend: 0x0, symName: __ZNKSt3__115__hash_iteratorIPNS_11__hash_nodeINS_17__hash_value_typeINS_12basic_stringIcNS_11char_traitsIcEENS_9allocatorIcEEEE5ValueEEPvEEEptB7v160006Ev, symObjAddr: 0x253F4, symBinAddr: 0x100028498, symSize: 0x190 }
  - { offsetInCU: 0x369A7, offset: 0x369A7, size: 0x8, addend: 0x0, symName: __ZNSt3__117__hash_value_typeINS_12basic_stringIcNS_11char_traitsIcEENS_9allocatorIcEEEE5ValueE11__get_valueB7v160006Ev, symObjAddr: 0x25584, symBinAddr: 0x100028628, symSize: 0xB4 }
  - { offsetInCU: 0x369CD, offset: 0x369CD, size: 0x8, addend: 0x0, symName: __ZNSt3__114pointer_traitsIPNS_17__hash_value_typeINS_12basic_stringIcNS_11char_traitsIcEENS_9allocatorIcEEEE5ValueEEE10pointer_toB7v160006ERS9_, symObjAddr: 0x25638, symBinAddr: 0x1000286DC, symSize: 0x14 }
  - { offsetInCU: 0x369F0, offset: 0x369F0, size: 0x8, addend: 0x0, symName: __ZNSt3__116__hash_node_baseIPNS_11__hash_nodeINS_17__hash_value_typeINS_12basic_stringIcNS_11char_traitsIcEENS_9allocatorIcEEEE5ValueEEPvEEE8__upcastB7v160006Ev, symObjAddr: 0x2564C, symBinAddr: 0x1000286F0, symSize: 0xF8 }
  - { offsetInCU: 0x36A16, offset: 0x36A16, size: 0x8, addend: 0x0, symName: __ZNSt3__114pointer_traitsIPNS_16__hash_node_baseIPNS_11__hash_nodeINS_17__hash_value_typeINS_12basic_stringIcNS_11char_traitsIcEENS_9allocatorIcEEEE5ValueEEPvEEEEE10pointer_toB7v160006ERSF_, symObjAddr: 0x25744, symBinAddr: 0x1000287E8, symSize: 0x14 }
  - { offsetInCU: 0x36A39, offset: 0x36A39, size: 0x8, addend: 0x0, symName: __ZNSt3__14pairIKNS_12basic_stringIcNS_11char_traitsIcEENS_9allocatorIcEEEE5ValueEC2ERKS9_, symObjAddr: 0x25790, symBinAddr: 0x100028834, symSize: 0x1E4 }
  - { offsetInCU: 0x36A6D, offset: 0x36A6D, size: 0x8, addend: 0x0, symName: __ZNSt3__112__hash_tableINS_17__hash_value_typeINS_12basic_stringIcNS_11char_traitsIcEENS_9allocatorIcEEEE4SuitEENS_22__unordered_map_hasherIS7_S9_NS_4hashIS7_EENS_8equal_toIS7_EELb1EEENS_21__unordered_map_equalIS7_S9_SE_SC_Lb1EEENS5_IS9_EEE5beginEv, symObjAddr: 0x25974, symBinAddr: 0x100028A18, symSize: 0x358 }
  - { offsetInCU: 0x36A96, offset: 0x36A96, size: 0x8, addend: 0x0, symName: __ZNSt3__119__hash_map_iteratorINS_15__hash_iteratorIPNS_11__hash_nodeINS_17__hash_value_typeINS_12basic_stringIcNS_11char_traitsIcEENS_9allocatorIcEEEE4SuitEEPvEEEEEC1B7v160006ESF_, symObjAddr: 0x25CCC, symBinAddr: 0x100028D70, symSize: 0x28C }
  - { offsetInCU: 0x36AD4, offset: 0x36AD4, size: 0x8, addend: 0x0, symName: __ZNSt3__117__compressed_pairINS_16__hash_node_baseIPNS_11__hash_nodeINS_17__hash_value_typeINS_12basic_stringIcNS_11char_traitsIcEENS_9allocatorIcEEEE4SuitEEPvEEEENS7_ISD_EEE5firstB7v160006Ev, symObjAddr: 0x25F58, symBinAddr: 0x100028FFC, symSize: 0x124 }
  - { offsetInCU: 0x36AFA, offset: 0x36AFA, size: 0x8, addend: 0x0, symName: __ZNSt3__115__hash_iteratorIPNS_11__hash_nodeINS_17__hash_value_typeINS_12basic_stringIcNS_11char_traitsIcEENS_9allocatorIcEEEE4SuitEEPvEEEC1B7v160006EPNS_16__hash_node_baseISD_EEPKv, symObjAddr: 0x2607C, symBinAddr: 0x100029120, symSize: 0x88 }
  - { offsetInCU: 0x36B42, offset: 0x36B42, size: 0x8, addend: 0x0, symName: __ZNSt3__122__compressed_pair_elemINS_16__hash_node_baseIPNS_11__hash_nodeINS_17__hash_value_typeINS_12basic_stringIcNS_11char_traitsIcEENS_9allocatorIcEEEE4SuitEEPvEEEELi0ELb0EE5__getB7v160006Ev, symObjAddr: 0x26104, symBinAddr: 0x1000291A8, symSize: 0xAC }
  - { offsetInCU: 0x36B68, offset: 0x36B68, size: 0x8, addend: 0x0, symName: __ZNSt3__115__hash_iteratorIPNS_11__hash_nodeINS_17__hash_value_typeINS_12basic_stringIcNS_11char_traitsIcEENS_9allocatorIcEEEE4SuitEEPvEEEC2B7v160006EPNS_16__hash_node_baseISD_EEPKv, symObjAddr: 0x261B0, symBinAddr: 0x100029254, symSize: 0xCC }
  - { offsetInCU: 0x36BB0, offset: 0x36BB0, size: 0x8, addend: 0x0, symName: __ZNSt3__119__hash_map_iteratorINS_15__hash_iteratorIPNS_11__hash_nodeINS_17__hash_value_typeINS_12basic_stringIcNS_11char_traitsIcEENS_9allocatorIcEEEE4SuitEEPvEEEEEC2B7v160006ESF_, symObjAddr: 0x2627C, symBinAddr: 0x100029320, symSize: 0x25C }
  - { offsetInCU: 0x36BEE, offset: 0x36BEE, size: 0x8, addend: 0x0, symName: __ZNKSt3__115__hash_iteratorIPNS_11__hash_nodeINS_17__hash_value_typeINS_12basic_stringIcNS_11char_traitsIcEENS_9allocatorIcEEEE4SuitEEPvEEEptB7v160006Ev, symObjAddr: 0x266B0, symBinAddr: 0x100029754, symSize: 0x190 }
  - { offsetInCU: 0x36C14, offset: 0x36C14, size: 0x8, addend: 0x0, symName: __ZNSt3__117__hash_value_typeINS_12basic_stringIcNS_11char_traitsIcEENS_9allocatorIcEEEE4SuitE11__get_valueB7v160006Ev, symObjAddr: 0x26840, symBinAddr: 0x1000298E4, symSize: 0xB4 }
  - { offsetInCU: 0x36C3A, offset: 0x36C3A, size: 0x8, addend: 0x0, symName: __ZNSt3__114pointer_traitsIPNS_17__hash_value_typeINS_12basic_stringIcNS_11char_traitsIcEENS_9allocatorIcEEEE4SuitEEE10pointer_toB7v160006ERS9_, symObjAddr: 0x268F4, symBinAddr: 0x100029998, symSize: 0x14 }
  - { offsetInCU: 0x36C5D, offset: 0x36C5D, size: 0x8, addend: 0x0, symName: __ZNSt3__116__hash_node_baseIPNS_11__hash_nodeINS_17__hash_value_typeINS_12basic_stringIcNS_11char_traitsIcEENS_9allocatorIcEEEE4SuitEEPvEEE8__upcastB7v160006Ev, symObjAddr: 0x26908, symBinAddr: 0x1000299AC, symSize: 0xF8 }
  - { offsetInCU: 0x36C83, offset: 0x36C83, size: 0x8, addend: 0x0, symName: __ZNSt3__114pointer_traitsIPNS_16__hash_node_baseIPNS_11__hash_nodeINS_17__hash_value_typeINS_12basic_stringIcNS_11char_traitsIcEENS_9allocatorIcEEEE4SuitEEPvEEEEE10pointer_toB7v160006ERSF_, symObjAddr: 0x26A00, symBinAddr: 0x100029AA4, symSize: 0x14 }
  - { offsetInCU: 0x36CA6, offset: 0x36CA6, size: 0x8, addend: 0x0, symName: __ZNSt3__14pairIKNS_12basic_stringIcNS_11char_traitsIcEENS_9allocatorIcEEEE4SuitEC2ERKS9_, symObjAddr: 0x26A4C, symBinAddr: 0x100029AF0, symSize: 0x1E4 }
  - { offsetInCU: 0x36CDA, offset: 0x36CDA, size: 0x8, addend: 0x0, symName: __ZNSt3__16vectorI4CardNS_9allocatorIS1_EEE22__construct_one_at_endB7v160006IJR5ValueR4SuitEEEvDpOT_, symObjAddr: 0x26C30, symBinAddr: 0x100029CD4, symSize: 0x5A0 }
  - { offsetInCU: 0x36D44, offset: 0x36D44, size: 0x8, addend: 0x0, symName: __ZNSt3__16vectorI4CardNS_9allocatorIS1_EEE24__emplace_back_slow_pathIJR5ValueR4SuitEEEvDpOT_, symObjAddr: 0x271D0, symBinAddr: 0x10002A274, symSize: 0x600 }
  - { offsetInCU: 0x36DDC, offset: 0x36DDC, size: 0x8, addend: 0x0, symName: __ZNSt3__16vectorI4CardNS_9allocatorIS1_EEE21_ConstructTransactionC1B7v160006ERS4_m, symObjAddr: 0x277D0, symBinAddr: 0x10002A874, symSize: 0x88 }
  - { offsetInCU: 0x36E24, offset: 0x36E24, size: 0x8, addend: 0x0, symName: __ZNSt3__116allocator_traitsINS_9allocatorI4CardEEE9constructB7v160006IS2_JR5ValueR4SuitEvEEvRS3_PT_DpOT0_, symObjAddr: 0x27858, symBinAddr: 0x10002A8FC, symSize: 0xDC }
  - { offsetInCU: 0x36E8F, offset: 0x36E8F, size: 0x8, addend: 0x0, symName: __ZNSt3__16vectorI4CardNS_9allocatorIS1_EEE21_ConstructTransactionD1B7v160006Ev, symObjAddr: 0x27934, symBinAddr: 0x10002A9D8, symSize: 0x78 }
  - { offsetInCU: 0x36EB9, offset: 0x36EB9, size: 0x8, addend: 0x0, symName: __ZNSt3__16vectorI4CardNS_9allocatorIS1_EEE21_ConstructTransactionC2B7v160006ERS4_m, symObjAddr: 0x279AC, symBinAddr: 0x10002AA50, symSize: 0x3D8 }
  - { offsetInCU: 0x36F01, offset: 0x36F01, size: 0x8, addend: 0x0, symName: __ZNKSt3__16vectorI4CardNS_9allocatorIS1_EEE19__annotate_increaseB7v160006Em, symObjAddr: 0x27D84, symBinAddr: 0x10002AE28, symSize: 0x44C }
  - { offsetInCU: 0x36F36, offset: 0x36F36, size: 0x8, addend: 0x0, symName: __ZNSt3__19allocatorI4CardE9constructB7v160006IS1_JR5ValueR4SuitEEEvPT_DpOT0_, symObjAddr: 0x281D0, symBinAddr: 0x10002B274, symSize: 0x20C }
  - { offsetInCU: 0x36F9F, offset: 0x36F9F, size: 0x8, addend: 0x0, symName: __ZNSt3__16vectorI4CardNS_9allocatorIS1_EEE21_ConstructTransactionD2B7v160006Ev, symObjAddr: 0x283DC, symBinAddr: 0x10002B480, symSize: 0x390 }
  - { offsetInCU: 0x36FC9, offset: 0x36FC9, size: 0x8, addend: 0x0, symName: __ZNKSt3__16vectorI4CardNS_9allocatorIS1_EEE17__annotate_shrinkB7v160006Em, symObjAddr: 0x2876C, symBinAddr: 0x10002B810, symSize: 0x360 }
  - { offsetInCU: 0x36FFE, offset: 0x36FFE, size: 0x8, addend: 0x0, symName: __ZNKSt3__16vectorI4CardNS_9allocatorIS1_EEE11__recommendB7v160006Em, symObjAddr: 0x28ACC, symBinAddr: 0x10002BB70, symSize: 0x45C }
  - { offsetInCU: 0x3705A, offset: 0x3705A, size: 0x8, addend: 0x0, symName: __ZNSt3__115__hash_iteratorIPNS_11__hash_nodeINS_17__hash_value_typeINS_12basic_stringIcNS_11char_traitsIcEENS_9allocatorIcEEEE4SuitEEPvEEEppB7v160006Ev, symObjAddr: 0x292EC, symBinAddr: 0x10002C390, symSize: 0x1F0 }
  - { offsetInCU: 0x37080, offset: 0x37080, size: 0x8, addend: 0x0, symName: __ZNSt3__115__hash_iteratorIPNS_11__hash_nodeINS_17__hash_value_typeINS_12basic_stringIcNS_11char_traitsIcEENS_9allocatorIcEEEE5ValueEEPvEEEppB7v160006Ev, symObjAddr: 0x294DC, symBinAddr: 0x10002C580, symSize: 0x1F0 }
  - { offsetInCU: 0x370A6, offset: 0x370A6, size: 0x8, addend: 0x0, symName: __ZN4Game4DeckD2Ev, symObjAddr: 0x296CC, symBinAddr: 0x10002C770, symSize: 0x78 }
  - { offsetInCU: 0x370D2, offset: 0x370D2, size: 0x8, addend: 0x0, symName: __ZN4Game4DeckC2ERK4CardS3_, symObjAddr: 0x29744, symBinAddr: 0x10002C7E8, symSize: 0xED8 }
  - { offsetInCU: 0x371C2, offset: 0x371C2, size: 0x8, addend: 0x0, symName: __ZNSt3__124uniform_int_distributionIiEclINS_13random_deviceEEEiRT_, symObjAddr: 0x2A61C, symBinAddr: 0x10002D6C0, symSize: 0x148 }
  - { offsetInCU: 0x371FF, offset: 0x371FF, size: 0x8, addend: 0x0, symName: __ZNKSt3__124uniform_int_distributionIiE10param_type1bEv, symObjAddr: 0x2AD44, symBinAddr: 0x10002DDE8, symSize: 0xD8 }
  - { offsetInCU: 0x37225, offset: 0x37225, size: 0x8, addend: 0x0, symName: __ZNKSt3__124uniform_int_distributionIiE10param_type1aEv, symObjAddr: 0x2AE1C, symBinAddr: 0x10002DEC0, symSize: 0xD4 }
  - { offsetInCU: 0x3724B, offset: 0x3724B, size: 0x8, addend: 0x0, symName: __ZNSt3__125__independent_bits_engineINS_13random_deviceEjEC1ERS1_m, symObjAddr: 0x2AEF0, symBinAddr: 0x10002DF94, symSize: 0x88 }
  - { offsetInCU: 0x37292, offset: 0x37292, size: 0x8, addend: 0x0, symName: __ZNSt3__125__independent_bits_engineINS_13random_deviceEjEclEv, symObjAddr: 0x2AF78, symBinAddr: 0x10002E01C, symSize: 0x6C }
  - { offsetInCU: 0x372B8, offset: 0x372B8, size: 0x8, addend: 0x0, symName: __ZNSt3__114numeric_limitsIjE3maxB7v160006Ev, symObjAddr: 0x2B070, symBinAddr: 0x10002E114, symSize: 0x14 }
  - { offsetInCU: 0x372CC, offset: 0x372CC, size: 0x8, addend: 0x0, symName: __ZNSt3__125__independent_bits_engineINS_13random_deviceEjEC2ERS1_m, symObjAddr: 0x2B084, symBinAddr: 0x10002E128, symSize: 0xE98 }
  - { offsetInCU: 0x37313, offset: 0x37313, size: 0x8, addend: 0x0, symName: __ZNSt3__125__independent_bits_engineINS_13random_deviceEjE6__evalENS_17integral_constantIbLb0EEE, symObjAddr: 0x2BF1C, symBinAddr: 0x10002EFC0, symSize: 0x168 }
  - { offsetInCU: 0x37344, offset: 0x37344, size: 0x8, addend: 0x0, symName: __ZNSt3__123__libcpp_numeric_limitsIjLb1EE3maxB7v160006Ev, symObjAddr: 0x2C09C, symBinAddr: 0x10002F140, symSize: 0x8 }
  - { offsetInCU: 0x37358, offset: 0x37358, size: 0x8, addend: 0x0, symName: __ZNSt3__14pairI4CardS1_EC2B7v160006IKS1_S4_LPv0EEEOT_OT0_, symObjAddr: 0x2C0A4, symBinAddr: 0x10002F148, symSize: 0xA0 }
  - { offsetInCU: 0x373B6, offset: 0x373B6, size: 0x8, addend: 0x0, symName: __ZN8CheckWinC2ENSt3__16vectorI4CardNS0_9allocatorIS2_EEEE, symObjAddr: 0x2C144, symBinAddr: 0x10002F1E8, symSize: 0x90C }
  - { offsetInCU: 0x37461, offset: 0x37461, size: 0x8, addend: 0x0, symName: __ZNSt3__113unordered_mapI5ValueiNS_4hashIS1_EENS_8equal_toIS1_EENS_9allocatorINS_4pairIKS1_iEEEEEC1B7v160006Ev, symObjAddr: 0x2CA50, symBinAddr: 0x10002FAF4, symSize: 0x78 }
  - { offsetInCU: 0x3748B, offset: 0x3748B, size: 0x8, addend: 0x0, symName: __ZNKSt3__111__wrap_iterIP4CardEdeB7v160006Ev, symObjAddr: 0x2CEF8, symBinAddr: 0x10002FF9C, symSize: 0xF4 }
  - { offsetInCU: 0x374B1, offset: 0x374B1, size: 0x8, addend: 0x0, symName: __ZN8CheckWin3addER4Card, symObjAddr: 0x2CFEC, symBinAddr: 0x100030090, symSize: 0x7CC }
  - { offsetInCU: 0x374E5, offset: 0x374E5, size: 0x8, addend: 0x0, symName: __ZNSt3__111__wrap_iterIP4CardEppB7v160006Ev, symObjAddr: 0x2D7B8, symBinAddr: 0x10003085C, symSize: 0x1A8 }
  - { offsetInCU: 0x3750B, offset: 0x3750B, size: 0x8, addend: 0x0, symName: __ZNSt3__113unordered_mapI5ValueiNS_4hashIS1_EENS_8equal_toIS1_EENS_9allocatorINS_4pairIKS1_iEEEEED1B7v160006Ev, symObjAddr: 0x2D960, symBinAddr: 0x100030A04, symSize: 0x78 }
  - { offsetInCU: 0x37535, offset: 0x37535, size: 0x8, addend: 0x0, symName: __ZNSt3__113unordered_mapI5ValueiNS_4hashIS1_EENS_8equal_toIS1_EENS_9allocatorINS_4pairIKS1_iEEEEEC2B7v160006Ev, symObjAddr: 0x2D9D8, symBinAddr: 0x100030A7C, symSize: 0x94 }
  - { offsetInCU: 0x3755F, offset: 0x3755F, size: 0x8, addend: 0x0, symName: __ZNSt3__112__hash_tableINS_17__hash_value_typeI5ValueiEENS_22__unordered_map_hasherIS2_S3_NS_4hashIS2_EENS_8equal_toIS2_EELb1EEENS_21__unordered_map_equalIS2_S3_S8_S6_Lb1EEENS_9allocatorIS3_EEEC1Ev, symObjAddr: 0x2DA6C, symBinAddr: 0x100030B10, symSize: 0x78 }
  - { offsetInCU: 0x3758B, offset: 0x3758B, size: 0x8, addend: 0x0, symName: __ZNSt3__112__hash_tableINS_17__hash_value_typeI5ValueiEENS_22__unordered_map_hasherIS2_S3_NS_4hashIS2_EENS_8equal_toIS2_EELb1EEENS_21__unordered_map_equalIS2_S3_S8_S6_Lb1EEENS_9allocatorIS3_EEEC2Ev, symObjAddr: 0x2DAF4, symBinAddr: 0x100030B98, symSize: 0x3E0 }
  - { offsetInCU: 0x375B8, offset: 0x375B8, size: 0x8, addend: 0x0, symName: __ZNSt3__110unique_ptrIA_PNS_16__hash_node_baseIPNS_11__hash_nodeINS_17__hash_value_typeI5ValueiEEPvEEEENS_25__bucket_list_deallocatorINS_9allocatorISA_EEEEEC1B7v160006ILb1EvEEv, symObjAddr: 0x2DED4, symBinAddr: 0x100030F78, symSize: 0x78 }
  - { offsetInCU: 0x375ED, offset: 0x375ED, size: 0x8, addend: 0x0, symName: __ZNSt3__117__compressed_pairINS_16__hash_node_baseIPNS_11__hash_nodeINS_17__hash_value_typeI5ValueiEEPvEEEENS_9allocatorIS7_EEEC1B7v160006ILb1EvEEv, symObjAddr: 0x2DF4C, symBinAddr: 0x100030FF0, symSize: 0x78 }
  - { offsetInCU: 0x37622, offset: 0x37622, size: 0x8, addend: 0x0, symName: __ZNSt3__117__compressed_pairImNS_22__unordered_map_hasherI5ValueNS_17__hash_value_typeIS2_iEENS_4hashIS2_EENS_8equal_toIS2_EELb1EEEEC1B7v160006IiNS_18__default_init_tagEEEOT_OT0_, symObjAddr: 0x2DFC4, symBinAddr: 0x100031068, symSize: 0x88 }
  - { offsetInCU: 0x37680, offset: 0x37680, size: 0x8, addend: 0x0, symName: __ZNSt3__117__compressed_pairIfNS_21__unordered_map_equalI5ValueNS_17__hash_value_typeIS2_iEENS_8equal_toIS2_EENS_4hashIS2_EELb1EEEEC1B7v160006IfNS_18__default_init_tagEEEOT_OT0_, symObjAddr: 0x2E04C, symBinAddr: 0x1000310F0, symSize: 0x88 }
  - { offsetInCU: 0x376D8, offset: 0x376D8, size: 0x8, addend: 0x0, symName: __ZNSt3__110unique_ptrIA_PNS_16__hash_node_baseIPNS_11__hash_nodeINS_17__hash_value_typeI5ValueiEEPvEEEENS_25__bucket_list_deallocatorINS_9allocatorISA_EEEEEC2B7v160006ILb1EvEEv, symObjAddr: 0x2E0D4, symBinAddr: 0x100031178, symSize: 0x268 }
  - { offsetInCU: 0x37714, offset: 0x37714, size: 0x8, addend: 0x0, symName: __ZNSt3__117__compressed_pairIPPNS_16__hash_node_baseIPNS_11__hash_nodeINS_17__hash_value_typeI5ValueiEEPvEEEENS_25__bucket_list_deallocatorINS_9allocatorISA_EEEEEC1B7v160006INS_16__value_init_tagESI_EEOT_OT0_, symObjAddr: 0x2E33C, symBinAddr: 0x1000313E0, symSize: 0x88 }
  - { offsetInCU: 0x3776C, offset: 0x3776C, size: 0x8, addend: 0x0, symName: __ZNSt3__117__compressed_pairIPPNS_16__hash_node_baseIPNS_11__hash_nodeINS_17__hash_value_typeI5ValueiEEPvEEEENS_25__bucket_list_deallocatorINS_9allocatorISA_EEEEEC2B7v160006INS_16__value_init_tagESI_EEOT_OT0_, symObjAddr: 0x2E3C4, symBinAddr: 0x100031468, symSize: 0x118 }
  - { offsetInCU: 0x377C4, offset: 0x377C4, size: 0x8, addend: 0x0, symName: __ZNSt3__122__compressed_pair_elemIPPNS_16__hash_node_baseIPNS_11__hash_nodeINS_17__hash_value_typeI5ValueiEEPvEEEELi0ELb0EEC2B7v160006ENS_16__value_init_tagE, symObjAddr: 0x2E4DC, symBinAddr: 0x100031580, symSize: 0xB8 }
  - { offsetInCU: 0x377F8, offset: 0x377F8, size: 0x8, addend: 0x0, symName: __ZNSt3__122__compressed_pair_elemINS_25__bucket_list_deallocatorINS_9allocatorIPNS_16__hash_node_baseIPNS_11__hash_nodeINS_17__hash_value_typeI5ValueiEEPvEEEEEEEELi1ELb0EEC2B7v160006ENS_16__value_init_tagE, symObjAddr: 0x2E594, symBinAddr: 0x100031638, symSize: 0x78 }
  - { offsetInCU: 0x3782C, offset: 0x3782C, size: 0x8, addend: 0x0, symName: __ZNSt3__125__bucket_list_deallocatorINS_9allocatorIPNS_16__hash_node_baseIPNS_11__hash_nodeINS_17__hash_value_typeI5ValueiEEPvEEEEEEEC1B7v160006Ev, symObjAddr: 0x2E60C, symBinAddr: 0x1000316B0, symSize: 0x78 }
  - { offsetInCU: 0x37856, offset: 0x37856, size: 0x8, addend: 0x0, symName: __ZNSt3__125__bucket_list_deallocatorINS_9allocatorIPNS_16__hash_node_baseIPNS_11__hash_nodeINS_17__hash_value_typeI5ValueiEEPvEEEEEEEC2B7v160006Ev, symObjAddr: 0x2E684, symBinAddr: 0x100031728, symSize: 0x2CC }
  - { offsetInCU: 0x37881, offset: 0x37881, size: 0x8, addend: 0x0, symName: __ZNSt3__117__compressed_pairImNS_9allocatorIPNS_16__hash_node_baseIPNS_11__hash_nodeINS_17__hash_value_typeI5ValueiEEPvEEEEEEEC1B7v160006IiNS_18__default_init_tagEEEOT_OT0_, symObjAddr: 0x2E950, symBinAddr: 0x1000319F4, symSize: 0x88 }
  - { offsetInCU: 0x378D9, offset: 0x378D9, size: 0x8, addend: 0x0, symName: __ZNSt3__117__compressed_pairImNS_9allocatorIPNS_16__hash_node_baseIPNS_11__hash_nodeINS_17__hash_value_typeI5ValueiEEPvEEEEEEEC2B7v160006IiNS_18__default_init_tagEEEOT_OT0_, symObjAddr: 0x2E9D8, symBinAddr: 0x100031A7C, symSize: 0x140 }
  - { offsetInCU: 0x37931, offset: 0x37931, size: 0x8, addend: 0x0, symName: __ZNSt3__122__compressed_pair_elemImLi0ELb0EEC2B7v160006IivEEOT_, symObjAddr: 0x2EB18, symBinAddr: 0x100031BBC, symSize: 0x16C }
  - { offsetInCU: 0x37973, offset: 0x37973, size: 0x8, addend: 0x0, symName: __ZNSt3__122__compressed_pair_elemINS_9allocatorIPNS_16__hash_node_baseIPNS_11__hash_nodeINS_17__hash_value_typeI5ValueiEEPvEEEEEELi1ELb1EEC2B7v160006ENS_18__default_init_tagE, symObjAddr: 0x2EC84, symBinAddr: 0x100031D28, symSize: 0x84 }
  - { offsetInCU: 0x379A7, offset: 0x379A7, size: 0x8, addend: 0x0, symName: __ZNSt3__19allocatorIPNS_16__hash_node_baseIPNS_11__hash_nodeINS_17__hash_value_typeI5ValueiEEPvEEEEEC2B7v160006Ev, symObjAddr: 0x2ED08, symBinAddr: 0x100031DAC, symSize: 0x84 }
  - { offsetInCU: 0x379D1, offset: 0x379D1, size: 0x8, addend: 0x0, symName: __ZNSt3__116__non_trivial_ifILb1ENS_9allocatorIPNS_16__hash_node_baseIPNS_11__hash_nodeINS_17__hash_value_typeI5ValueiEEPvEEEEEEEC2B7v160006Ev, symObjAddr: 0x2ED8C, symBinAddr: 0x100031E30, symSize: 0x54 }
  - { offsetInCU: 0x379FB, offset: 0x379FB, size: 0x8, addend: 0x0, symName: __ZNSt3__117__compressed_pairINS_16__hash_node_baseIPNS_11__hash_nodeINS_17__hash_value_typeI5ValueiEEPvEEEENS_9allocatorIS7_EEEC2B7v160006ILb1EvEEv, symObjAddr: 0x2EDE0, symBinAddr: 0x100031E84, symSize: 0xEC }
  - { offsetInCU: 0x37A30, offset: 0x37A30, size: 0x8, addend: 0x0, symName: __ZNSt3__122__compressed_pair_elemINS_16__hash_node_baseIPNS_11__hash_nodeINS_17__hash_value_typeI5ValueiEEPvEEEELi0ELb0EEC2B7v160006ENS_16__value_init_tagE, symObjAddr: 0x2EECC, symBinAddr: 0x100031F70, symSize: 0x78 }
  - { offsetInCU: 0x37A64, offset: 0x37A64, size: 0x8, addend: 0x0, symName: __ZNSt3__122__compressed_pair_elemINS_9allocatorINS_11__hash_nodeINS_17__hash_value_typeI5ValueiEEPvEEEELi1ELb1EEC2B7v160006ENS_16__value_init_tagE, symObjAddr: 0x2EF44, symBinAddr: 0x100031FE8, symSize: 0x84 }
  - { offsetInCU: 0x37A98, offset: 0x37A98, size: 0x8, addend: 0x0, symName: __ZNSt3__116__hash_node_baseIPNS_11__hash_nodeINS_17__hash_value_typeI5ValueiEEPvEEEC1B7v160006Ev, symObjAddr: 0x2EFC8, symBinAddr: 0x10003206C, symSize: 0x78 }
  - { offsetInCU: 0x37AC2, offset: 0x37AC2, size: 0x8, addend: 0x0, symName: __ZNSt3__116__hash_node_baseIPNS_11__hash_nodeINS_17__hash_value_typeI5ValueiEEPvEEEC2B7v160006Ev, symObjAddr: 0x2F040, symBinAddr: 0x1000320E4, symSize: 0xB8 }
  - { offsetInCU: 0x37AEC, offset: 0x37AEC, size: 0x8, addend: 0x0, symName: __ZNSt3__19allocatorINS_11__hash_nodeINS_17__hash_value_typeI5ValueiEEPvEEEC2B7v160006Ev, symObjAddr: 0x2F0F8, symBinAddr: 0x10003219C, symSize: 0x84 }
  - { offsetInCU: 0x37B16, offset: 0x37B16, size: 0x8, addend: 0x0, symName: __ZNSt3__116__non_trivial_ifILb1ENS_9allocatorINS_11__hash_nodeINS_17__hash_value_typeI5ValueiEEPvEEEEEC2B7v160006Ev, symObjAddr: 0x2F17C, symBinAddr: 0x100032220, symSize: 0x54 }
  - { offsetInCU: 0x37B40, offset: 0x37B40, size: 0x8, addend: 0x0, symName: __ZNSt3__117__compressed_pairImNS_22__unordered_map_hasherI5ValueNS_17__hash_value_typeIS2_iEENS_4hashIS2_EENS_8equal_toIS2_EELb1EEEEC2B7v160006IiNS_18__default_init_tagEEEOT_OT0_, symObjAddr: 0x2F1D0, symBinAddr: 0x100032274, symSize: 0x140 }
  - { offsetInCU: 0x37B98, offset: 0x37B98, size: 0x8, addend: 0x0, symName: __ZNSt3__122__compressed_pair_elemINS_22__unordered_map_hasherI5ValueNS_17__hash_value_typeIS2_iEENS_4hashIS2_EENS_8equal_toIS2_EELb1EEELi1ELb1EEC2B7v160006ENS_18__default_init_tagE, symObjAddr: 0x2F310, symBinAddr: 0x1000323B4, symSize: 0x84 }
  - { offsetInCU: 0x37BCC, offset: 0x37BCC, size: 0x8, addend: 0x0, symName: __ZNSt3__122__unordered_map_hasherI5ValueNS_17__hash_value_typeIS1_iEENS_4hashIS1_EENS_8equal_toIS1_EELb1EEC2B7v160006Ev, symObjAddr: 0x2F394, symBinAddr: 0x100032438, symSize: 0x54 }
  - { offsetInCU: 0x37BF6, offset: 0x37BF6, size: 0x8, addend: 0x0, symName: __ZNSt3__117__compressed_pairIfNS_21__unordered_map_equalI5ValueNS_17__hash_value_typeIS2_iEENS_8equal_toIS2_EENS_4hashIS2_EELb1EEEEC2B7v160006IfNS_18__default_init_tagEEEOT_OT0_, symObjAddr: 0x2F3E8, symBinAddr: 0x10003248C, symSize: 0x140 }
  - { offsetInCU: 0x37C4E, offset: 0x37C4E, size: 0x8, addend: 0x0, symName: __ZNSt3__122__compressed_pair_elemIfLi0ELb0EEC2B7v160006IfvEEOT_, symObjAddr: 0x2F528, symBinAddr: 0x1000325CC, symSize: 0x194 }
  - { offsetInCU: 0x37C90, offset: 0x37C90, size: 0x8, addend: 0x0, symName: __ZNSt3__122__compressed_pair_elemINS_21__unordered_map_equalI5ValueNS_17__hash_value_typeIS2_iEENS_8equal_toIS2_EENS_4hashIS2_EELb1EEELi1ELb1EEC2B7v160006ENS_18__default_init_tagE, symObjAddr: 0x2F6BC, symBinAddr: 0x100032760, symSize: 0x84 }
  - { offsetInCU: 0x37CC4, offset: 0x37CC4, size: 0x8, addend: 0x0, symName: __ZNSt3__121__unordered_map_equalI5ValueNS_17__hash_value_typeIS1_iEENS_8equal_toIS1_EENS_4hashIS1_EELb1EEC2B7v160006Ev, symObjAddr: 0x2F740, symBinAddr: 0x1000327E4, symSize: 0x54 }
  - { offsetInCU: 0x37CF4, offset: 0x37CF4, size: 0x8, addend: 0x0, symName: __ZNSt3__116_UnwrapAlgPolicyIRZN8CheckWinC1ENS_6vectorI4CardNS_9allocatorIS3_EEEEEUlRS3_S7_E_E10__get_compB7v160006ES9_, symObjAddr: 0x302B8, symBinAddr: 0x10003335C, symSize: 0x4C }
  - { offsetInCU: 0x37D22, offset: 0x37D22, size: 0x8, addend: 0x0, symName: __ZZN8CheckWinC1ENSt3__16vectorI4CardNS0_9allocatorIS2_EEEEENKUlRS2_S6_E_clES6_S6_, symObjAddr: 0x342BC, symBinAddr: 0x100037360, symSize: 0xC4 }
  - { offsetInCU: 0x37D68, offset: 0x37D68, size: 0x8, addend: 0x0, symName: __ZNSt3__18_IterOpsINS_17_ClassicAlgPolicyEE9iter_swapB7v160006IRP4CardS6_EEvOT_OT0_, symObjAddr: 0x34380, symBinAddr: 0x100037424, symSize: 0x13C }
  - { offsetInCU: 0x37DAB, offset: 0x37DAB, size: 0x8, addend: 0x0, symName: __ZN4CardltERKS_, symObjAddr: 0x37578, symBinAddr: 0x10003A61C, symSize: 0x210 }
  - { offsetInCU: 0x37DDF, offset: 0x37DDF, size: 0x8, addend: 0x0, symName: __ZNSt3__18_IterOpsINS_17_ClassicAlgPolicyEE11__iter_moveB7v160006IRP4CardEENS_9enable_ifIXsr12is_referenceIDTdeclsr3stdE7declvalIRT_EEEEE5valueEDTclsr3stdE4movedeclsr3stdE7declvalIS9_EEEEE4typeEOS8_, symObjAddr: 0x38084, symBinAddr: 0x10003B128, symSize: 0xF8 }
  - { offsetInCU: 0x37E0B, offset: 0x37E0B, size: 0x8, addend: 0x0, symName: __ZNSt3__18_IterOpsINS_17_ClassicAlgPolicyEE25__validate_iter_referenceB7v160006IRP4CardEEvv, symObjAddr: 0x3817C, symBinAddr: 0x10003B220, symSize: 0x4 }
  - { offsetInCU: 0x37E29, offset: 0x37E29, size: 0x8, addend: 0x0, symName: __ZNSt3__18_IterOpsINS_17_ClassicAlgPolicyEE4nextB7v160006IP4CardEET_S6_S6_, symObjAddr: 0x38180, symBinAddr: 0x10003B224, symSize: 0x18 }
  - { offsetInCU: 0x37E5F, offset: 0x37E5F, size: 0x8, addend: 0x0, symName: __ZNSt3__118__unwrap_iter_implINS_11__wrap_iterIP4CardEELb1EE8__unwrapB7v160006ES4_, symObjAddr: 0x3C24C, symBinAddr: 0x10003F2F0, symSize: 0x1F0 }
  - { offsetInCU: 0x37E92, offset: 0x37E92, size: 0x8, addend: 0x0, symName: __ZNSt3__119__to_address_helperINS_11__wrap_iterIP4CardEEvE6__callB7v160006ERKS4_, symObjAddr: 0x3C4A8, symBinAddr: 0x10003F54C, symSize: 0x200 }
  - { offsetInCU: 0x37EB6, offset: 0x37EB6, size: 0x8, addend: 0x0, symName: __ZNSt3__114pointer_traitsINS_11__wrap_iterIP4CardEEE10to_addressB7v160006ES4_, symObjAddr: 0x3C6A8, symBinAddr: 0x10003F74C, symSize: 0x1F4 }
  - { offsetInCU: 0x37EDE, offset: 0x37EDE, size: 0x8, addend: 0x0, symName: __ZNKSt3__111__wrap_iterIP4CardE4baseB7v160006Ev, symObjAddr: 0x3C89C, symBinAddr: 0x10003F940, symSize: 0xAC }
  - { offsetInCU: 0x37F04, offset: 0x37F04, size: 0x8, addend: 0x0, symName: __ZNSt3__113unordered_mapI5ValueiNS_4hashIS1_EENS_8equal_toIS1_EENS_9allocatorINS_4pairIKS1_iEEEEED2B7v160006Ev, symObjAddr: 0x3C9E4, symBinAddr: 0x10003FA88, symSize: 0x78 }
  - { offsetInCU: 0x37F2E, offset: 0x37F2E, size: 0x8, addend: 0x0, symName: __ZNSt3__112__hash_tableINS_17__hash_value_typeI5ValueiEENS_22__unordered_map_hasherIS2_S3_NS_4hashIS2_EENS_8equal_toIS2_EELb1EEENS_21__unordered_map_equalIS2_S3_S8_S6_Lb1EEENS_9allocatorIS3_EEED1Ev, symObjAddr: 0x3CA5C, symBinAddr: 0x10003FB00, symSize: 0x78 }
  - { offsetInCU: 0x37F5A, offset: 0x37F5A, size: 0x8, addend: 0x0, symName: __ZNSt3__112__hash_tableINS_17__hash_value_typeI5ValueiEENS_22__unordered_map_hasherIS2_S3_NS_4hashIS2_EENS_8equal_toIS2_EELb1EEENS_21__unordered_map_equalIS2_S3_S8_S6_Lb1EEENS_9allocatorIS3_EEED2Ev, symObjAddr: 0x3CAD4, symBinAddr: 0x10003FB78, symSize: 0x1C0 }
  - { offsetInCU: 0x37F86, offset: 0x37F86, size: 0x8, addend: 0x0, symName: __ZNSt3__112__hash_tableINS_17__hash_value_typeI5ValueiEENS_22__unordered_map_hasherIS2_S3_NS_4hashIS2_EENS_8equal_toIS2_EELb1EEENS_21__unordered_map_equalIS2_S3_S8_S6_Lb1EEENS_9allocatorIS3_EEE17__deallocate_nodeEPNS_16__hash_node_baseIPNS_11__hash_nodeIS3_PvEEEE, symObjAddr: 0x3CC94, symBinAddr: 0x10003FD38, symSize: 0x31C }
  - { offsetInCU: 0x37FF0, offset: 0x37FF0, size: 0x8, addend: 0x0, symName: __ZNSt3__117__compressed_pairINS_16__hash_node_baseIPNS_11__hash_nodeINS_17__hash_value_typeI5ValueiEEPvEEEENS_9allocatorIS7_EEE5firstB7v160006Ev, symObjAddr: 0x3CFB0, symBinAddr: 0x100040054, symSize: 0x124 }
  - { offsetInCU: 0x38016, offset: 0x38016, size: 0x8, addend: 0x0, symName: __ZNSt3__110unique_ptrIA_PNS_16__hash_node_baseIPNS_11__hash_nodeINS_17__hash_value_typeI5ValueiEEPvEEEENS_25__bucket_list_deallocatorINS_9allocatorISA_EEEEED1B7v160006Ev, symObjAddr: 0x3D0E4, symBinAddr: 0x100040188, symSize: 0x78 }
  - { offsetInCU: 0x38040, offset: 0x38040, size: 0x8, addend: 0x0, symName: __ZNSt3__112__hash_tableINS_17__hash_value_typeI5ValueiEENS_22__unordered_map_hasherIS2_S3_NS_4hashIS2_EENS_8equal_toIS2_EELb1EEENS_21__unordered_map_equalIS2_S3_S8_S6_Lb1EEENS_9allocatorIS3_EEE12__node_allocB7v160006Ev, symObjAddr: 0x3D15C, symBinAddr: 0x100040200, symSize: 0xE4 }
  - { offsetInCU: 0x38066, offset: 0x38066, size: 0x8, addend: 0x0, symName: __ZNSt3__116__hash_node_baseIPNS_11__hash_nodeINS_17__hash_value_typeI5ValueiEEPvEEE8__upcastB7v160006Ev, symObjAddr: 0x3D240, symBinAddr: 0x1000402E4, symSize: 0xF8 }
  - { offsetInCU: 0x3808C, offset: 0x3808C, size: 0x8, addend: 0x0, symName: __ZNSt3__116allocator_traitsINS_9allocatorINS_11__hash_nodeINS_17__hash_value_typeI5ValueiEEPvEEEEE7destroyB7v160006INS_4pairIKS4_iEEvvEEvRS8_PT_, symObjAddr: 0x3D338, symBinAddr: 0x1000403DC, symSize: 0x14 }
  - { offsetInCU: 0x380C7, offset: 0x380C7, size: 0x8, addend: 0x0, symName: __ZNSt3__122__hash_key_value_typesINS_17__hash_value_typeI5ValueiEEE9__get_ptrB7v160006ERS3_, symObjAddr: 0x3D34C, symBinAddr: 0x1000403F0, symSize: 0x50 }
  - { offsetInCU: 0x380EA, offset: 0x380EA, size: 0x8, addend: 0x0, symName: __ZNSt3__116allocator_traitsINS_9allocatorINS_11__hash_nodeINS_17__hash_value_typeI5ValueiEEPvEEEEE10deallocateB7v160006ERS8_PS7_m, symObjAddr: 0x3D39C, symBinAddr: 0x100040440, symSize: 0x34 }
  - { offsetInCU: 0x3812C, offset: 0x3812C, size: 0x8, addend: 0x0, symName: __ZNSt3__117__compressed_pairINS_16__hash_node_baseIPNS_11__hash_nodeINS_17__hash_value_typeI5ValueiEEPvEEEENS_9allocatorIS7_EEE6secondB7v160006Ev, symObjAddr: 0x3D3D0, symBinAddr: 0x100040474, symSize: 0x108 }
  - { offsetInCU: 0x38152, offset: 0x38152, size: 0x8, addend: 0x0, symName: __ZNSt3__122__compressed_pair_elemINS_9allocatorINS_11__hash_nodeINS_17__hash_value_typeI5ValueiEEPvEEEELi1ELb1EE5__getB7v160006Ev, symObjAddr: 0x3D4D8, symBinAddr: 0x10004057C, symSize: 0x74 }
  - { offsetInCU: 0x38178, offset: 0x38178, size: 0x8, addend: 0x0, symName: __ZNSt3__114pointer_traitsIPNS_16__hash_node_baseIPNS_11__hash_nodeINS_17__hash_value_typeI5ValueiEEPvEEEEE10pointer_toB7v160006ERS9_, symObjAddr: 0x3D54C, symBinAddr: 0x1000405F0, symSize: 0x14 }
  - { offsetInCU: 0x3819B, offset: 0x3819B, size: 0x8, addend: 0x0, symName: __ZNSt3__117__hash_value_typeI5ValueiE11__get_valueB7v160006Ev, symObjAddr: 0x3D560, symBinAddr: 0x100040604, symSize: 0xB4 }
  - { offsetInCU: 0x381C1, offset: 0x381C1, size: 0x8, addend: 0x0, symName: __ZNSt3__19allocatorINS_11__hash_nodeINS_17__hash_value_typeI5ValueiEEPvEEE10deallocateB7v160006EPS6_m, symObjAddr: 0x3D64C, symBinAddr: 0x1000406F0, symSize: 0x7C }
  - { offsetInCU: 0x38203, offset: 0x38203, size: 0x8, addend: 0x0, symName: __ZNSt3__122__compressed_pair_elemINS_16__hash_node_baseIPNS_11__hash_nodeINS_17__hash_value_typeI5ValueiEEPvEEEELi0ELb0EE5__getB7v160006Ev, symObjAddr: 0x3D6C8, symBinAddr: 0x10004076C, symSize: 0xAC }
  - { offsetInCU: 0x38229, offset: 0x38229, size: 0x8, addend: 0x0, symName: __ZNSt3__110unique_ptrIA_PNS_16__hash_node_baseIPNS_11__hash_nodeINS_17__hash_value_typeI5ValueiEEPvEEEENS_25__bucket_list_deallocatorINS_9allocatorISA_EEEEED2B7v160006Ev, symObjAddr: 0x3D774, symBinAddr: 0x100040818, symSize: 0x7C }
  - { offsetInCU: 0x38253, offset: 0x38253, size: 0x8, addend: 0x0, symName: __ZNSt3__110unique_ptrIA_PNS_16__hash_node_baseIPNS_11__hash_nodeINS_17__hash_value_typeI5ValueiEEPvEEEENS_25__bucket_list_deallocatorINS_9allocatorISA_EEEEE5resetB7v160006EDn, symObjAddr: 0x3D7F0, symBinAddr: 0x100040894, symSize: 0x2C0 }
  - { offsetInCU: 0x38294, offset: 0x38294, size: 0x8, addend: 0x0, symName: __ZNSt3__117__compressed_pairIPPNS_16__hash_node_baseIPNS_11__hash_nodeINS_17__hash_value_typeI5ValueiEEPvEEEENS_25__bucket_list_deallocatorINS_9allocatorISA_EEEEE5firstB7v160006Ev, symObjAddr: 0x3DAB0, symBinAddr: 0x100040B54, symSize: 0x124 }
  - { offsetInCU: 0x382BA, offset: 0x382BA, size: 0x8, addend: 0x0, symName: __ZNSt3__117__compressed_pairIPPNS_16__hash_node_baseIPNS_11__hash_nodeINS_17__hash_value_typeI5ValueiEEPvEEEENS_25__bucket_list_deallocatorINS_9allocatorISA_EEEEE6secondB7v160006Ev, symObjAddr: 0x3DBD4, symBinAddr: 0x100040C78, symSize: 0x12C }
  - { offsetInCU: 0x382E0, offset: 0x382E0, size: 0x8, addend: 0x0, symName: __ZNSt3__125__bucket_list_deallocatorINS_9allocatorIPNS_16__hash_node_baseIPNS_11__hash_nodeINS_17__hash_value_typeI5ValueiEEPvEEEEEEEclB7v160006EPSB_, symObjAddr: 0x3DD00, symBinAddr: 0x100040DA4, symSize: 0x140 }
  - { offsetInCU: 0x38315, offset: 0x38315, size: 0x8, addend: 0x0, symName: __ZNSt3__122__compressed_pair_elemIPPNS_16__hash_node_baseIPNS_11__hash_nodeINS_17__hash_value_typeI5ValueiEEPvEEEELi0ELb0EE5__getB7v160006Ev, symObjAddr: 0x3DE40, symBinAddr: 0x100040EE4, symSize: 0xAC }
  - { offsetInCU: 0x3833B, offset: 0x3833B, size: 0x8, addend: 0x0, symName: __ZNSt3__122__compressed_pair_elemINS_25__bucket_list_deallocatorINS_9allocatorIPNS_16__hash_node_baseIPNS_11__hash_nodeINS_17__hash_value_typeI5ValueiEEPvEEEEEEEELi1ELb0EE5__getB7v160006Ev, symObjAddr: 0x3DEEC, symBinAddr: 0x100040F90, symSize: 0xAC }
  - { offsetInCU: 0x38361, offset: 0x38361, size: 0x8, addend: 0x0, symName: __ZNSt3__116allocator_traitsINS_9allocatorIPNS_16__hash_node_baseIPNS_11__hash_nodeINS_17__hash_value_typeI5ValueiEEPvEEEEEEE10deallocateB7v160006ERSC_PSB_m, symObjAddr: 0x3DF98, symBinAddr: 0x10004103C, symSize: 0x34 }
  - { offsetInCU: 0x383A3, offset: 0x383A3, size: 0x8, addend: 0x0, symName: __ZNSt3__125__bucket_list_deallocatorINS_9allocatorIPNS_16__hash_node_baseIPNS_11__hash_nodeINS_17__hash_value_typeI5ValueiEEPvEEEEEEE7__allocB7v160006Ev, symObjAddr: 0x3DFCC, symBinAddr: 0x100041070, symSize: 0xDC }
  - { offsetInCU: 0x383C9, offset: 0x383C9, size: 0x8, addend: 0x0, symName: __ZNSt3__125__bucket_list_deallocatorINS_9allocatorIPNS_16__hash_node_baseIPNS_11__hash_nodeINS_17__hash_value_typeI5ValueiEEPvEEEEEEE4sizeB7v160006Ev, symObjAddr: 0x3E0A8, symBinAddr: 0x10004114C, symSize: 0xF8 }
  - { offsetInCU: 0x383EF, offset: 0x383EF, size: 0x8, addend: 0x0, symName: __ZNSt3__19allocatorIPNS_16__hash_node_baseIPNS_11__hash_nodeINS_17__hash_value_typeI5ValueiEEPvEEEEE10deallocateB7v160006EPSA_m, symObjAddr: 0x3E1A0, symBinAddr: 0x100041244, symSize: 0x78 }
  - { offsetInCU: 0x38431, offset: 0x38431, size: 0x8, addend: 0x0, symName: __ZNSt3__117__compressed_pairImNS_9allocatorIPNS_16__hash_node_baseIPNS_11__hash_nodeINS_17__hash_value_typeI5ValueiEEPvEEEEEEE6secondB7v160006Ev, symObjAddr: 0x3E218, symBinAddr: 0x1000412BC, symSize: 0x108 }
  - { offsetInCU: 0x38457, offset: 0x38457, size: 0x8, addend: 0x0, symName: __ZNSt3__122__compressed_pair_elemINS_9allocatorIPNS_16__hash_node_baseIPNS_11__hash_nodeINS_17__hash_value_typeI5ValueiEEPvEEEEEELi1ELb1EE5__getB7v160006Ev, symObjAddr: 0x3E320, symBinAddr: 0x1000413C4, symSize: 0x74 }
  - { offsetInCU: 0x3847D, offset: 0x3847D, size: 0x8, addend: 0x0, symName: __ZNSt3__117__compressed_pairImNS_9allocatorIPNS_16__hash_node_baseIPNS_11__hash_nodeINS_17__hash_value_typeI5ValueiEEPvEEEEEEE5firstB7v160006Ev, symObjAddr: 0x3E394, symBinAddr: 0x100041438, symSize: 0x124 }
  - { offsetInCU: 0x384A3, offset: 0x384A3, size: 0x8, addend: 0x0, symName: __ZNSt3__122__compressed_pair_elemImLi0ELb0EE5__getB7v160006Ev, symObjAddr: 0x3E4B8, symBinAddr: 0x10004155C, symSize: 0xAC }
  - { offsetInCU: 0x384D4, offset: 0x384D4, size: 0x8, addend: 0x0, symName: __ZNKSt3__16__lessIiiEclB7v160006ERKiS3_, symObjAddr: 0x3E824, symBinAddr: 0x1000418C8, symSize: 0x13C }
  - { offsetInCU: 0x38516, offset: 0x38516, size: 0x8, addend: 0x0, symName: __ZN8CheckWinD2Ev, symObjAddr: 0x3E960, symBinAddr: 0x100041A04, symSize: 0x84 }
  - { offsetInCU: 0x38542, offset: 0x38542, size: 0x8, addend: 0x0, symName: __ZN10ThreadPoolC2Ev, symObjAddr: 0x3E9E4, symBinAddr: 0x100041A88, symSize: 0x114 }
  - { offsetInCU: 0x3856E, offset: 0x3856E, size: 0x8, addend: 0x0, symName: __ZNSt3__15mutexC1B7v160006Ev, symObjAddr: 0x3EAF8, symBinAddr: 0x100041B9C, symSize: 0x78 }
  - { offsetInCU: 0x38598, offset: 0x38598, size: 0x8, addend: 0x0, symName: __ZNSt3__118condition_variableC1B7v160006Ev, symObjAddr: 0x3EB70, symBinAddr: 0x100041C14, symSize: 0x78 }
  - { offsetInCU: 0x385C2, offset: 0x385C2, size: 0x8, addend: 0x0, symName: __ZNSt3__16vectorINS_6threadENS_9allocatorIS1_EEEC1B7v160006Ev, symObjAddr: 0x3EBE8, symBinAddr: 0x100041C8C, symSize: 0x78 }
  - { offsetInCU: 0x385EC, offset: 0x385EC, size: 0x8, addend: 0x0, symName: __ZNSt3__15queueINS_8functionIFvvEEENS_5dequeIS3_NS_9allocatorIS3_EEEEEC1B7v160006Ev, symObjAddr: 0x3EC60, symBinAddr: 0x100041D04, symSize: 0x78 }
  - { offsetInCU: 0x38616, offset: 0x38616, size: 0x8, addend: 0x0, symName: __ZNSt3__15queueIiNS_5dequeIiNS_9allocatorIiEEEEEC1B7v160006Ev, symObjAddr: 0x3ECD8, symBinAddr: 0x100041D7C, symSize: 0x78 }
  - { offsetInCU: 0x38640, offset: 0x38640, size: 0x8, addend: 0x0, symName: __ZNSt3__15mutexC2B7v160006Ev, symObjAddr: 0x3ED50, symBinAddr: 0x100041DF4, symSize: 0xD0 }
  - { offsetInCU: 0x3866A, offset: 0x3866A, size: 0x8, addend: 0x0, symName: __ZNSt3__118condition_variableC2B7v160006Ev, symObjAddr: 0x3EE20, symBinAddr: 0x100041EC4, symSize: 0xD0 }
  - { offsetInCU: 0x38694, offset: 0x38694, size: 0x8, addend: 0x0, symName: __ZNSt3__16vectorINS_6threadENS_9allocatorIS1_EEEC2B7v160006Ev, symObjAddr: 0x3EEF0, symBinAddr: 0x100041F94, symSize: 0x34C }
  - { offsetInCU: 0x386BF, offset: 0x386BF, size: 0x8, addend: 0x0, symName: __ZNSt3__117__compressed_pairIPNS_6threadENS_9allocatorIS1_EEEC1B7v160006IDnNS_18__default_init_tagEEEOT_OT0_, symObjAddr: 0x3F23C, symBinAddr: 0x1000422E0, symSize: 0x88 }
  - { offsetInCU: 0x38717, offset: 0x38717, size: 0x8, addend: 0x0, symName: __ZNSt3__117__compressed_pairIPNS_6threadENS_9allocatorIS1_EEEC2B7v160006IDnNS_18__default_init_tagEEEOT_OT0_, symObjAddr: 0x3F2D4, symBinAddr: 0x100042378, symSize: 0x140 }
  - { offsetInCU: 0x3876F, offset: 0x3876F, size: 0x8, addend: 0x0, symName: __ZNSt3__122__compressed_pair_elemIPNS_6threadELi0ELb0EEC2B7v160006IDnvEEOT_, symObjAddr: 0x3F414, symBinAddr: 0x1000424B8, symSize: 0xBC }
  - { offsetInCU: 0x387B1, offset: 0x387B1, size: 0x8, addend: 0x0, symName: __ZNSt3__122__compressed_pair_elemINS_9allocatorINS_6threadEEELi1ELb1EEC2B7v160006ENS_18__default_init_tagE, symObjAddr: 0x3F4D0, symBinAddr: 0x100042574, symSize: 0x84 }
  - { offsetInCU: 0x387E5, offset: 0x387E5, size: 0x8, addend: 0x0, symName: __ZNSt3__19allocatorINS_6threadEEC2B7v160006Ev, symObjAddr: 0x3F554, symBinAddr: 0x1000425F8, symSize: 0x84 }
  - { offsetInCU: 0x3880F, offset: 0x3880F, size: 0x8, addend: 0x0, symName: __ZNSt3__116__non_trivial_ifILb1ENS_9allocatorINS_6threadEEEEC2B7v160006Ev, symObjAddr: 0x3F5D8, symBinAddr: 0x10004267C, symSize: 0x54 }
  - { offsetInCU: 0x38839, offset: 0x38839, size: 0x8, addend: 0x0, symName: __ZNSt3__15queueINS_8functionIFvvEEENS_5dequeIS3_NS_9allocatorIS3_EEEEEC2B7v160006Ev, symObjAddr: 0x3F62C, symBinAddr: 0x1000426D0, symSize: 0x78 }
  - { offsetInCU: 0x38863, offset: 0x38863, size: 0x8, addend: 0x0, symName: __ZNSt3__15dequeINS_8functionIFvvEEENS_9allocatorIS3_EEEC1B7v160006Ev, symObjAddr: 0x3F6A4, symBinAddr: 0x100042748, symSize: 0x78 }
  - { offsetInCU: 0x3888D, offset: 0x3888D, size: 0x8, addend: 0x0, symName: __ZNSt3__15dequeINS_8functionIFvvEEENS_9allocatorIS3_EEEC2B7v160006Ev, symObjAddr: 0x3F71C, symBinAddr: 0x1000427C0, symSize: 0x318 }
  - { offsetInCU: 0x388B8, offset: 0x388B8, size: 0x8, addend: 0x0, symName: __ZNSt3__114__split_bufferIPNS_8functionIFvvEEENS_9allocatorIS4_EEEC1Ev, symObjAddr: 0x3FA34, symBinAddr: 0x100042AD8, symSize: 0x78 }
  - { offsetInCU: 0x388E4, offset: 0x388E4, size: 0x8, addend: 0x0, symName: __ZNSt3__117__compressed_pairImNS_9allocatorINS_8functionIFvvEEEEEEC1B7v160006IiNS_18__default_init_tagEEEOT_OT0_, symObjAddr: 0x3FAAC, symBinAddr: 0x100042B50, symSize: 0x88 }
  - { offsetInCU: 0x3893C, offset: 0x3893C, size: 0x8, addend: 0x0, symName: __ZNSt3__114__split_bufferIPNS_8functionIFvvEEENS_9allocatorIS4_EEEC2Ev, symObjAddr: 0x3FB34, symBinAddr: 0x100042BD8, symSize: 0x378 }
  - { offsetInCU: 0x38969, offset: 0x38969, size: 0x8, addend: 0x0, symName: __ZNSt3__117__compressed_pairIPPNS_8functionIFvvEEENS_9allocatorIS4_EEEC1B7v160006IDnNS_18__default_init_tagEEEOT_OT0_, symObjAddr: 0x3FEAC, symBinAddr: 0x100042F50, symSize: 0x88 }
  - { offsetInCU: 0x389C1, offset: 0x389C1, size: 0x8, addend: 0x0, symName: __ZNSt3__117__compressed_pairIPPNS_8functionIFvvEEENS_9allocatorIS4_EEEC2B7v160006IDnNS_18__default_init_tagEEEOT_OT0_, symObjAddr: 0x3FF34, symBinAddr: 0x100042FD8, symSize: 0x140 }
  - { offsetInCU: 0x38A19, offset: 0x38A19, size: 0x8, addend: 0x0, symName: __ZNSt3__122__compressed_pair_elemIPPNS_8functionIFvvEEELi0ELb0EEC2B7v160006IDnvEEOT_, symObjAddr: 0x40074, symBinAddr: 0x100043118, symSize: 0xBC }
  - { offsetInCU: 0x38A5B, offset: 0x38A5B, size: 0x8, addend: 0x0, symName: __ZNSt3__122__compressed_pair_elemINS_9allocatorIPNS_8functionIFvvEEEEELi1ELb1EEC2B7v160006ENS_18__default_init_tagE, symObjAddr: 0x40130, symBinAddr: 0x1000431D4, symSize: 0x84 }
  - { offsetInCU: 0x38A8F, offset: 0x38A8F, size: 0x8, addend: 0x0, symName: __ZNSt3__19allocatorIPNS_8functionIFvvEEEEC2B7v160006Ev, symObjAddr: 0x401B4, symBinAddr: 0x100043258, symSize: 0x84 }
  - { offsetInCU: 0x38AB9, offset: 0x38AB9, size: 0x8, addend: 0x0, symName: __ZNSt3__116__non_trivial_ifILb1ENS_9allocatorIPNS_8functionIFvvEEEEEEC2B7v160006Ev, symObjAddr: 0x40238, symBinAddr: 0x1000432DC, symSize: 0x54 }
  - { offsetInCU: 0x38AE3, offset: 0x38AE3, size: 0x8, addend: 0x0, symName: __ZNSt3__117__compressed_pairImNS_9allocatorINS_8functionIFvvEEEEEEC2B7v160006IiNS_18__default_init_tagEEEOT_OT0_, symObjAddr: 0x4028C, symBinAddr: 0x100043330, symSize: 0x140 }
  - { offsetInCU: 0x38B3B, offset: 0x38B3B, size: 0x8, addend: 0x0, symName: __ZNSt3__122__compressed_pair_elemINS_9allocatorINS_8functionIFvvEEEEELi1ELb1EEC2B7v160006ENS_18__default_init_tagE, symObjAddr: 0x403CC, symBinAddr: 0x100043470, symSize: 0x84 }
  - { offsetInCU: 0x38B6F, offset: 0x38B6F, size: 0x8, addend: 0x0, symName: __ZNSt3__19allocatorINS_8functionIFvvEEEEC2B7v160006Ev, symObjAddr: 0x40450, symBinAddr: 0x1000434F4, symSize: 0x84 }
  - { offsetInCU: 0x38B99, offset: 0x38B99, size: 0x8, addend: 0x0, symName: __ZNSt3__116__non_trivial_ifILb1ENS_9allocatorINS_8functionIFvvEEEEEEC2B7v160006Ev, symObjAddr: 0x404D4, symBinAddr: 0x100043578, symSize: 0x54 }
  - { offsetInCU: 0x38BC3, offset: 0x38BC3, size: 0x8, addend: 0x0, symName: __ZNSt3__15queueIiNS_5dequeIiNS_9allocatorIiEEEEEC2B7v160006Ev, symObjAddr: 0x40528, symBinAddr: 0x1000435CC, symSize: 0x78 }
  - { offsetInCU: 0x38BED, offset: 0x38BED, size: 0x8, addend: 0x0, symName: __ZNSt3__15dequeIiNS_9allocatorIiEEEC1B7v160006Ev, symObjAddr: 0x405A0, symBinAddr: 0x100043644, symSize: 0x78 }
  - { offsetInCU: 0x38C17, offset: 0x38C17, size: 0x8, addend: 0x0, symName: __ZNSt3__15dequeIiNS_9allocatorIiEEEC2B7v160006Ev, symObjAddr: 0x40618, symBinAddr: 0x1000436BC, symSize: 0x318 }
  - { offsetInCU: 0x38C42, offset: 0x38C42, size: 0x8, addend: 0x0, symName: __ZNSt3__114__split_bufferIPiNS_9allocatorIS1_EEEC1Ev, symObjAddr: 0x40930, symBinAddr: 0x1000439D4, symSize: 0x78 }
  - { offsetInCU: 0x38C6E, offset: 0x38C6E, size: 0x8, addend: 0x0, symName: __ZNSt3__117__compressed_pairImNS_9allocatorIiEEEC1B7v160006IiNS_18__default_init_tagEEEOT_OT0_, symObjAddr: 0x409A8, symBinAddr: 0x100043A4C, symSize: 0x88 }
  - { offsetInCU: 0x38CC6, offset: 0x38CC6, size: 0x8, addend: 0x0, symName: __ZNSt3__114__split_bufferIPiNS_9allocatorIS1_EEEC2Ev, symObjAddr: 0x40A30, symBinAddr: 0x100043AD4, symSize: 0x378 }
  - { offsetInCU: 0x38CF3, offset: 0x38CF3, size: 0x8, addend: 0x0, symName: __ZNSt3__117__compressed_pairIPPiNS_9allocatorIS1_EEEC1B7v160006IDnNS_18__default_init_tagEEEOT_OT0_, symObjAddr: 0x40DA8, symBinAddr: 0x100043E4C, symSize: 0x88 }
  - { offsetInCU: 0x38D4B, offset: 0x38D4B, size: 0x8, addend: 0x0, symName: __ZNSt3__117__compressed_pairIPPiNS_9allocatorIS1_EEEC2B7v160006IDnNS_18__default_init_tagEEEOT_OT0_, symObjAddr: 0x40E30, symBinAddr: 0x100043ED4, symSize: 0x140 }
  - { offsetInCU: 0x38DA3, offset: 0x38DA3, size: 0x8, addend: 0x0, symName: __ZNSt3__122__compressed_pair_elemIPPiLi0ELb0EEC2B7v160006IDnvEEOT_, symObjAddr: 0x40F70, symBinAddr: 0x100044014, symSize: 0xBC }
  - { offsetInCU: 0x38DE5, offset: 0x38DE5, size: 0x8, addend: 0x0, symName: __ZNSt3__122__compressed_pair_elemINS_9allocatorIPiEELi1ELb1EEC2B7v160006ENS_18__default_init_tagE, symObjAddr: 0x4102C, symBinAddr: 0x1000440D0, symSize: 0x84 }
  - { offsetInCU: 0x38E19, offset: 0x38E19, size: 0x8, addend: 0x0, symName: __ZNSt3__19allocatorIPiEC2B7v160006Ev, symObjAddr: 0x410B0, symBinAddr: 0x100044154, symSize: 0x84 }
  - { offsetInCU: 0x38E43, offset: 0x38E43, size: 0x8, addend: 0x0, symName: __ZNSt3__116__non_trivial_ifILb1ENS_9allocatorIPiEEEC2B7v160006Ev, symObjAddr: 0x41134, symBinAddr: 0x1000441D8, symSize: 0x54 }
  - { offsetInCU: 0x38E6D, offset: 0x38E6D, size: 0x8, addend: 0x0, symName: __ZNSt3__117__compressed_pairImNS_9allocatorIiEEEC2B7v160006IiNS_18__default_init_tagEEEOT_OT0_, symObjAddr: 0x41188, symBinAddr: 0x10004422C, symSize: 0x140 }
  - { offsetInCU: 0x38EC5, offset: 0x38EC5, size: 0x8, addend: 0x0, symName: __ZNSt3__122__compressed_pair_elemINS_9allocatorIiEELi1ELb1EEC2B7v160006ENS_18__default_init_tagE, symObjAddr: 0x412C8, symBinAddr: 0x10004436C, symSize: 0x84 }
  - { offsetInCU: 0x38EF9, offset: 0x38EF9, size: 0x8, addend: 0x0, symName: __ZNSt3__19allocatorIiEC2B7v160006Ev, symObjAddr: 0x4134C, symBinAddr: 0x1000443F0, symSize: 0x84 }
  - { offsetInCU: 0x38F23, offset: 0x38F23, size: 0x8, addend: 0x0, symName: __ZNSt3__116__non_trivial_ifILb1ENS_9allocatorIiEEEC2B7v160006Ev, symObjAddr: 0x413D0, symBinAddr: 0x100044474, symSize: 0x54 }
  - { offsetInCU: 0x38F4D, offset: 0x38F4D, size: 0x8, addend: 0x0, symName: __ZNKSt3__111__wrap_iterIP4GameE4baseB7v160006Ev, symObjAddr: 0x414C0, symBinAddr: 0x100044564, symSize: 0xAC }
  - { offsetInCU: 0x38F73, offset: 0x38F73, size: 0x8, addend: 0x0, symName: __ZN10ThreadPoolD2Ev, symObjAddr: 0x4156C, symBinAddr: 0x100044610, symSize: 0xAC }
  - { offsetInCU: 0x38F9F, offset: 0x38F9F, size: 0x8, addend: 0x0, symName: __ZNSt3__15queueIiNS_5dequeIiNS_9allocatorIiEEEEED1Ev, symObjAddr: 0x41618, symBinAddr: 0x1000446BC, symSize: 0x78 }
  - { offsetInCU: 0x38FCC, offset: 0x38FCC, size: 0x8, addend: 0x0, symName: __ZNSt3__15queueINS_8functionIFvvEEENS_5dequeIS3_NS_9allocatorIS3_EEEEED1Ev, symObjAddr: 0x41690, symBinAddr: 0x100044734, symSize: 0x78 }
  - { offsetInCU: 0x38FF9, offset: 0x38FF9, size: 0x8, addend: 0x0, symName: __ZNSt3__16vectorINS_6threadENS_9allocatorIS1_EEED1B7v160006Ev, symObjAddr: 0x41708, symBinAddr: 0x1000447AC, symSize: 0x78 }
  - { offsetInCU: 0x39023, offset: 0x39023, size: 0x8, addend: 0x0, symName: __ZNSt3__15queueIiNS_5dequeIiNS_9allocatorIiEEEEED2Ev, symObjAddr: 0x41780, symBinAddr: 0x100044824, symSize: 0x78 }
  - { offsetInCU: 0x39050, offset: 0x39050, size: 0x8, addend: 0x0, symName: __ZNSt3__15dequeIiNS_9allocatorIiEEED1B7v160006Ev, symObjAddr: 0x417F8, symBinAddr: 0x10004489C, symSize: 0x78 }
  - { offsetInCU: 0x3907A, offset: 0x3907A, size: 0x8, addend: 0x0, symName: __ZNSt3__15dequeIiNS_9allocatorIiEEED2B7v160006Ev, symObjAddr: 0x41870, symBinAddr: 0x100044914, symSize: 0x298 }
  - { offsetInCU: 0x390D0, offset: 0x390D0, size: 0x8, addend: 0x0, symName: __ZNSt3__15dequeIiNS_9allocatorIiEEE5clearEv, symObjAddr: 0x41B08, symBinAddr: 0x100044BAC, symSize: 0x720 }
  - { offsetInCU: 0x39135, offset: 0x39135, size: 0x8, addend: 0x0, symName: __ZNSt3__114__split_bufferIPiNS_9allocatorIS1_EEE5beginB7v160006Ev, symObjAddr: 0x42228, symBinAddr: 0x1000452CC, symSize: 0xB0 }
  - { offsetInCU: 0x3915B, offset: 0x3915B, size: 0x8, addend: 0x0, symName: __ZNSt3__114__split_bufferIPiNS_9allocatorIS1_EEE3endB7v160006Ev, symObjAddr: 0x422D8, symBinAddr: 0x10004537C, symSize: 0xB0 }
  - { offsetInCU: 0x39181, offset: 0x39181, size: 0x8, addend: 0x0, symName: __ZNSt3__116allocator_traitsINS_9allocatorIiEEE10deallocateB7v160006ERS2_Pim, symObjAddr: 0x42388, symBinAddr: 0x10004542C, symSize: 0x34 }
  - { offsetInCU: 0x391C3, offset: 0x391C3, size: 0x8, addend: 0x0, symName: __ZNSt3__15dequeIiNS_9allocatorIiEEE7__allocB7v160006Ev, symObjAddr: 0x423BC, symBinAddr: 0x100045460, symSize: 0xE4 }
  - { offsetInCU: 0x391E9, offset: 0x391E9, size: 0x8, addend: 0x0, symName: __ZNSt3__114__split_bufferIPiNS_9allocatorIS1_EEED1Ev, symObjAddr: 0x424A0, symBinAddr: 0x100045544, symSize: 0x78 }
  - { offsetInCU: 0x39215, offset: 0x39215, size: 0x8, addend: 0x0, symName: __ZNSt3__15dequeIiNS_9allocatorIiEEE5beginB7v160006Ev, symObjAddr: 0x42518, symBinAddr: 0x1000455BC, symSize: 0x650 }
  - { offsetInCU: 0x3924C, offset: 0x3924C, size: 0x8, addend: 0x0, symName: __ZNSt3__15dequeIiNS_9allocatorIiEEE3endB7v160006Ev, symObjAddr: 0x42B68, symBinAddr: 0x100045C0C, symSize: 0x614 }
  - { offsetInCU: 0x39293, offset: 0x39293, size: 0x8, addend: 0x0, symName: __ZNSt3__116allocator_traitsINS_9allocatorIiEEE7destroyB7v160006IivEEvRS2_PT_, symObjAddr: 0x43240, symBinAddr: 0x1000462E4, symSize: 0x2C }
  - { offsetInCU: 0x392D0, offset: 0x392D0, size: 0x8, addend: 0x0, symName: __ZNKSt3__116__deque_iteratorIiPiRiPS1_lLl1024EEdeB7v160006Ev, symObjAddr: 0x4326C, symBinAddr: 0x100046310, symSize: 0xF8 }
  - { offsetInCU: 0x392F6, offset: 0x392F6, size: 0x8, addend: 0x0, symName: __ZNSt3__116__deque_iteratorIiPiRiPS1_lLl1024EEppB7v160006Ev, symObjAddr: 0x43364, symBinAddr: 0x100046408, symSize: 0x46C }
  - { offsetInCU: 0x3931C, offset: 0x3931C, size: 0x8, addend: 0x0, symName: __ZNSt3__15dequeIiNS_9allocatorIiEEE6__sizeB7v160006Ev, symObjAddr: 0x437D0, symBinAddr: 0x100046874, symSize: 0x100 }
  - { offsetInCU: 0x39342, offset: 0x39342, size: 0x8, addend: 0x0, symName: __ZNKSt3__114__split_bufferIPiNS_9allocatorIS1_EEE4sizeB7v160006Ev, symObjAddr: 0x438D0, symBinAddr: 0x100046974, symSize: 0xFC }
  - { offsetInCU: 0x39368, offset: 0x39368, size: 0x8, addend: 0x0, symName: __ZNSt3__114__split_bufferIPiNS_9allocatorIS1_EEE5frontB7v160006Ev, symObjAddr: 0x439CC, symBinAddr: 0x100046A70, symSize: 0xF8 }
  - { offsetInCU: 0x3938E, offset: 0x3938E, size: 0x8, addend: 0x0, symName: __ZNSt3__114__split_bufferIPiNS_9allocatorIS1_EEE9pop_frontB7v160006Ev, symObjAddr: 0x43AC4, symBinAddr: 0x100046B68, symSize: 0x150 }
  - { offsetInCU: 0x393B4, offset: 0x393B4, size: 0x8, addend: 0x0, symName: __ZNKSt3__114__split_bufferIPiNS_9allocatorIS1_EEE5emptyB7v160006Ev, symObjAddr: 0x43C14, symBinAddr: 0x100046CB8, symSize: 0xFC }
  - { offsetInCU: 0x393DA, offset: 0x393DA, size: 0x8, addend: 0x0, symName: __ZNSt3__116__deque_iteratorIiPiRiPS1_lLl1024EEC1B7v160006ES3_S1_, symObjAddr: 0x43D10, symBinAddr: 0x100046DB4, symSize: 0x88 }
  - { offsetInCU: 0x39422, offset: 0x39422, size: 0x8, addend: 0x0, symName: __ZNSt3__116__deque_iteratorIiPiRiPS1_lLl1024EEC2B7v160006ES3_S1_, symObjAddr: 0x43D98, symBinAddr: 0x100046E3C, symSize: 0x110 }
  - { offsetInCU: 0x3946A, offset: 0x3946A, size: 0x8, addend: 0x0, symName: __ZNKSt3__15dequeIiNS_9allocatorIiEEE4sizeB7v160006Ev, symObjAddr: 0x43EA8, symBinAddr: 0x100046F4C, symSize: 0xF8 }
  - { offsetInCU: 0x39490, offset: 0x39490, size: 0x8, addend: 0x0, symName: __ZNKSt3__15dequeIiNS_9allocatorIiEEE6__sizeB7v160006Ev, symObjAddr: 0x43FA0, symBinAddr: 0x100047044, symSize: 0x100 }
  - { offsetInCU: 0x394B6, offset: 0x394B6, size: 0x8, addend: 0x0, symName: __ZNKSt3__117__compressed_pairImNS_9allocatorIiEEE5firstB7v160006Ev, symObjAddr: 0x440A0, symBinAddr: 0x100047144, symSize: 0x124 }
  - { offsetInCU: 0x394DC, offset: 0x394DC, size: 0x8, addend: 0x0, symName: __ZNKSt3__122__compressed_pair_elemImLi0ELb0EE5__getB7v160006Ev, symObjAddr: 0x441C4, symBinAddr: 0x100047268, symSize: 0xAC }
  - { offsetInCU: 0x39502, offset: 0x39502, size: 0x8, addend: 0x0, symName: __ZNSt3__19allocatorIiE7destroyB7v160006EPi, symObjAddr: 0x44394, symBinAddr: 0x100047438, symSize: 0x4C }
  - { offsetInCU: 0x39536, offset: 0x39536, size: 0x8, addend: 0x0, symName: __ZNSt3__117__compressed_pairImNS_9allocatorIiEEE5firstB7v160006Ev, symObjAddr: 0x443E0, symBinAddr: 0x100047484, symSize: 0x124 }
  - { offsetInCU: 0x3955C, offset: 0x3955C, size: 0x8, addend: 0x0, symName: __ZNSt3__114__split_bufferIPiNS_9allocatorIS1_EEE19__destruct_at_beginB7v160006EPS1_, symObjAddr: 0x44504, symBinAddr: 0x1000475A8, symSize: 0x74 }
  - { offsetInCU: 0x39590, offset: 0x39590, size: 0x8, addend: 0x0, symName: __ZNSt3__114__split_bufferIPiNS_9allocatorIS1_EEE19__destruct_at_beginEPS1_NS_17integral_constantIbLb1EEE, symObjAddr: 0x44578, symBinAddr: 0x10004761C, symSize: 0xC0 }
  - { offsetInCU: 0x395D0, offset: 0x395D0, size: 0x8, addend: 0x0, symName: __ZNSt3__19allocatorIiE10deallocateB7v160006EPim, symObjAddr: 0x44638, symBinAddr: 0x1000476DC, symSize: 0x78 }
  - { offsetInCU: 0x39612, offset: 0x39612, size: 0x8, addend: 0x0, symName: __ZNSt3__117__compressed_pairImNS_9allocatorIiEEE6secondB7v160006Ev, symObjAddr: 0x446B0, symBinAddr: 0x100047754, symSize: 0x108 }
  - { offsetInCU: 0x39638, offset: 0x39638, size: 0x8, addend: 0x0, symName: __ZNSt3__122__compressed_pair_elemINS_9allocatorIiEELi1ELb1EE5__getB7v160006Ev, symObjAddr: 0x447B8, symBinAddr: 0x10004785C, symSize: 0x74 }
  - { offsetInCU: 0x3965E, offset: 0x3965E, size: 0x8, addend: 0x0, symName: __ZNSt3__114__split_bufferIPiNS_9allocatorIS1_EEED2Ev, symObjAddr: 0x4482C, symBinAddr: 0x1000478D0, symSize: 0x16C }
  - { offsetInCU: 0x3968A, offset: 0x3968A, size: 0x8, addend: 0x0, symName: __ZNSt3__114__split_bufferIPiNS_9allocatorIS1_EEE5clearB7v160006Ev, symObjAddr: 0x44998, symBinAddr: 0x100047A3C, symSize: 0xB4 }
  - { offsetInCU: 0x396B0, offset: 0x396B0, size: 0x8, addend: 0x0, symName: __ZNSt3__116allocator_traitsINS_9allocatorIPiEEE10deallocateB7v160006ERS3_PS2_m, symObjAddr: 0x44A4C, symBinAddr: 0x100047AF0, symSize: 0x34 }
  - { offsetInCU: 0x396F2, offset: 0x396F2, size: 0x8, addend: 0x0, symName: __ZNSt3__114__split_bufferIPiNS_9allocatorIS1_EEE7__allocB7v160006Ev, symObjAddr: 0x44A80, symBinAddr: 0x100047B24, symSize: 0xE4 }
  - { offsetInCU: 0x39718, offset: 0x39718, size: 0x8, addend: 0x0, symName: __ZNKSt3__114__split_bufferIPiNS_9allocatorIS1_EEE8capacityB7v160006Ev, symObjAddr: 0x44B64, symBinAddr: 0x100047C08, symSize: 0x144 }
  - { offsetInCU: 0x3973E, offset: 0x3973E, size: 0x8, addend: 0x0, symName: __ZNSt3__114__split_bufferIPiNS_9allocatorIS1_EEE17__destruct_at_endB7v160006EPS1_, symObjAddr: 0x44CA8, symBinAddr: 0x100047D4C, symSize: 0x74 }
  - { offsetInCU: 0x39772, offset: 0x39772, size: 0x8, addend: 0x0, symName: __ZNSt3__114__split_bufferIPiNS_9allocatorIS1_EEE17__destruct_at_endB7v160006EPS1_NS_17integral_constantIbLb0EEE, symObjAddr: 0x44D1C, symBinAddr: 0x100047DC0, symSize: 0x224 }
  - { offsetInCU: 0x397B2, offset: 0x397B2, size: 0x8, addend: 0x0, symName: __ZNSt3__116allocator_traitsINS_9allocatorIPiEEE7destroyB7v160006IS2_vEEvRS3_PT_, symObjAddr: 0x44F40, symBinAddr: 0x100047FE4, symSize: 0x2C }
  - { offsetInCU: 0x397EF, offset: 0x397EF, size: 0x8, addend: 0x0, symName: __ZNSt3__19allocatorIPiE7destroyB7v160006EPS1_, symObjAddr: 0x44F80, symBinAddr: 0x100048024, symSize: 0x4C }
  - { offsetInCU: 0x39823, offset: 0x39823, size: 0x8, addend: 0x0, symName: __ZNSt3__19allocatorIPiE10deallocateB7v160006EPS1_m, symObjAddr: 0x44FCC, symBinAddr: 0x100048070, symSize: 0x78 }
  - { offsetInCU: 0x39865, offset: 0x39865, size: 0x8, addend: 0x0, symName: __ZNSt3__117__compressed_pairIPPiNS_9allocatorIS1_EEE6secondB7v160006Ev, symObjAddr: 0x45044, symBinAddr: 0x1000480E8, symSize: 0x108 }
  - { offsetInCU: 0x3988B, offset: 0x3988B, size: 0x8, addend: 0x0, symName: __ZNSt3__122__compressed_pair_elemINS_9allocatorIPiEELi1ELb1EE5__getB7v160006Ev, symObjAddr: 0x4514C, symBinAddr: 0x1000481F0, symSize: 0x74 }
  - { offsetInCU: 0x398B1, offset: 0x398B1, size: 0x8, addend: 0x0, symName: __ZNKSt3__114__split_bufferIPiNS_9allocatorIS1_EEE9__end_capB7v160006Ev, symObjAddr: 0x451C0, symBinAddr: 0x100048264, symSize: 0x100 }
  - { offsetInCU: 0x398D7, offset: 0x398D7, size: 0x8, addend: 0x0, symName: __ZNKSt3__117__compressed_pairIPPiNS_9allocatorIS1_EEE5firstB7v160006Ev, symObjAddr: 0x452C0, symBinAddr: 0x100048364, symSize: 0x124 }
  - { offsetInCU: 0x398FD, offset: 0x398FD, size: 0x8, addend: 0x0, symName: __ZNKSt3__122__compressed_pair_elemIPPiLi0ELb0EE5__getB7v160006Ev, symObjAddr: 0x453E4, symBinAddr: 0x100048488, symSize: 0xAC }
  - { offsetInCU: 0x39923, offset: 0x39923, size: 0x8, addend: 0x0, symName: __ZNSt3__15queueINS_8functionIFvvEEENS_5dequeIS3_NS_9allocatorIS3_EEEEED2Ev, symObjAddr: 0x45490, symBinAddr: 0x100048534, symSize: 0x78 }
  - { offsetInCU: 0x39950, offset: 0x39950, size: 0x8, addend: 0x0, symName: __ZNSt3__15dequeINS_8functionIFvvEEENS_9allocatorIS3_EEED1B7v160006Ev, symObjAddr: 0x45508, symBinAddr: 0x1000485AC, symSize: 0x78 }
  - { offsetInCU: 0x3997A, offset: 0x3997A, size: 0x8, addend: 0x0, symName: __ZNSt3__15dequeINS_8functionIFvvEEENS_9allocatorIS3_EEED2B7v160006Ev, symObjAddr: 0x45580, symBinAddr: 0x100048624, symSize: 0x298 }
  - { offsetInCU: 0x399D0, offset: 0x399D0, size: 0x8, addend: 0x0, symName: __ZNSt3__15dequeINS_8functionIFvvEEENS_9allocatorIS3_EEE5clearEv, symObjAddr: 0x45818, symBinAddr: 0x1000488BC, symSize: 0x720 }
  - { offsetInCU: 0x39A35, offset: 0x39A35, size: 0x8, addend: 0x0, symName: __ZNSt3__114__split_bufferIPNS_8functionIFvvEEENS_9allocatorIS4_EEE5beginB7v160006Ev, symObjAddr: 0x45F38, symBinAddr: 0x100048FDC, symSize: 0xB0 }
  - { offsetInCU: 0x39A5B, offset: 0x39A5B, size: 0x8, addend: 0x0, symName: __ZNSt3__114__split_bufferIPNS_8functionIFvvEEENS_9allocatorIS4_EEE3endB7v160006Ev, symObjAddr: 0x45FE8, symBinAddr: 0x10004908C, symSize: 0xB0 }
  - { offsetInCU: 0x39A81, offset: 0x39A81, size: 0x8, addend: 0x0, symName: __ZNSt3__116allocator_traitsINS_9allocatorINS_8functionIFvvEEEEEE10deallocateB7v160006ERS5_PS4_m, symObjAddr: 0x46098, symBinAddr: 0x10004913C, symSize: 0x34 }
  - { offsetInCU: 0x39AC3, offset: 0x39AC3, size: 0x8, addend: 0x0, symName: __ZNSt3__15dequeINS_8functionIFvvEEENS_9allocatorIS3_EEE7__allocB7v160006Ev, symObjAddr: 0x460CC, symBinAddr: 0x100049170, symSize: 0xE4 }
  - { offsetInCU: 0x39AE9, offset: 0x39AE9, size: 0x8, addend: 0x0, symName: __ZNSt3__114__split_bufferIPNS_8functionIFvvEEENS_9allocatorIS4_EEED1Ev, symObjAddr: 0x461B0, symBinAddr: 0x100049254, symSize: 0x78 }
  - { offsetInCU: 0x39B15, offset: 0x39B15, size: 0x8, addend: 0x0, symName: __ZNSt3__15dequeINS_8functionIFvvEEENS_9allocatorIS3_EEE5beginB7v160006Ev, symObjAddr: 0x46228, symBinAddr: 0x1000492CC, symSize: 0x650 }
  - { offsetInCU: 0x39B4C, offset: 0x39B4C, size: 0x8, addend: 0x0, symName: __ZNSt3__15dequeINS_8functionIFvvEEENS_9allocatorIS3_EEE3endB7v160006Ev, symObjAddr: 0x46878, symBinAddr: 0x10004991C, symSize: 0x614 }
  - { offsetInCU: 0x39B93, offset: 0x39B93, size: 0x8, addend: 0x0, symName: __ZNSt3__116allocator_traitsINS_9allocatorINS_8functionIFvvEEEEEE7destroyB7v160006IS4_vEEvRS5_PT_, symObjAddr: 0x46F50, symBinAddr: 0x100049FF4, symSize: 0x2C }
  - { offsetInCU: 0x39BD0, offset: 0x39BD0, size: 0x8, addend: 0x0, symName: __ZNKSt3__116__deque_iteratorINS_8functionIFvvEEEPS3_RS3_PS4_lLl128EEdeB7v160006Ev, symObjAddr: 0x46F7C, symBinAddr: 0x10004A020, symSize: 0xF8 }
  - { offsetInCU: 0x39BF6, offset: 0x39BF6, size: 0x8, addend: 0x0, symName: __ZNSt3__116__deque_iteratorINS_8functionIFvvEEEPS3_RS3_PS4_lLl128EEppB7v160006Ev, symObjAddr: 0x47074, symBinAddr: 0x10004A118, symSize: 0x46C }
  - { offsetInCU: 0x39C1C, offset: 0x39C1C, size: 0x8, addend: 0x0, symName: __ZNSt3__15dequeINS_8functionIFvvEEENS_9allocatorIS3_EEE6__sizeB7v160006Ev, symObjAddr: 0x474E0, symBinAddr: 0x10004A584, symSize: 0x100 }
  - { offsetInCU: 0x39C42, offset: 0x39C42, size: 0x8, addend: 0x0, symName: __ZNKSt3__114__split_bufferIPNS_8functionIFvvEEENS_9allocatorIS4_EEE4sizeB7v160006Ev, symObjAddr: 0x475E0, symBinAddr: 0x10004A684, symSize: 0xFC }
  - { offsetInCU: 0x39C68, offset: 0x39C68, size: 0x8, addend: 0x0, symName: __ZNSt3__114__split_bufferIPNS_8functionIFvvEEENS_9allocatorIS4_EEE5frontB7v160006Ev, symObjAddr: 0x476DC, symBinAddr: 0x10004A780, symSize: 0xF8 }
  - { offsetInCU: 0x39C8E, offset: 0x39C8E, size: 0x8, addend: 0x0, symName: __ZNSt3__114__split_bufferIPNS_8functionIFvvEEENS_9allocatorIS4_EEE9pop_frontB7v160006Ev, symObjAddr: 0x477D4, symBinAddr: 0x10004A878, symSize: 0x150 }
  - { offsetInCU: 0x39CB4, offset: 0x39CB4, size: 0x8, addend: 0x0, symName: __ZNKSt3__114__split_bufferIPNS_8functionIFvvEEENS_9allocatorIS4_EEE5emptyB7v160006Ev, symObjAddr: 0x47924, symBinAddr: 0x10004A9C8, symSize: 0xFC }
  - { offsetInCU: 0x39CDA, offset: 0x39CDA, size: 0x8, addend: 0x0, symName: __ZNSt3__116__deque_iteratorINS_8functionIFvvEEEPS3_RS3_PS4_lLl128EEC1B7v160006ES6_S4_, symObjAddr: 0x47A20, symBinAddr: 0x10004AAC4, symSize: 0x88 }
  - { offsetInCU: 0x39D22, offset: 0x39D22, size: 0x8, addend: 0x0, symName: __ZNSt3__116__deque_iteratorINS_8functionIFvvEEEPS3_RS3_PS4_lLl128EEC2B7v160006ES6_S4_, symObjAddr: 0x47AA8, symBinAddr: 0x10004AB4C, symSize: 0x110 }
  - { offsetInCU: 0x39D6A, offset: 0x39D6A, size: 0x8, addend: 0x0, symName: __ZNKSt3__15dequeINS_8functionIFvvEEENS_9allocatorIS3_EEE4sizeB7v160006Ev, symObjAddr: 0x47BB8, symBinAddr: 0x10004AC5C, symSize: 0xF8 }
  - { offsetInCU: 0x39D90, offset: 0x39D90, size: 0x8, addend: 0x0, symName: __ZNKSt3__15dequeINS_8functionIFvvEEENS_9allocatorIS3_EEE6__sizeB7v160006Ev, symObjAddr: 0x47CB0, symBinAddr: 0x10004AD54, symSize: 0x100 }
  - { offsetInCU: 0x39DB6, offset: 0x39DB6, size: 0x8, addend: 0x0, symName: __ZNKSt3__117__compressed_pairImNS_9allocatorINS_8functionIFvvEEEEEE5firstB7v160006Ev, symObjAddr: 0x47DB0, symBinAddr: 0x10004AE54, symSize: 0x124 }
  - { offsetInCU: 0x39DDC, offset: 0x39DDC, size: 0x8, addend: 0x0, symName: __ZNSt3__19allocatorINS_8functionIFvvEEEE7destroyB7v160006EPS3_, symObjAddr: 0x47FF8, symBinAddr: 0x10004B09C, symSize: 0x9C }
  - { offsetInCU: 0x39E10, offset: 0x39E10, size: 0x8, addend: 0x0, symName: __ZNSt3__117__compressed_pairImNS_9allocatorINS_8functionIFvvEEEEEE5firstB7v160006Ev, symObjAddr: 0x48094, symBinAddr: 0x10004B138, symSize: 0x124 }
  - { offsetInCU: 0x39E36, offset: 0x39E36, size: 0x8, addend: 0x0, symName: __ZNSt3__114__split_bufferIPNS_8functionIFvvEEENS_9allocatorIS4_EEE19__destruct_at_beginB7v160006EPS4_, symObjAddr: 0x481B8, symBinAddr: 0x10004B25C, symSize: 0x74 }
  - { offsetInCU: 0x39E6A, offset: 0x39E6A, size: 0x8, addend: 0x0, symName: __ZNSt3__114__split_bufferIPNS_8functionIFvvEEENS_9allocatorIS4_EEE19__destruct_at_beginEPS4_NS_17integral_constantIbLb1EEE, symObjAddr: 0x4822C, symBinAddr: 0x10004B2D0, symSize: 0xC0 }
  - { offsetInCU: 0x39EAA, offset: 0x39EAA, size: 0x8, addend: 0x0, symName: __ZNSt3__19allocatorINS_8functionIFvvEEEE10deallocateB7v160006EPS3_m, symObjAddr: 0x482EC, symBinAddr: 0x10004B390, symSize: 0x78 }
  - { offsetInCU: 0x39EEC, offset: 0x39EEC, size: 0x8, addend: 0x0, symName: __ZNSt3__117__compressed_pairImNS_9allocatorINS_8functionIFvvEEEEEE6secondB7v160006Ev, symObjAddr: 0x48364, symBinAddr: 0x10004B408, symSize: 0x108 }
  - { offsetInCU: 0x39F12, offset: 0x39F12, size: 0x8, addend: 0x0, symName: __ZNSt3__122__compressed_pair_elemINS_9allocatorINS_8functionIFvvEEEEELi1ELb1EE5__getB7v160006Ev, symObjAddr: 0x4846C, symBinAddr: 0x10004B510, symSize: 0x74 }
  - { offsetInCU: 0x39F38, offset: 0x39F38, size: 0x8, addend: 0x0, symName: __ZNSt3__114__split_bufferIPNS_8functionIFvvEEENS_9allocatorIS4_EEED2Ev, symObjAddr: 0x484E0, symBinAddr: 0x10004B584, symSize: 0x16C }
  - { offsetInCU: 0x39F64, offset: 0x39F64, size: 0x8, addend: 0x0, symName: __ZNSt3__114__split_bufferIPNS_8functionIFvvEEENS_9allocatorIS4_EEE5clearB7v160006Ev, symObjAddr: 0x4864C, symBinAddr: 0x10004B6F0, symSize: 0xB4 }
  - { offsetInCU: 0x39F8A, offset: 0x39F8A, size: 0x8, addend: 0x0, symName: __ZNSt3__116allocator_traitsINS_9allocatorIPNS_8functionIFvvEEEEEE10deallocateB7v160006ERS6_PS5_m, symObjAddr: 0x48700, symBinAddr: 0x10004B7A4, symSize: 0x34 }
  - { offsetInCU: 0x39FCC, offset: 0x39FCC, size: 0x8, addend: 0x0, symName: __ZNSt3__114__split_bufferIPNS_8functionIFvvEEENS_9allocatorIS4_EEE7__allocB7v160006Ev, symObjAddr: 0x48734, symBinAddr: 0x10004B7D8, symSize: 0xE4 }
  - { offsetInCU: 0x39FF2, offset: 0x39FF2, size: 0x8, addend: 0x0, symName: __ZNKSt3__114__split_bufferIPNS_8functionIFvvEEENS_9allocatorIS4_EEE8capacityB7v160006Ev, symObjAddr: 0x48818, symBinAddr: 0x10004B8BC, symSize: 0x144 }
  - { offsetInCU: 0x3A018, offset: 0x3A018, size: 0x8, addend: 0x0, symName: __ZNSt3__114__split_bufferIPNS_8functionIFvvEEENS_9allocatorIS4_EEE17__destruct_at_endB7v160006EPS4_, symObjAddr: 0x4895C, symBinAddr: 0x10004BA00, symSize: 0x74 }
  - { offsetInCU: 0x3A04C, offset: 0x3A04C, size: 0x8, addend: 0x0, symName: __ZNSt3__114__split_bufferIPNS_8functionIFvvEEENS_9allocatorIS4_EEE17__destruct_at_endB7v160006EPS4_NS_17integral_constantIbLb0EEE, symObjAddr: 0x489D0, symBinAddr: 0x10004BA74, symSize: 0x224 }
  - { offsetInCU: 0x3A08C, offset: 0x3A08C, size: 0x8, addend: 0x0, symName: __ZNSt3__116allocator_traitsINS_9allocatorIPNS_8functionIFvvEEEEEE7destroyB7v160006IS5_vEEvRS6_PT_, symObjAddr: 0x48BF4, symBinAddr: 0x10004BC98, symSize: 0x2C }
  - { offsetInCU: 0x3A0C9, offset: 0x3A0C9, size: 0x8, addend: 0x0, symName: __ZNSt3__19allocatorIPNS_8functionIFvvEEEE7destroyB7v160006EPS4_, symObjAddr: 0x48C34, symBinAddr: 0x10004BCD8, symSize: 0x4C }
  - { offsetInCU: 0x3A0FD, offset: 0x3A0FD, size: 0x8, addend: 0x0, symName: __ZNSt3__19allocatorIPNS_8functionIFvvEEEE10deallocateB7v160006EPS4_m, symObjAddr: 0x48C80, symBinAddr: 0x10004BD24, symSize: 0x78 }
  - { offsetInCU: 0x3A13F, offset: 0x3A13F, size: 0x8, addend: 0x0, symName: __ZNSt3__117__compressed_pairIPPNS_8functionIFvvEEENS_9allocatorIS4_EEE6secondB7v160006Ev, symObjAddr: 0x48CF8, symBinAddr: 0x10004BD9C, symSize: 0x108 }
  - { offsetInCU: 0x3A165, offset: 0x3A165, size: 0x8, addend: 0x0, symName: __ZNSt3__122__compressed_pair_elemINS_9allocatorIPNS_8functionIFvvEEEEELi1ELb1EE5__getB7v160006Ev, symObjAddr: 0x48E00, symBinAddr: 0x10004BEA4, symSize: 0x74 }
  - { offsetInCU: 0x3A18B, offset: 0x3A18B, size: 0x8, addend: 0x0, symName: __ZNKSt3__114__split_bufferIPNS_8functionIFvvEEENS_9allocatorIS4_EEE9__end_capB7v160006Ev, symObjAddr: 0x48E74, symBinAddr: 0x10004BF18, symSize: 0x100 }
  - { offsetInCU: 0x3A1B1, offset: 0x3A1B1, size: 0x8, addend: 0x0, symName: __ZNKSt3__117__compressed_pairIPPNS_8functionIFvvEEENS_9allocatorIS4_EEE5firstB7v160006Ev, symObjAddr: 0x48F74, symBinAddr: 0x10004C018, symSize: 0x124 }
  - { offsetInCU: 0x3A1D7, offset: 0x3A1D7, size: 0x8, addend: 0x0, symName: __ZNKSt3__122__compressed_pair_elemIPPNS_8functionIFvvEEELi0ELb0EE5__getB7v160006Ev, symObjAddr: 0x49098, symBinAddr: 0x10004C13C, symSize: 0xAC }
  - { offsetInCU: 0x3A1FD, offset: 0x3A1FD, size: 0x8, addend: 0x0, symName: __ZNSt3__16vectorINS_6threadENS_9allocatorIS1_EEED2B7v160006Ev, symObjAddr: 0x49144, symBinAddr: 0x10004C1E8, symSize: 0x298 }
  - { offsetInCU: 0x3A228, offset: 0x3A228, size: 0x8, addend: 0x0, symName: __ZNSt3__16vectorINS_6threadENS_9allocatorIS1_EEE16__destroy_vectorC1ERS4_, symObjAddr: 0x493DC, symBinAddr: 0x10004C480, symSize: 0x80 }
  - { offsetInCU: 0x3A261, offset: 0x3A261, size: 0x8, addend: 0x0, symName: __ZNSt3__16vectorINS_6threadENS_9allocatorIS1_EEE16__destroy_vectorclB7v160006Ev, symObjAddr: 0x4945C, symBinAddr: 0x10004C500, symSize: 0x478 }
  - { offsetInCU: 0x3A287, offset: 0x3A287, size: 0x8, addend: 0x0, symName: __ZNSt3__16vectorINS_6threadENS_9allocatorIS1_EEE16__destroy_vectorC2ERS4_, symObjAddr: 0x498D4, symBinAddr: 0x10004C978, symSize: 0x108 }
  - { offsetInCU: 0x3A2C0, offset: 0x3A2C0, size: 0x8, addend: 0x0, symName: __ZNKSt3__16vectorINS_6threadENS_9allocatorIS1_EEE17__annotate_deleteB7v160006Ev, symObjAddr: 0x499DC, symBinAddr: 0x10004CA80, symSize: 0x370 }
  - { offsetInCU: 0x3A2E6, offset: 0x3A2E6, size: 0x8, addend: 0x0, symName: __ZNSt3__16vectorINS_6threadENS_9allocatorIS1_EEE7__clearB7v160006Ev, symObjAddr: 0x49D5C, symBinAddr: 0x10004CE00, symSize: 0xB0 }
  - { offsetInCU: 0x3A30C, offset: 0x3A30C, size: 0x8, addend: 0x0, symName: __ZNSt3__116allocator_traitsINS_9allocatorINS_6threadEEEE10deallocateB7v160006ERS3_PS2_m, symObjAddr: 0x49E0C, symBinAddr: 0x10004CEB0, symSize: 0x34 }
  - { offsetInCU: 0x3A34E, offset: 0x3A34E, size: 0x8, addend: 0x0, symName: __ZNSt3__16vectorINS_6threadENS_9allocatorIS1_EEE7__allocB7v160006Ev, symObjAddr: 0x49E40, symBinAddr: 0x10004CEE4, symSize: 0xE4 }
  - { offsetInCU: 0x3A374, offset: 0x3A374, size: 0x8, addend: 0x0, symName: __ZNKSt3__16vectorINS_6threadENS_9allocatorIS1_EEE8capacityB7v160006Ev, symObjAddr: 0x49F24, symBinAddr: 0x10004CFC8, symSize: 0x144 }
  - { offsetInCU: 0x3A39A, offset: 0x3A39A, size: 0x8, addend: 0x0, symName: __ZNKSt3__16vectorINS_6threadENS_9allocatorIS1_EEE31__annotate_contiguous_containerEPKvS6_S6_S6_, symObjAddr: 0x4A068, symBinAddr: 0x10004D10C, symSize: 0x9C }
  - { offsetInCU: 0x3A3FC, offset: 0x3A3FC, size: 0x8, addend: 0x0, symName: __ZNKSt3__16vectorINS_6threadENS_9allocatorIS1_EEE4dataB7v160006Ev, symObjAddr: 0x4A104, symBinAddr: 0x10004D1A8, symSize: 0xB0 }
  - { offsetInCU: 0x3A422, offset: 0x3A422, size: 0x8, addend: 0x0, symName: __ZNKSt3__16vectorINS_6threadENS_9allocatorIS1_EEE4sizeB7v160006Ev, symObjAddr: 0x4A1B4, symBinAddr: 0x10004D258, symSize: 0xF8 }
  - { offsetInCU: 0x3A448, offset: 0x3A448, size: 0x8, addend: 0x0, symName: __ZNSt3__16vectorINS_6threadENS_9allocatorIS1_EEE22__base_destruct_at_endB7v160006EPS1_, symObjAddr: 0x4A2C0, symBinAddr: 0x10004D364, symSize: 0x1FC }
  - { offsetInCU: 0x3A48C, offset: 0x3A48C, size: 0x8, addend: 0x0, symName: __ZNSt3__116allocator_traitsINS_9allocatorINS_6threadEEEE7destroyB7v160006IS2_vEEvRS3_PT_, symObjAddr: 0x4A4BC, symBinAddr: 0x10004D560, symSize: 0x2C }
  - { offsetInCU: 0x3A4C9, offset: 0x3A4C9, size: 0x8, addend: 0x0, symName: __ZNSt3__19allocatorINS_6threadEE7destroyB7v160006EPS1_, symObjAddr: 0x4A4E8, symBinAddr: 0x10004D58C, symSize: 0x9C }
  - { offsetInCU: 0x3A4FD, offset: 0x3A4FD, size: 0x8, addend: 0x0, symName: __ZNSt3__19allocatorINS_6threadEE10deallocateB7v160006EPS1_m, symObjAddr: 0x4A584, symBinAddr: 0x10004D628, symSize: 0x78 }
  - { offsetInCU: 0x3A53F, offset: 0x3A53F, size: 0x8, addend: 0x0, symName: __ZNSt3__117__compressed_pairIPNS_6threadENS_9allocatorIS1_EEE6secondB7v160006Ev, symObjAddr: 0x4A5FC, symBinAddr: 0x10004D6A0, symSize: 0x108 }
  - { offsetInCU: 0x3A565, offset: 0x3A565, size: 0x8, addend: 0x0, symName: __ZNSt3__122__compressed_pair_elemINS_9allocatorINS_6threadEEELi1ELb1EE5__getB7v160006Ev, symObjAddr: 0x4A704, symBinAddr: 0x10004D7A8, symSize: 0x74 }
  - { offsetInCU: 0x3A58B, offset: 0x3A58B, size: 0x8, addend: 0x0, symName: __ZNKSt3__16vectorINS_6threadENS_9allocatorIS1_EEE9__end_capB7v160006Ev, symObjAddr: 0x4A778, symBinAddr: 0x10004D81C, symSize: 0x100 }
  - { offsetInCU: 0x3A5B1, offset: 0x3A5B1, size: 0x8, addend: 0x0, symName: __ZNKSt3__117__compressed_pairIPNS_6threadENS_9allocatorIS1_EEE5firstB7v160006Ev, symObjAddr: 0x4A878, symBinAddr: 0x10004D91C, symSize: 0x124 }
  - { offsetInCU: 0x3A5D7, offset: 0x3A5D7, size: 0x8, addend: 0x0, symName: __ZNKSt3__122__compressed_pair_elemIPNS_6threadELi0ELb0EE5__getB7v160006Ev, symObjAddr: 0x4A99C, symBinAddr: 0x10004DA40, symSize: 0xAC }
  - { offsetInCU: 0x3A5FD, offset: 0x3A5FD, size: 0x8, addend: 0x0, symName: __ZNSt3__14pairI4CardS1_EC2B7v160006ILb1ELPv0EEEv, symObjAddr: 0x4AA48, symBinAddr: 0x10004DAEC, symSize: 0x84 }
  - { offsetInCU: 0x3A637, offset: 0x3A637, size: 0x8, addend: 0x0, symName: __ZN4CardC1Ev, symObjAddr: 0x4AACC, symBinAddr: 0x10004DB70, symSize: 0x78 }
  - { offsetInCU: 0x3A661, offset: 0x3A661, size: 0x8, addend: 0x0, symName: __ZN4CardC2Ev, symObjAddr: 0x4AB44, symBinAddr: 0x10004DBE8, symSize: 0x6C }
  - { offsetInCU: 0x3A68B, offset: 0x3A68B, size: 0x8, addend: 0x0, symName: __ZNSt3__112basic_stringIcNS_11char_traitsIcEENS_9allocatorIcEEEC2B7v160006IDnEEPKc, symObjAddr: 0x4ABB0, symBinAddr: 0x10004DC54, symSize: 0x280 }
  - { offsetInCU: 0x3A6CB, offset: 0x3A6CB, size: 0x8, addend: 0x0, symName: __ZNSt3__117__compressed_pairINS_12basic_stringIcNS_11char_traitsIcEENS_9allocatorIcEEE5__repES5_EC1B7v160006INS_18__default_init_tagESA_EEOT_OT0_, symObjAddr: 0x4AE30, symBinAddr: 0x10004DED4, symSize: 0x88 }
  - { offsetInCU: 0x3A723, offset: 0x3A723, size: 0x8, addend: 0x0, symName: __ZNSt3__111char_traitsIcE6lengthEPKc, symObjAddr: 0x4AEB8, symBinAddr: 0x10004DF5C, symSize: 0x40 }
  - { offsetInCU: 0x3A746, offset: 0x3A746, size: 0x8, addend: 0x0, symName: __ZNSt3__117__compressed_pairINS_12basic_stringIcNS_11char_traitsIcEENS_9allocatorIcEEE5__repES5_EC2B7v160006INS_18__default_init_tagESA_EEOT_OT0_, symObjAddr: 0x4AF08, symBinAddr: 0x10004DFAC, symSize: 0xF4 }
  - { offsetInCU: 0x3A79E, offset: 0x3A79E, size: 0x8, addend: 0x0, symName: __ZNSt3__122__compressed_pair_elemINS_12basic_stringIcNS_11char_traitsIcEENS_9allocatorIcEEE5__repELi0ELb0EEC2B7v160006ENS_18__default_init_tagE, symObjAddr: 0x4AFFC, symBinAddr: 0x10004E0A0, symSize: 0x6C }
  - { offsetInCU: 0x3A7D2, offset: 0x3A7D2, size: 0x8, addend: 0x0, symName: __ZNSt3__122__compressed_pair_elemINS_9allocatorIcEELi1ELb1EEC2B7v160006ENS_18__default_init_tagE, symObjAddr: 0x4B068, symBinAddr: 0x10004E10C, symSize: 0x84 }
  - { offsetInCU: 0x3A806, offset: 0x3A806, size: 0x8, addend: 0x0, symName: __ZNSt3__19allocatorIcEC2B7v160006Ev, symObjAddr: 0x4B0EC, symBinAddr: 0x10004E190, symSize: 0x84 }
  - { offsetInCU: 0x3A830, offset: 0x3A830, size: 0x8, addend: 0x0, symName: __ZNSt3__116__non_trivial_ifILb1ENS_9allocatorIcEEEC2B7v160006Ev, symObjAddr: 0x4B170, symBinAddr: 0x10004E214, symSize: 0x54 }
  - { offsetInCU: 0x3A85A, offset: 0x3A85A, size: 0x8, addend: 0x0, symName: __ZNSt3__113unordered_mapINS_12basic_stringIcNS_11char_traitsIcEENS_9allocatorIcEEEE5ValueNS_4hashIS6_EENS_8equal_toIS6_EENS4_INS_4pairIKS6_S7_EEEEEC2ESt16initializer_listISE_E, symObjAddr: 0x4B1E8, symBinAddr: 0x10004E28C, symSize: 0x324 }
  - { offsetInCU: 0x3A89A, offset: 0x3A89A, size: 0x8, addend: 0x0, symName: __ZNSt3__112__hash_tableINS_17__hash_value_typeINS_12basic_stringIcNS_11char_traitsIcEENS_9allocatorIcEEEE5ValueEENS_22__unordered_map_hasherIS7_S9_NS_4hashIS7_EENS_8equal_toIS7_EELb1EEENS_21__unordered_map_equalIS7_S9_SE_SC_Lb1EEENS5_IS9_EEEC1Ev, symObjAddr: 0x4B50C, symBinAddr: 0x10004E5B0, symSize: 0x78 }
  - { offsetInCU: 0x3A8C6, offset: 0x3A8C6, size: 0x8, addend: 0x0, symName: __ZNSt3__113unordered_mapINS_12basic_stringIcNS_11char_traitsIcEENS_9allocatorIcEEEE5ValueNS_4hashIS6_EENS_8equal_toIS6_EENS4_INS_4pairIKS6_S7_EEEEE6insertIPKSE_EEvT_SK_, symObjAddr: 0x4B594, symBinAddr: 0x10004E638, symSize: 0x390 }
  - { offsetInCU: 0x3A918, offset: 0x3A918, size: 0x8, addend: 0x0, symName: __ZNKSt16initializer_listINSt3__14pairIKNS0_12basic_stringIcNS0_11char_traitsIcEENS0_9allocatorIcEEEE5ValueEEE5beginB7v160006Ev, symObjAddr: 0x4B924, symBinAddr: 0x10004E9C8, symSize: 0xAC }
  - { offsetInCU: 0x3A93E, offset: 0x3A93E, size: 0x8, addend: 0x0, symName: __ZNKSt16initializer_listINSt3__14pairIKNS0_12basic_stringIcNS0_11char_traitsIcEENS0_9allocatorIcEEEE5ValueEEE3endB7v160006Ev, symObjAddr: 0x4B9D0, symBinAddr: 0x10004EA74, symSize: 0x1C0 }
  - { offsetInCU: 0x3A964, offset: 0x3A964, size: 0x8, addend: 0x0, symName: __ZNSt3__112__hash_tableINS_17__hash_value_typeINS_12basic_stringIcNS_11char_traitsIcEENS_9allocatorIcEEEE5ValueEENS_22__unordered_map_hasherIS7_S9_NS_4hashIS7_EENS_8equal_toIS7_EELb1EEENS_21__unordered_map_equalIS7_S9_SE_SC_Lb1EEENS5_IS9_EEED1Ev, symObjAddr: 0x4BB90, symBinAddr: 0x10004EC34, symSize: 0x78 }
  - { offsetInCU: 0x3A990, offset: 0x3A990, size: 0x8, addend: 0x0, symName: __ZNSt3__112__hash_tableINS_17__hash_value_typeINS_12basic_stringIcNS_11char_traitsIcEENS_9allocatorIcEEEE5ValueEENS_22__unordered_map_hasherIS7_S9_NS_4hashIS7_EENS_8equal_toIS7_EELb1EEENS_21__unordered_map_equalIS7_S9_SE_SC_Lb1EEENS5_IS9_EEEC2Ev, symObjAddr: 0x4BC08, symBinAddr: 0x10004ECAC, symSize: 0x3E0 }
  - { offsetInCU: 0x3A9BD, offset: 0x3A9BD, size: 0x8, addend: 0x0, symName: __ZNSt3__110unique_ptrIA_PNS_16__hash_node_baseIPNS_11__hash_nodeINS_17__hash_value_typeINS_12basic_stringIcNS_11char_traitsIcEENS_9allocatorIcEEEE5ValueEEPvEEEENS_25__bucket_list_deallocatorINS7_ISG_EEEEEC1B7v160006ILb1EvEEv, symObjAddr: 0x4BFE8, symBinAddr: 0x10004F08C, symSize: 0x78 }
  - { offsetInCU: 0x3A9F2, offset: 0x3A9F2, size: 0x8, addend: 0x0, symName: __ZNSt3__117__compressed_pairINS_16__hash_node_baseIPNS_11__hash_nodeINS_17__hash_value_typeINS_12basic_stringIcNS_11char_traitsIcEENS_9allocatorIcEEEE5ValueEEPvEEEENS7_ISD_EEEC1B7v160006ILb1EvEEv, symObjAddr: 0x4C060, symBinAddr: 0x10004F104, symSize: 0x78 }
  - { offsetInCU: 0x3AA27, offset: 0x3AA27, size: 0x8, addend: 0x0, symName: __ZNSt3__117__compressed_pairImNS_22__unordered_map_hasherINS_12basic_stringIcNS_11char_traitsIcEENS_9allocatorIcEEEENS_17__hash_value_typeIS7_5ValueEENS_4hashIS7_EENS_8equal_toIS7_EELb1EEEEC1B7v160006IiNS_18__default_init_tagEEEOT_OT0_, symObjAddr: 0x4C0D8, symBinAddr: 0x10004F17C, symSize: 0x88 }
  - { offsetInCU: 0x3AA7F, offset: 0x3AA7F, size: 0x8, addend: 0x0, symName: __ZNSt3__117__compressed_pairIfNS_21__unordered_map_equalINS_12basic_stringIcNS_11char_traitsIcEENS_9allocatorIcEEEENS_17__hash_value_typeIS7_5ValueEENS_8equal_toIS7_EENS_4hashIS7_EELb1EEEEC1B7v160006IfNS_18__default_init_tagEEEOT_OT0_, symObjAddr: 0x4C160, symBinAddr: 0x10004F204, symSize: 0x88 }
  - { offsetInCU: 0x3AAD7, offset: 0x3AAD7, size: 0x8, addend: 0x0, symName: __ZNSt3__110unique_ptrIA_PNS_16__hash_node_baseIPNS_11__hash_nodeINS_17__hash_value_typeINS_12basic_stringIcNS_11char_traitsIcEENS_9allocatorIcEEEE5ValueEEPvEEEENS_25__bucket_list_deallocatorINS7_ISG_EEEEEC2B7v160006ILb1EvEEv, symObjAddr: 0x4C1E8, symBinAddr: 0x10004F28C, symSize: 0x268 }
  - { offsetInCU: 0x3AB0D, offset: 0x3AB0D, size: 0x8, addend: 0x0, symName: __ZNSt3__117__compressed_pairIPPNS_16__hash_node_baseIPNS_11__hash_nodeINS_17__hash_value_typeINS_12basic_stringIcNS_11char_traitsIcEENS_9allocatorIcEEEE5ValueEEPvEEEENS_25__bucket_list_deallocatorINS7_ISG_EEEEEC1B7v160006INS_16__value_init_tagESN_EEOT_OT0_, symObjAddr: 0x4C450, symBinAddr: 0x10004F4F4, symSize: 0x88 }
  - { offsetInCU: 0x3AB65, offset: 0x3AB65, size: 0x8, addend: 0x0, symName: __ZNSt3__117__compressed_pairIPPNS_16__hash_node_baseIPNS_11__hash_nodeINS_17__hash_value_typeINS_12basic_stringIcNS_11char_traitsIcEENS_9allocatorIcEEEE5ValueEEPvEEEENS_25__bucket_list_deallocatorINS7_ISG_EEEEEC2B7v160006INS_16__value_init_tagESN_EEOT_OT0_, symObjAddr: 0x4C4D8, symBinAddr: 0x10004F57C, symSize: 0x118 }
  - { offsetInCU: 0x3ABBD, offset: 0x3ABBD, size: 0x8, addend: 0x0, symName: __ZNSt3__122__compressed_pair_elemIPPNS_16__hash_node_baseIPNS_11__hash_nodeINS_17__hash_value_typeINS_12basic_stringIcNS_11char_traitsIcEENS_9allocatorIcEEEE5ValueEEPvEEEELi0ELb0EEC2B7v160006ENS_16__value_init_tagE, symObjAddr: 0x4C5F0, symBinAddr: 0x10004F694, symSize: 0xB8 }
  - { offsetInCU: 0x3ABF1, offset: 0x3ABF1, size: 0x8, addend: 0x0, symName: __ZNSt3__122__compressed_pair_elemINS_25__bucket_list_deallocatorINS_9allocatorIPNS_16__hash_node_baseIPNS_11__hash_nodeINS_17__hash_value_typeINS_12basic_stringIcNS_11char_traitsIcEENS2_IcEEEE5ValueEEPvEEEEEEEELi1ELb0EEC2B7v160006ENS_16__value_init_tagE, symObjAddr: 0x4C6A8, symBinAddr: 0x10004F74C, symSize: 0x78 }
  - { offsetInCU: 0x3AC25, offset: 0x3AC25, size: 0x8, addend: 0x0, symName: __ZNSt3__125__bucket_list_deallocatorINS_9allocatorIPNS_16__hash_node_baseIPNS_11__hash_nodeINS_17__hash_value_typeINS_12basic_stringIcNS_11char_traitsIcEENS1_IcEEEE5ValueEEPvEEEEEEEC1B7v160006Ev, symObjAddr: 0x4C720, symBinAddr: 0x10004F7C4, symSize: 0x78 }
  - { offsetInCU: 0x3AC4F, offset: 0x3AC4F, size: 0x8, addend: 0x0, symName: __ZNSt3__125__bucket_list_deallocatorINS_9allocatorIPNS_16__hash_node_baseIPNS_11__hash_nodeINS_17__hash_value_typeINS_12basic_stringIcNS_11char_traitsIcEENS1_IcEEEE5ValueEEPvEEEEEEEC2B7v160006Ev, symObjAddr: 0x4C798, symBinAddr: 0x10004F83C, symSize: 0x2CC }
  - { offsetInCU: 0x3AC7A, offset: 0x3AC7A, size: 0x8, addend: 0x0, symName: __ZNSt3__117__compressed_pairImNS_9allocatorIPNS_16__hash_node_baseIPNS_11__hash_nodeINS_17__hash_value_typeINS_12basic_stringIcNS_11char_traitsIcEENS1_IcEEEE5ValueEEPvEEEEEEEC1B7v160006IiNS_18__default_init_tagEEEOT_OT0_, symObjAddr: 0x4CA64, symBinAddr: 0x10004FB08, symSize: 0x88 }
  - { offsetInCU: 0x3ACD2, offset: 0x3ACD2, size: 0x8, addend: 0x0, symName: __ZNSt3__117__compressed_pairImNS_9allocatorIPNS_16__hash_node_baseIPNS_11__hash_nodeINS_17__hash_value_typeINS_12basic_stringIcNS_11char_traitsIcEENS1_IcEEEE5ValueEEPvEEEEEEEC2B7v160006IiNS_18__default_init_tagEEEOT_OT0_, symObjAddr: 0x4CAEC, symBinAddr: 0x10004FB90, symSize: 0x140 }
  - { offsetInCU: 0x3AD2A, offset: 0x3AD2A, size: 0x8, addend: 0x0, symName: __ZNSt3__122__compressed_pair_elemINS_9allocatorIPNS_16__hash_node_baseIPNS_11__hash_nodeINS_17__hash_value_typeINS_12basic_stringIcNS_11char_traitsIcEENS1_IcEEEE5ValueEEPvEEEEEELi1ELb1EEC2B7v160006ENS_18__default_init_tagE, symObjAddr: 0x4CC2C, symBinAddr: 0x10004FCD0, symSize: 0x84 }
  - { offsetInCU: 0x3AD5E, offset: 0x3AD5E, size: 0x8, addend: 0x0, symName: __ZNSt3__19allocatorIPNS_16__hash_node_baseIPNS_11__hash_nodeINS_17__hash_value_typeINS_12basic_stringIcNS_11char_traitsIcEENS0_IcEEEE5ValueEEPvEEEEEC2B7v160006Ev, symObjAddr: 0x4CCB0, symBinAddr: 0x10004FD54, symSize: 0x84 }
  - { offsetInCU: 0x3AD88, offset: 0x3AD88, size: 0x8, addend: 0x0, symName: __ZNSt3__116__non_trivial_ifILb1ENS_9allocatorIPNS_16__hash_node_baseIPNS_11__hash_nodeINS_17__hash_value_typeINS_12basic_stringIcNS_11char_traitsIcEENS1_IcEEEE5ValueEEPvEEEEEEEC2B7v160006Ev, symObjAddr: 0x4CD34, symBinAddr: 0x10004FDD8, symSize: 0x54 }
  - { offsetInCU: 0x3ADB2, offset: 0x3ADB2, size: 0x8, addend: 0x0, symName: __ZNSt3__117__compressed_pairINS_16__hash_node_baseIPNS_11__hash_nodeINS_17__hash_value_typeINS_12basic_stringIcNS_11char_traitsIcEENS_9allocatorIcEEEE5ValueEEPvEEEENS7_ISD_EEEC2B7v160006ILb1EvEEv, symObjAddr: 0x4CD88, symBinAddr: 0x10004FE2C, symSize: 0xEC }
  - { offsetInCU: 0x3ADE7, offset: 0x3ADE7, size: 0x8, addend: 0x0, symName: __ZNSt3__122__compressed_pair_elemINS_16__hash_node_baseIPNS_11__hash_nodeINS_17__hash_value_typeINS_12basic_stringIcNS_11char_traitsIcEENS_9allocatorIcEEEE5ValueEEPvEEEELi0ELb0EEC2B7v160006ENS_16__value_init_tagE, symObjAddr: 0x4CE74, symBinAddr: 0x10004FF18, symSize: 0x78 }
  - { offsetInCU: 0x3AE1B, offset: 0x3AE1B, size: 0x8, addend: 0x0, symName: __ZNSt3__122__compressed_pair_elemINS_9allocatorINS_11__hash_nodeINS_17__hash_value_typeINS_12basic_stringIcNS_11char_traitsIcEENS1_IcEEEE5ValueEEPvEEEELi1ELb1EEC2B7v160006ENS_16__value_init_tagE, symObjAddr: 0x4CEEC, symBinAddr: 0x10004FF90, symSize: 0x84 }
  - { offsetInCU: 0x3AE4F, offset: 0x3AE4F, size: 0x8, addend: 0x0, symName: __ZNSt3__116__hash_node_baseIPNS_11__hash_nodeINS_17__hash_value_typeINS_12basic_stringIcNS_11char_traitsIcEENS_9allocatorIcEEEE5ValueEEPvEEEC1B7v160006Ev, symObjAddr: 0x4CF70, symBinAddr: 0x100050014, symSize: 0x78 }
  - { offsetInCU: 0x3AE79, offset: 0x3AE79, size: 0x8, addend: 0x0, symName: __ZNSt3__116__hash_node_baseIPNS_11__hash_nodeINS_17__hash_value_typeINS_12basic_stringIcNS_11char_traitsIcEENS_9allocatorIcEEEE5ValueEEPvEEEC2B7v160006Ev, symObjAddr: 0x4CFE8, symBinAddr: 0x10005008C, symSize: 0xB8 }
  - { offsetInCU: 0x3AEA3, offset: 0x3AEA3, size: 0x8, addend: 0x0, symName: __ZNSt3__19allocatorINS_11__hash_nodeINS_17__hash_value_typeINS_12basic_stringIcNS_11char_traitsIcEENS0_IcEEEE5ValueEEPvEEEC2B7v160006Ev, symObjAddr: 0x4D0A0, symBinAddr: 0x100050144, symSize: 0x84 }
  - { offsetInCU: 0x3AECD, offset: 0x3AECD, size: 0x8, addend: 0x0, symName: __ZNSt3__116__non_trivial_ifILb1ENS_9allocatorINS_11__hash_nodeINS_17__hash_value_typeINS_12basic_stringIcNS_11char_traitsIcEENS1_IcEEEE5ValueEEPvEEEEEC2B7v160006Ev, symObjAddr: 0x4D124, symBinAddr: 0x1000501C8, symSize: 0x54 }
  - { offsetInCU: 0x3AEF7, offset: 0x3AEF7, size: 0x8, addend: 0x0, symName: __ZNSt3__117__compressed_pairImNS_22__unordered_map_hasherINS_12basic_stringIcNS_11char_traitsIcEENS_9allocatorIcEEEENS_17__hash_value_typeIS7_5ValueEENS_4hashIS7_EENS_8equal_toIS7_EELb1EEEEC2B7v160006IiNS_18__default_init_tagEEEOT_OT0_, symObjAddr: 0x4D178, symBinAddr: 0x10005021C, symSize: 0x140 }
  - { offsetInCU: 0x3AF4F, offset: 0x3AF4F, size: 0x8, addend: 0x0, symName: __ZNSt3__122__compressed_pair_elemINS_22__unordered_map_hasherINS_12basic_stringIcNS_11char_traitsIcEENS_9allocatorIcEEEENS_17__hash_value_typeIS7_5ValueEENS_4hashIS7_EENS_8equal_toIS7_EELb1EEELi1ELb1EEC2B7v160006ENS_18__default_init_tagE, symObjAddr: 0x4D2B8, symBinAddr: 0x10005035C, symSize: 0x84 }
  - { offsetInCU: 0x3AF83, offset: 0x3AF83, size: 0x8, addend: 0x0, symName: __ZNSt3__122__unordered_map_hasherINS_12basic_stringIcNS_11char_traitsIcEENS_9allocatorIcEEEENS_17__hash_value_typeIS6_5ValueEENS_4hashIS6_EENS_8equal_toIS6_EELb1EEC2B7v160006Ev, symObjAddr: 0x4D33C, symBinAddr: 0x1000503E0, symSize: 0x54 }
  - { offsetInCU: 0x3AFAD, offset: 0x3AFAD, size: 0x8, addend: 0x0, symName: __ZNSt3__117__compressed_pairIfNS_21__unordered_map_equalINS_12basic_stringIcNS_11char_traitsIcEENS_9allocatorIcEEEENS_17__hash_value_typeIS7_5ValueEENS_8equal_toIS7_EENS_4hashIS7_EELb1EEEEC2B7v160006IfNS_18__default_init_tagEEEOT_OT0_, symObjAddr: 0x4D390, symBinAddr: 0x100050434, symSize: 0x140 }
  - { offsetInCU: 0x3B005, offset: 0x3B005, size: 0x8, addend: 0x0, symName: __ZNSt3__122__compressed_pair_elemINS_21__unordered_map_equalINS_12basic_stringIcNS_11char_traitsIcEENS_9allocatorIcEEEENS_17__hash_value_typeIS7_5ValueEENS_8equal_toIS7_EENS_4hashIS7_EELb1EEELi1ELb1EEC2B7v160006ENS_18__default_init_tagE, symObjAddr: 0x4D4D0, symBinAddr: 0x100050574, symSize: 0x84 }
  - { offsetInCU: 0x3B039, offset: 0x3B039, size: 0x8, addend: 0x0, symName: __ZNSt3__121__unordered_map_equalINS_12basic_stringIcNS_11char_traitsIcEENS_9allocatorIcEEEENS_17__hash_value_typeIS6_5ValueEENS_8equal_toIS6_EENS_4hashIS6_EELb1EEC2B7v160006Ev, symObjAddr: 0x4D554, symBinAddr: 0x1000505F8, symSize: 0x54 }
  - { offsetInCU: 0x3B063, offset: 0x3B063, size: 0x8, addend: 0x0, symName: __ZNSt3__112__hash_tableINS_17__hash_value_typeINS_12basic_stringIcNS_11char_traitsIcEENS_9allocatorIcEEEE5ValueEENS_22__unordered_map_hasherIS7_S9_NS_4hashIS7_EENS_8equal_toIS7_EELb1EEENS_21__unordered_map_equalIS7_S9_SE_SC_Lb1EEENS5_IS9_EEE15__insert_uniqueB7v160006ERKNS_4pairIKS7_S8_EE, symObjAddr: 0x4D5A8, symBinAddr: 0x10005064C, symSize: 0x34C }
  - { offsetInCU: 0x3B09A, offset: 0x3B09A, size: 0x8, addend: 0x0, symName: __ZNSt3__112__hash_tableINS_17__hash_value_typeINS_12basic_stringIcNS_11char_traitsIcEENS_9allocatorIcEEEE5ValueEENS_22__unordered_map_hasherIS7_S9_NS_4hashIS7_EENS_8equal_toIS7_EELb1EEENS_21__unordered_map_equalIS7_S9_SE_SC_Lb1EEENS5_IS9_EEE25__emplace_unique_key_argsIS7_JRKNS_4pairIKS7_S8_EEEEENSL_INS_15__hash_iteratorIPNS_11__hash_nodeIS9_PvEEEEbEERKT_DpOT0_, symObjAddr: 0x4D8F4, symBinAddr: 0x100050998, symSize: 0x1D08 }
  - { offsetInCU: 0x3B183, offset: 0x3B183, size: 0x8, addend: 0x0, symName: __ZNSt3__122__hash_key_value_typesINS_17__hash_value_typeINS_12basic_stringIcNS_11char_traitsIcEENS_9allocatorIcEEEE5ValueEEE9__get_keyB7v160006ERKNS_4pairIKS7_S8_EE, symObjAddr: 0x4F5FC, symBinAddr: 0x1000526A0, symSize: 0x68 }
  - { offsetInCU: 0x3B1A6, offset: 0x3B1A6, size: 0x8, addend: 0x0, symName: __ZNSt3__112__hash_tableINS_17__hash_value_typeINS_12basic_stringIcNS_11char_traitsIcEENS_9allocatorIcEEEE5ValueEENS_22__unordered_map_hasherIS7_S9_NS_4hashIS7_EENS_8equal_toIS7_EELb1EEENS_21__unordered_map_equalIS7_S9_SE_SC_Lb1EEENS5_IS9_EEE13hash_functionB7v160006Ev, symObjAddr: 0x4F664, symBinAddr: 0x100052708, symSize: 0xE4 }
  - { offsetInCU: 0x3B1CC, offset: 0x3B1CC, size: 0x8, addend: 0x0, symName: __ZNKSt3__122__unordered_map_hasherINS_12basic_stringIcNS_11char_traitsIcEENS_9allocatorIcEEEENS_17__hash_value_typeIS6_5ValueEENS_4hashIS6_EENS_8equal_toIS6_EELb1EEclB7v160006ERKS6_, symObjAddr: 0x4F748, symBinAddr: 0x1000527EC, symSize: 0xC8 }
  - { offsetInCU: 0x3B201, offset: 0x3B201, size: 0x8, addend: 0x0, symName: __ZNKSt3__112__hash_tableINS_17__hash_value_typeINS_12basic_stringIcNS_11char_traitsIcEENS_9allocatorIcEEEE5ValueEENS_22__unordered_map_hasherIS7_S9_NS_4hashIS7_EENS_8equal_toIS7_EELb1EEENS_21__unordered_map_equalIS7_S9_SE_SC_Lb1EEENS5_IS9_EEE12bucket_countB7v160006Ev, symObjAddr: 0x4F810, symBinAddr: 0x1000528B4, symSize: 0xFC }
  - { offsetInCU: 0x3B227, offset: 0x3B227, size: 0x8, addend: 0x0, symName: __ZNKSt3__110unique_ptrIA_PNS_16__hash_node_baseIPNS_11__hash_nodeINS_17__hash_value_typeINS_12basic_stringIcNS_11char_traitsIcEENS_9allocatorIcEEEE5ValueEEPvEEEENS_25__bucket_list_deallocatorINS7_ISG_EEEEEixB7v160006Em, symObjAddr: 0x4F9E8, symBinAddr: 0x100052A8C, symSize: 0x25C }
  - { offsetInCU: 0x3B25C, offset: 0x3B25C, size: 0x8, addend: 0x0, symName: __ZNKSt3__116__hash_node_baseIPNS_11__hash_nodeINS_17__hash_value_typeINS_12basic_stringIcNS_11char_traitsIcEENS_9allocatorIcEEEE5ValueEEPvEEE6__hashB7v160006Ev, symObjAddr: 0x4FC44, symBinAddr: 0x100052CE8, symSize: 0x180 }
  - { offsetInCU: 0x3B282, offset: 0x3B282, size: 0x8, addend: 0x0, symName: __ZNSt3__112__hash_tableINS_17__hash_value_typeINS_12basic_stringIcNS_11char_traitsIcEENS_9allocatorIcEEEE5ValueEENS_22__unordered_map_hasherIS7_S9_NS_4hashIS7_EENS_8equal_toIS7_EELb1EEENS_21__unordered_map_equalIS7_S9_SE_SC_Lb1EEENS5_IS9_EEE6key_eqB7v160006Ev, symObjAddr: 0x4FDC4, symBinAddr: 0x100052E68, symSize: 0xE4 }
  - { offsetInCU: 0x3B2A8, offset: 0x3B2A8, size: 0x8, addend: 0x0, symName: __ZNKSt3__121__unordered_map_equalINS_12basic_stringIcNS_11char_traitsIcEENS_9allocatorIcEEEENS_17__hash_value_typeIS6_5ValueEENS_8equal_toIS6_EENS_4hashIS6_EELb1EEclB7v160006ERKS9_RKS6_, symObjAddr: 0x4FEA8, symBinAddr: 0x100052F4C, symSize: 0x190 }
  - { offsetInCU: 0x3B2EC, offset: 0x3B2EC, size: 0x8, addend: 0x0, symName: __ZNSt3__112__hash_tableINS_17__hash_value_typeINS_12basic_stringIcNS_11char_traitsIcEENS_9allocatorIcEEEE5ValueEENS_22__unordered_map_hasherIS7_S9_NS_4hashIS7_EENS_8equal_toIS7_EELb1EEENS_21__unordered_map_equalIS7_S9_SE_SC_Lb1EEENS5_IS9_EEE21__construct_node_hashIRKNS_4pairIKS7_S8_EEJEEENS_10unique_ptrINS_11__hash_nodeIS9_PvEENS_22__hash_node_destructorINS5_IST_EEEEEEmOT_DpOT0_, symObjAddr: 0x50038, symBinAddr: 0x1000530DC, symSize: 0x8E0 }
  - { offsetInCU: 0x3B364, offset: 0x3B364, size: 0x8, addend: 0x0, symName: __ZNSt3__112__hash_tableINS_17__hash_value_typeINS_12basic_stringIcNS_11char_traitsIcEENS_9allocatorIcEEEE5ValueEENS_22__unordered_map_hasherIS7_S9_NS_4hashIS7_EENS_8equal_toIS7_EELb1EEENS_21__unordered_map_equalIS7_S9_SE_SC_Lb1EEENS5_IS9_EEE4sizeB7v160006Ev, symObjAddr: 0x50918, symBinAddr: 0x1000539BC, symSize: 0x100 }
  - { offsetInCU: 0x3B38A, offset: 0x3B38A, size: 0x8, addend: 0x0, symName: __ZNSt3__112__hash_tableINS_17__hash_value_typeINS_12basic_stringIcNS_11char_traitsIcEENS_9allocatorIcEEEE5ValueEENS_22__unordered_map_hasherIS7_S9_NS_4hashIS7_EENS_8equal_toIS7_EELb1EEENS_21__unordered_map_equalIS7_S9_SE_SC_Lb1EEENS5_IS9_EEE15max_load_factorB7v160006Ev, symObjAddr: 0x50A18, symBinAddr: 0x100053ABC, symSize: 0x100 }
  - { offsetInCU: 0x3B3B0, offset: 0x3B3B0, size: 0x8, addend: 0x0, symName: __ZNSt3__112__hash_tableINS_17__hash_value_typeINS_12basic_stringIcNS_11char_traitsIcEENS_9allocatorIcEEEE5ValueEENS_22__unordered_map_hasherIS7_S9_NS_4hashIS7_EENS_8equal_toIS7_EELb1EEENS_21__unordered_map_equalIS7_S9_SE_SC_Lb1EEENS5_IS9_EEE15__rehash_uniqueB7v160006Em, symObjAddr: 0x50B18, symBinAddr: 0x100053BBC, symSize: 0x74 }
  - { offsetInCU: 0x3B3E5, offset: 0x3B3E5, size: 0x8, addend: 0x0, symName: __Z4ceilB7v160006f, symObjAddr: 0x50BDC, symBinAddr: 0x100053C80, symSize: 0x18 }
  - { offsetInCU: 0x3B414, offset: 0x3B414, size: 0x8, addend: 0x0, symName: __ZNSt3__116__hash_node_baseIPNS_11__hash_nodeINS_17__hash_value_typeINS_12basic_stringIcNS_11char_traitsIcEENS_9allocatorIcEEEE5ValueEEPvEEE5__ptrB7v160006Ev, symObjAddr: 0x50BF4, symBinAddr: 0x100053C98, symSize: 0xB0 }
  - { offsetInCU: 0x3B43A, offset: 0x3B43A, size: 0x8, addend: 0x0, symName: __ZNKSt3__110unique_ptrINS_11__hash_nodeINS_17__hash_value_typeINS_12basic_stringIcNS_11char_traitsIcEENS_9allocatorIcEEEE5ValueEEPvEENS_22__hash_node_destructorINS6_ISC_EEEEEptB7v160006Ev, symObjAddr: 0x50CA4, symBinAddr: 0x100053D48, symSize: 0x13C }
  - { offsetInCU: 0x3B460, offset: 0x3B460, size: 0x8, addend: 0x0, symName: __ZNKSt3__110unique_ptrINS_11__hash_nodeINS_17__hash_value_typeINS_12basic_stringIcNS_11char_traitsIcEENS_9allocatorIcEEEE5ValueEEPvEENS_22__hash_node_destructorINS6_ISC_EEEEE3getB7v160006Ev, symObjAddr: 0x50DE0, symBinAddr: 0x100053E84, symSize: 0x13C }
  - { offsetInCU: 0x3B486, offset: 0x3B486, size: 0x8, addend: 0x0, symName: __ZNSt3__110unique_ptrINS_11__hash_nodeINS_17__hash_value_typeINS_12basic_stringIcNS_11char_traitsIcEENS_9allocatorIcEEEE5ValueEEPvEENS_22__hash_node_destructorINS6_ISC_EEEEE7releaseB7v160006Ev, symObjAddr: 0x50F1C, symBinAddr: 0x100053FC0, symSize: 0x20C }
  - { offsetInCU: 0x3B4BB, offset: 0x3B4BB, size: 0x8, addend: 0x0, symName: __ZNSt3__110unique_ptrINS_11__hash_nodeINS_17__hash_value_typeINS_12basic_stringIcNS_11char_traitsIcEENS_9allocatorIcEEEE5ValueEEPvEENS_22__hash_node_destructorINS6_ISC_EEEEED1B7v160006Ev, symObjAddr: 0x51128, symBinAddr: 0x1000541CC, symSize: 0x78 }
  - { offsetInCU: 0x3B4F1, offset: 0x3B4F1, size: 0x8, addend: 0x0, symName: __ZNSt3__14pairINS_15__hash_iteratorIPNS_11__hash_nodeINS_17__hash_value_typeINS_12basic_stringIcNS_11char_traitsIcEENS_9allocatorIcEEEE5ValueEEPvEEEEbEC1B7v160006ISF_RbLSC_0EEEOT_OT0_, symObjAddr: 0x511A0, symBinAddr: 0x100054244, symSize: 0x88 }
  - { offsetInCU: 0x3B54F, offset: 0x3B54F, size: 0x8, addend: 0x0, symName: __ZNSt3__117__compressed_pairImNS_22__unordered_map_hasherINS_12basic_stringIcNS_11char_traitsIcEENS_9allocatorIcEEEENS_17__hash_value_typeIS7_5ValueEENS_4hashIS7_EENS_8equal_toIS7_EELb1EEEE6secondB7v160006Ev, symObjAddr: 0x51228, symBinAddr: 0x1000542CC, symSize: 0x108 }
  - { offsetInCU: 0x3B575, offset: 0x3B575, size: 0x8, addend: 0x0, symName: __ZNSt3__122__compressed_pair_elemINS_22__unordered_map_hasherINS_12basic_stringIcNS_11char_traitsIcEENS_9allocatorIcEEEENS_17__hash_value_typeIS7_5ValueEENS_4hashIS7_EENS_8equal_toIS7_EELb1EEELi1ELb1EE5__getB7v160006Ev, symObjAddr: 0x51330, symBinAddr: 0x1000543D4, symSize: 0x74 }
  - { offsetInCU: 0x3B59B, offset: 0x3B59B, size: 0x8, addend: 0x0, symName: __ZNKSt3__113__string_hashIcNS_9allocatorIcEEEclERKNS_12basic_stringIcNS_11char_traitsIcEES2_EE, symObjAddr: 0x513A4, symBinAddr: 0x100054448, symSize: 0x1EC }
  - { offsetInCU: 0x3B5D0, offset: 0x3B5D0, size: 0x8, addend: 0x0, symName: __ZNKSt3__112basic_stringIcNS_11char_traitsIcEENS_9allocatorIcEEE4dataB7v160006Ev, symObjAddr: 0x5177C, symBinAddr: 0x100054820, symSize: 0x70 }
  - { offsetInCU: 0x3B5F6, offset: 0x3B5F6, size: 0x8, addend: 0x0, symName: __ZNKSt3__112basic_stringIcNS_11char_traitsIcEENS_9allocatorIcEEE4sizeB7v160006Ev, symObjAddr: 0x517EC, symBinAddr: 0x100054890, symSize: 0x98 }
  - { offsetInCU: 0x3B61C, offset: 0x3B61C, size: 0x8, addend: 0x0, symName: __ZNSt3__121__murmur2_or_cityhashImLm64EEclEPKvm, symObjAddr: 0x51884, symBinAddr: 0x100054928, symSize: 0x1C6C }
  - { offsetInCU: 0x3B6C9, offset: 0x3B6C9, size: 0x8, addend: 0x0, symName: __ZNSt3__121__murmur2_or_cityhashImLm64EE18__hash_len_0_to_16EPKcm, symObjAddr: 0x534F0, symBinAddr: 0x100056594, symSize: 0x88C }
  - { offsetInCU: 0x3B7A7, offset: 0x3B7A7, size: 0x8, addend: 0x0, symName: __ZNSt3__121__murmur2_or_cityhashImLm64EE19__hash_len_17_to_32EPKcm, symObjAddr: 0x53D7C, symBinAddr: 0x100056E20, symSize: 0x494 }
  - { offsetInCU: 0x3B810, offset: 0x3B810, size: 0x8, addend: 0x0, symName: __ZNSt3__121__murmur2_or_cityhashImLm64EE19__hash_len_33_to_64EPKcm, symObjAddr: 0x54210, symBinAddr: 0x1000572B4, symSize: 0xBEC }
  - { offsetInCU: 0x3B8C4, offset: 0x3B8C4, size: 0x8, addend: 0x0, symName: __ZNSt3__121__murmur2_or_cityhashImLm64EE13__hash_len_16Emm, symObjAddr: 0x55010, symBinAddr: 0x1000580B4, symSize: 0xF0 }
  - { offsetInCU: 0x3B91F, offset: 0x3B91F, size: 0x8, addend: 0x0, symName: __ZNSt3__121__murmur2_or_cityhashImLm64EE29__weak_hash_len_32_with_seedsEPKcmm, symObjAddr: 0x55100, symBinAddr: 0x1000581A4, symSize: 0x42C }
  - { offsetInCU: 0x3B961, offset: 0x3B961, size: 0x8, addend: 0x0, symName: __ZNSt3__121__murmur2_or_cityhashImLm64EE8__rotateEmi, symObjAddr: 0x5552C, symBinAddr: 0x1000585D0, symSize: 0x11C }
  - { offsetInCU: 0x3B992, offset: 0x3B992, size: 0x8, addend: 0x0, symName: __ZNSt3__14pairImmEaSB7v160006EOS1_, symObjAddr: 0x55648, symBinAddr: 0x1000586EC, symSize: 0x248 }
  - { offsetInCU: 0x3B9C7, offset: 0x3B9C7, size: 0x8, addend: 0x0, symName: __ZNSt3__121__murmur2_or_cityhashImLm64EE11__shift_mixEm, symObjAddr: 0x55A50, symBinAddr: 0x100058AF4, symSize: 0x5C }
  - { offsetInCU: 0x3B9EA, offset: 0x3B9EA, size: 0x8, addend: 0x0, symName: __ZNSt3__121__murmur2_or_cityhashImLm64EE22__rotate_by_at_least_1Emi, symObjAddr: 0x55AAC, symBinAddr: 0x100058B50, symSize: 0xF0 }
  - { offsetInCU: 0x3BA1B, offset: 0x3BA1B, size: 0x8, addend: 0x0, symName: __ZNSt3__121__murmur2_or_cityhashImLm64EE29__weak_hash_len_32_with_seedsEmmmmmm, symObjAddr: 0x55DDC, symBinAddr: 0x100058E80, symSize: 0x398 }
  - { offsetInCU: 0x3BA9F, offset: 0x3BA9F, size: 0x8, addend: 0x0, symName: __ZNSt3__14pairImmEC1B7v160006ImmLPv0EEEOT_OT0_, symObjAddr: 0x56174, symBinAddr: 0x100059218, symSize: 0x88 }
  - { offsetInCU: 0x3BAFD, offset: 0x3BAFD, size: 0x8, addend: 0x0, symName: __ZNSt3__14pairImmEC2B7v160006ImmLPv0EEEOT_OT0_, symObjAddr: 0x561FC, symBinAddr: 0x1000592A0, symSize: 0x210 }
  - { offsetInCU: 0x3BB5B, offset: 0x3BB5B, size: 0x8, addend: 0x0, symName: __ZNKSt3__112basic_stringIcNS_11char_traitsIcEENS_9allocatorIcEEE13__get_pointerB7v160006Ev, symObjAddr: 0x56420, symBinAddr: 0x1000594C4, symSize: 0x98 }
  - { offsetInCU: 0x3BB81, offset: 0x3BB81, size: 0x8, addend: 0x0, symName: __ZNKSt3__112basic_stringIcNS_11char_traitsIcEENS_9allocatorIcEEE9__is_longB7v160006Ev, symObjAddr: 0x564B8, symBinAddr: 0x10005955C, symSize: 0x1FC }
  - { offsetInCU: 0x3BBA7, offset: 0x3BBA7, size: 0x8, addend: 0x0, symName: __ZNKSt3__112basic_stringIcNS_11char_traitsIcEENS_9allocatorIcEEE18__get_long_pointerB7v160006Ev, symObjAddr: 0x566B4, symBinAddr: 0x100059758, symSize: 0x208 }
  - { offsetInCU: 0x3BBCD, offset: 0x3BBCD, size: 0x8, addend: 0x0, symName: __ZNKSt3__112basic_stringIcNS_11char_traitsIcEENS_9allocatorIcEEE19__get_short_pointerB7v160006Ev, symObjAddr: 0x568BC, symBinAddr: 0x100059960, symSize: 0x1CC }
  - { offsetInCU: 0x3BBF3, offset: 0x3BBF3, size: 0x8, addend: 0x0, symName: __ZNKSt3__117__compressed_pairINS_12basic_stringIcNS_11char_traitsIcEENS_9allocatorIcEEE5__repES5_E5firstB7v160006Ev, symObjAddr: 0x56A88, symBinAddr: 0x100059B2C, symSize: 0x124 }
  - { offsetInCU: 0x3BC19, offset: 0x3BC19, size: 0x8, addend: 0x0, symName: __ZNKSt3__122__compressed_pair_elemINS_12basic_stringIcNS_11char_traitsIcEENS_9allocatorIcEEE5__repELi0ELb0EE5__getB7v160006Ev, symObjAddr: 0x56BAC, symBinAddr: 0x100059C50, symSize: 0xAC }
  - { offsetInCU: 0x3BC3F, offset: 0x3BC3F, size: 0x8, addend: 0x0, symName: __ZNSt3__114pointer_traitsIPKcE10pointer_toB7v160006ERS1_, symObjAddr: 0x56C58, symBinAddr: 0x100059CFC, symSize: 0x14 }
  - { offsetInCU: 0x3BC62, offset: 0x3BC62, size: 0x8, addend: 0x0, symName: __ZNKSt3__112basic_stringIcNS_11char_traitsIcEENS_9allocatorIcEEE15__get_long_sizeB7v160006Ev, symObjAddr: 0x56C6C, symBinAddr: 0x100059D10, symSize: 0x210 }
  - { offsetInCU: 0x3BC88, offset: 0x3BC88, size: 0x8, addend: 0x0, symName: __ZNKSt3__112basic_stringIcNS_11char_traitsIcEENS_9allocatorIcEEE16__get_short_sizeB7v160006Ev, symObjAddr: 0x56E7C, symBinAddr: 0x100059F20, symSize: 0x1F8 }
  - { offsetInCU: 0x3BCAE, offset: 0x3BCAE, size: 0x8, addend: 0x0, symName: __ZNKSt3__110unique_ptrIA_PNS_16__hash_node_baseIPNS_11__hash_nodeINS_17__hash_value_typeINS_12basic_stringIcNS_11char_traitsIcEENS_9allocatorIcEEEE5ValueEEPvEEEENS_25__bucket_list_deallocatorINS7_ISG_EEEEE11get_deleterB7v160006Ev, symObjAddr: 0x57074, symBinAddr: 0x10005A118, symSize: 0xF8 }
  - { offsetInCU: 0x3BCD4, offset: 0x3BCD4, size: 0x8, addend: 0x0, symName: __ZNKSt3__125__bucket_list_deallocatorINS_9allocatorIPNS_16__hash_node_baseIPNS_11__hash_nodeINS_17__hash_value_typeINS_12basic_stringIcNS_11char_traitsIcEENS1_IcEEEE5ValueEEPvEEEEEEE4sizeB7v160006Ev, symObjAddr: 0x5716C, symBinAddr: 0x10005A210, symSize: 0x13C }
  - { offsetInCU: 0x3BCFA, offset: 0x3BCFA, size: 0x8, addend: 0x0, symName: __ZNKSt3__117__compressed_pairIPPNS_16__hash_node_baseIPNS_11__hash_nodeINS_17__hash_value_typeINS_12basic_stringIcNS_11char_traitsIcEENS_9allocatorIcEEEE5ValueEEPvEEEENS_25__bucket_list_deallocatorINS7_ISG_EEEEE6secondB7v160006Ev, symObjAddr: 0x572A8, symBinAddr: 0x10005A34C, symSize: 0x12C }
  - { offsetInCU: 0x3BD20, offset: 0x3BD20, size: 0x8, addend: 0x0, symName: __ZNKSt3__122__compressed_pair_elemINS_25__bucket_list_deallocatorINS_9allocatorIPNS_16__hash_node_baseIPNS_11__hash_nodeINS_17__hash_value_typeINS_12basic_stringIcNS_11char_traitsIcEENS2_IcEEEE5ValueEEPvEEEEEEEELi1ELb0EE5__getB7v160006Ev, symObjAddr: 0x573D4, symBinAddr: 0x10005A478, symSize: 0xAC }
  - { offsetInCU: 0x3BD46, offset: 0x3BD46, size: 0x8, addend: 0x0, symName: __ZNKSt3__117__compressed_pairImNS_9allocatorIPNS_16__hash_node_baseIPNS_11__hash_nodeINS_17__hash_value_typeINS_12basic_stringIcNS_11char_traitsIcEENS1_IcEEEE5ValueEEPvEEEEEEE5firstB7v160006Ev, symObjAddr: 0x57480, symBinAddr: 0x10005A524, symSize: 0x124 }
  - { offsetInCU: 0x3BD6C, offset: 0x3BD6C, size: 0x8, addend: 0x0, symName: __ZNKSt3__117__compressed_pairIPPNS_16__hash_node_baseIPNS_11__hash_nodeINS_17__hash_value_typeINS_12basic_stringIcNS_11char_traitsIcEENS_9allocatorIcEEEE5ValueEEPvEEEENS_25__bucket_list_deallocatorINS7_ISG_EEEEE5firstB7v160006Ev, symObjAddr: 0x575A4, symBinAddr: 0x10005A648, symSize: 0x124 }
  - { offsetInCU: 0x3BD92, offset: 0x3BD92, size: 0x8, addend: 0x0, symName: __ZNKSt3__122__compressed_pair_elemIPPNS_16__hash_node_baseIPNS_11__hash_nodeINS_17__hash_value_typeINS_12basic_stringIcNS_11char_traitsIcEENS_9allocatorIcEEEE5ValueEEPvEEEELi0ELb0EE5__getB7v160006Ev, symObjAddr: 0x576C8, symBinAddr: 0x10005A76C, symSize: 0xAC }
  - { offsetInCU: 0x3BDB8, offset: 0x3BDB8, size: 0x8, addend: 0x0, symName: __ZNSt3__117__compressed_pairIfNS_21__unordered_map_equalINS_12basic_stringIcNS_11char_traitsIcEENS_9allocatorIcEEEENS_17__hash_value_typeIS7_5ValueEENS_8equal_toIS7_EENS_4hashIS7_EELb1EEEE6secondB7v160006Ev, symObjAddr: 0x57774, symBinAddr: 0x10005A818, symSize: 0x108 }
  - { offsetInCU: 0x3BDDE, offset: 0x3BDDE, size: 0x8, addend: 0x0, symName: __ZNSt3__122__compressed_pair_elemINS_21__unordered_map_equalINS_12basic_stringIcNS_11char_traitsIcEENS_9allocatorIcEEEENS_17__hash_value_typeIS7_5ValueEENS_8equal_toIS7_EENS_4hashIS7_EELb1EEELi1ELb1EE5__getB7v160006Ev, symObjAddr: 0x5787C, symBinAddr: 0x10005A920, symSize: 0x74 }
  - { offsetInCU: 0x3BE04, offset: 0x3BE04, size: 0x8, addend: 0x0, symName: __ZNKSt3__18equal_toINS_12basic_stringIcNS_11char_traitsIcEENS_9allocatorIcEEEEEclB7v160006ERKS6_S9_, symObjAddr: 0x578F0, symBinAddr: 0x10005A994, symSize: 0xF0 }
  - { offsetInCU: 0x3BE48, offset: 0x3BE48, size: 0x8, addend: 0x0, symName: __ZNKSt3__117__hash_value_typeINS_12basic_stringIcNS_11char_traitsIcEENS_9allocatorIcEEEE5ValueE11__get_valueB7v160006Ev, symObjAddr: 0x579E0, symBinAddr: 0x10005AA84, symSize: 0xB4 }
  - { offsetInCU: 0x3BE6E, offset: 0x3BE6E, size: 0x8, addend: 0x0, symName: __ZNSt3__111char_traitsIcE7compareEPKcS3_m, symObjAddr: 0x57EEC, symBinAddr: 0x10005AF90, symSize: 0x78 }
  - { offsetInCU: 0x3BEAD, offset: 0x3BEAD, size: 0x8, addend: 0x0, symName: __ZNSt3__112__hash_tableINS_17__hash_value_typeINS_12basic_stringIcNS_11char_traitsIcEENS_9allocatorIcEEEE5ValueEENS_22__unordered_map_hasherIS7_S9_NS_4hashIS7_EENS_8equal_toIS7_EELb1EEENS_21__unordered_map_equalIS7_S9_SE_SC_Lb1EEENS5_IS9_EEE12__node_allocB7v160006Ev, symObjAddr: 0x57FD0, symBinAddr: 0x10005B074, symSize: 0xE4 }
  - { offsetInCU: 0x3BED3, offset: 0x3BED3, size: 0x8, addend: 0x0, symName: __ZNSt3__116allocator_traitsINS_9allocatorINS_11__hash_nodeINS_17__hash_value_typeINS_12basic_stringIcNS_11char_traitsIcEENS1_IcEEEE5ValueEEPvEEEEE8allocateB7v160006ERSD_m, symObjAddr: 0x580B4, symBinAddr: 0x10005B158, symSize: 0x2C }
  - { offsetInCU: 0x3BF06, offset: 0x3BF06, size: 0x8, addend: 0x0, symName: __ZNSt3__122__hash_node_destructorINS_9allocatorINS_11__hash_nodeINS_17__hash_value_typeINS_12basic_stringIcNS_11char_traitsIcEENS1_IcEEEE5ValueEEPvEEEEEC1B7v160006ERSD_b, symObjAddr: 0x580E0, symBinAddr: 0x10005B184, symSize: 0xCC }
  - { offsetInCU: 0x3BF54, offset: 0x3BF54, size: 0x8, addend: 0x0, symName: __ZNSt3__110unique_ptrINS_11__hash_nodeINS_17__hash_value_typeINS_12basic_stringIcNS_11char_traitsIcEENS_9allocatorIcEEEE5ValueEEPvEENS_22__hash_node_destructorINS6_ISC_EEEEEC1B7v160006ILb1EvEEPSC_NS_16__dependent_typeINS_27__unique_ptr_deleter_sfinaeISF_EEXT_EE20__good_rval_ref_typeE, symObjAddr: 0x581AC, symBinAddr: 0x10005B250, symSize: 0x88 }
  - { offsetInCU: 0x3BFA5, offset: 0x3BFA5, size: 0x8, addend: 0x0, symName: __ZNSt3__116allocator_traitsINS_9allocatorINS_11__hash_nodeINS_17__hash_value_typeINS_12basic_stringIcNS_11char_traitsIcEENS1_IcEEEE5ValueEEPvEEEEE9constructB7v160006INS_4pairIKS8_S9_EEJRKSI_EvEEvRSD_PT_DpOT0_, symObjAddr: 0x58234, symBinAddr: 0x10005B2D8, symSize: 0x8C }
  - { offsetInCU: 0x3BFFC, offset: 0x3BFFC, size: 0x8, addend: 0x0, symName: __ZNSt3__122__hash_key_value_typesINS_17__hash_value_typeINS_12basic_stringIcNS_11char_traitsIcEENS_9allocatorIcEEEE5ValueEEE9__get_ptrB7v160006ERS9_, symObjAddr: 0x582C0, symBinAddr: 0x10005B364, symSize: 0x50 }
  - { offsetInCU: 0x3C01F, offset: 0x3C01F, size: 0x8, addend: 0x0, symName: __ZNSt3__110unique_ptrINS_11__hash_nodeINS_17__hash_value_typeINS_12basic_stringIcNS_11char_traitsIcEENS_9allocatorIcEEEE5ValueEEPvEENS_22__hash_node_destructorINS6_ISC_EEEEE11get_deleterB7v160006Ev, symObjAddr: 0x58310, symBinAddr: 0x10005B3B4, symSize: 0xF8 }
  - { offsetInCU: 0x3C045, offset: 0x3C045, size: 0x8, addend: 0x0, symName: __ZNSt3__117__compressed_pairINS_16__hash_node_baseIPNS_11__hash_nodeINS_17__hash_value_typeINS_12basic_stringIcNS_11char_traitsIcEENS_9allocatorIcEEEE5ValueEEPvEEEENS7_ISD_EEE6secondB7v160006Ev, symObjAddr: 0x58408, symBinAddr: 0x10005B4AC, symSize: 0x108 }
  - { offsetInCU: 0x3C06B, offset: 0x3C06B, size: 0x8, addend: 0x0, symName: __ZNSt3__122__compressed_pair_elemINS_9allocatorINS_11__hash_nodeINS_17__hash_value_typeINS_12basic_stringIcNS_11char_traitsIcEENS1_IcEEEE5ValueEEPvEEEELi1ELb1EE5__getB7v160006Ev, symObjAddr: 0x58510, symBinAddr: 0x10005B5B4, symSize: 0x74 }
  - { offsetInCU: 0x3C091, offset: 0x3C091, size: 0x8, addend: 0x0, symName: __ZNSt3__19allocatorINS_11__hash_nodeINS_17__hash_value_typeINS_12basic_stringIcNS_11char_traitsIcEENS0_IcEEEE5ValueEEPvEEE8allocateB7v160006Em, symObjAddr: 0x58584, symBinAddr: 0x10005B628, symSize: 0xD0 }
  - { offsetInCU: 0x3C0D0, offset: 0x3C0D0, size: 0x8, addend: 0x0, symName: __ZNSt3__116allocator_traitsINS_9allocatorINS_11__hash_nodeINS_17__hash_value_typeINS_12basic_stringIcNS_11char_traitsIcEENS1_IcEEEE5ValueEEPvEEEEE8max_sizeB7v160006ISD_vEEmRKSD_, symObjAddr: 0x58654, symBinAddr: 0x10005B6F8, symSize: 0x24 }
  - { offsetInCU: 0x3C0FE, offset: 0x3C0FE, size: 0x8, addend: 0x0, symName: __ZNKSt3__19allocatorINS_11__hash_nodeINS_17__hash_value_typeINS_12basic_stringIcNS_11char_traitsIcEENS0_IcEEEE5ValueEEPvEEE8max_sizeB7v160006Ev, symObjAddr: 0x58678, symBinAddr: 0x10005B71C, symSize: 0x50 }
  - { offsetInCU: 0x3C124, offset: 0x3C124, size: 0x8, addend: 0x0, symName: __ZNSt3__122__hash_node_destructorINS_9allocatorINS_11__hash_nodeINS_17__hash_value_typeINS_12basic_stringIcNS_11char_traitsIcEENS1_IcEEEE5ValueEEPvEEEEEC2B7v160006ERSD_b, symObjAddr: 0x586C8, symBinAddr: 0x10005B76C, symSize: 0x1A0 }
  - { offsetInCU: 0x3C16C, offset: 0x3C16C, size: 0x8, addend: 0x0, symName: __ZNSt3__110unique_ptrINS_11__hash_nodeINS_17__hash_value_typeINS_12basic_stringIcNS_11char_traitsIcEENS_9allocatorIcEEEE5ValueEEPvEENS_22__hash_node_destructorINS6_ISC_EEEEEC2B7v160006ILb1EvEEPSC_NS_16__dependent_typeINS_27__unique_ptr_deleter_sfinaeISF_EEXT_EE20__good_rval_ref_typeE, symObjAddr: 0x58868, symBinAddr: 0x10005B90C, symSize: 0x2BC }
  - { offsetInCU: 0x3C1C3, offset: 0x3C1C3, size: 0x8, addend: 0x0, symName: __ZNSt3__117__compressed_pairIPNS_11__hash_nodeINS_17__hash_value_typeINS_12basic_stringIcNS_11char_traitsIcEENS_9allocatorIcEEEE5ValueEEPvEENS_22__hash_node_destructorINS6_ISC_EEEEEC1B7v160006IRSD_SG_EEOT_OT0_, symObjAddr: 0x58B24, symBinAddr: 0x10005BBC8, symSize: 0x88 }
  - { offsetInCU: 0x3C21B, offset: 0x3C21B, size: 0x8, addend: 0x0, symName: __ZNSt3__117__compressed_pairIPNS_11__hash_nodeINS_17__hash_value_typeINS_12basic_stringIcNS_11char_traitsIcEENS_9allocatorIcEEEE5ValueEEPvEENS_22__hash_node_destructorINS6_ISC_EEEEEC2B7v160006IRSD_SG_EEOT_OT0_, symObjAddr: 0x58BAC, symBinAddr: 0x10005BC50, symSize: 0x1B4 }
  - { offsetInCU: 0x3C273, offset: 0x3C273, size: 0x8, addend: 0x0, symName: __ZNSt3__122__compressed_pair_elemIPNS_11__hash_nodeINS_17__hash_value_typeINS_12basic_stringIcNS_11char_traitsIcEENS_9allocatorIcEEEE5ValueEEPvEELi0ELb0EEC2B7v160006IRSD_vEEOT_, symObjAddr: 0x58D60, symBinAddr: 0x10005BE04, symSize: 0x144 }
  - { offsetInCU: 0x3C2B5, offset: 0x3C2B5, size: 0x8, addend: 0x0, symName: __ZNSt3__122__compressed_pair_elemINS_22__hash_node_destructorINS_9allocatorINS_11__hash_nodeINS_17__hash_value_typeINS_12basic_stringIcNS_11char_traitsIcEENS2_IcEEEE5ValueEEPvEEEEEELi1ELb0EEC2B7v160006ISF_vEEOT_, symObjAddr: 0x58EA4, symBinAddr: 0x10005BF48, symSize: 0x84 }
  - { offsetInCU: 0x3C2F7, offset: 0x3C2F7, size: 0x8, addend: 0x0, symName: __ZNSt3__19allocatorINS_11__hash_nodeINS_17__hash_value_typeINS_12basic_stringIcNS_11char_traitsIcEENS0_IcEEEE5ValueEEPvEEE9constructB7v160006INS_4pairIKS7_S8_EEJRKSG_EEEvPT_DpOT0_, symObjAddr: 0x58F28, symBinAddr: 0x10005BFCC, symSize: 0xEC }
  - { offsetInCU: 0x3C34D, offset: 0x3C34D, size: 0x8, addend: 0x0, symName: __ZNSt3__117__compressed_pairIPNS_11__hash_nodeINS_17__hash_value_typeINS_12basic_stringIcNS_11char_traitsIcEENS_9allocatorIcEEEE5ValueEEPvEENS_22__hash_node_destructorINS6_ISC_EEEEE6secondB7v160006Ev, symObjAddr: 0x59014, symBinAddr: 0x10005C0B8, symSize: 0x12C }
  - { offsetInCU: 0x3C373, offset: 0x3C373, size: 0x8, addend: 0x0, symName: __ZNSt3__122__compressed_pair_elemINS_22__hash_node_destructorINS_9allocatorINS_11__hash_nodeINS_17__hash_value_typeINS_12basic_stringIcNS_11char_traitsIcEENS2_IcEEEE5ValueEEPvEEEEEELi1ELb0EE5__getB7v160006Ev, symObjAddr: 0x59140, symBinAddr: 0x10005C1E4, symSize: 0xAC }
  - { offsetInCU: 0x3C399, offset: 0x3C399, size: 0x8, addend: 0x0, symName: __ZNSt3__117__compressed_pairImNS_22__unordered_map_hasherINS_12basic_stringIcNS_11char_traitsIcEENS_9allocatorIcEEEENS_17__hash_value_typeIS7_5ValueEENS_4hashIS7_EENS_8equal_toIS7_EELb1EEEE5firstB7v160006Ev, symObjAddr: 0x591EC, symBinAddr: 0x10005C290, symSize: 0x124 }
  - { offsetInCU: 0x3C3BF, offset: 0x3C3BF, size: 0x8, addend: 0x0, symName: __ZNSt3__117__compressed_pairIfNS_21__unordered_map_equalINS_12basic_stringIcNS_11char_traitsIcEENS_9allocatorIcEEEENS_17__hash_value_typeIS7_5ValueEENS_8equal_toIS7_EENS_4hashIS7_EELb1EEEE5firstB7v160006Ev, symObjAddr: 0x59310, symBinAddr: 0x10005C3B4, symSize: 0x124 }
  - { offsetInCU: 0x3C3E5, offset: 0x3C3E5, size: 0x8, addend: 0x0, symName: __ZNSt3__122__compressed_pair_elemIfLi0ELb0EE5__getB7v160006Ev, symObjAddr: 0x59434, symBinAddr: 0x10005C4D8, symSize: 0xAC }
  - { offsetInCU: 0x3C40B, offset: 0x3C40B, size: 0x8, addend: 0x0, symName: __ZNSt3__112__hash_tableINS_17__hash_value_typeINS_12basic_stringIcNS_11char_traitsIcEENS_9allocatorIcEEEE5ValueEENS_22__unordered_map_hasherIS7_S9_NS_4hashIS7_EENS_8equal_toIS7_EELb1EEENS_21__unordered_map_equalIS7_S9_SE_SC_Lb1EEENS5_IS9_EEE8__rehashILb1EEEvm, symObjAddr: 0x594E0, symBinAddr: 0x10005C584, symSize: 0x9CC }
  - { offsetInCU: 0x3C461, offset: 0x3C461, size: 0x8, addend: 0x0, symName: __ZNSt3__112__hash_tableINS_17__hash_value_typeINS_12basic_stringIcNS_11char_traitsIcEENS_9allocatorIcEEEE5ValueEENS_22__unordered_map_hasherIS7_S9_NS_4hashIS7_EENS_8equal_toIS7_EELb1EEENS_21__unordered_map_equalIS7_S9_SE_SC_Lb1EEENS5_IS9_EEE11__do_rehashILb1EEEvm, symObjAddr: 0x59EAC, symBinAddr: 0x10005CF50, symSize: 0x108C }
  - { offsetInCU: 0x3C546, offset: 0x3C546, size: 0x8, addend: 0x0, symName: __ZNSt3__110unique_ptrIA_PNS_16__hash_node_baseIPNS_11__hash_nodeINS_17__hash_value_typeINS_12basic_stringIcNS_11char_traitsIcEENS_9allocatorIcEEEE5ValueEEPvEEEENS_25__bucket_list_deallocatorINS7_ISG_EEEEE11get_deleterB7v160006Ev, symObjAddr: 0x5B014, symBinAddr: 0x10005E0B8, symSize: 0xF8 }
  - { offsetInCU: 0x3C56C, offset: 0x3C56C, size: 0x8, addend: 0x0, symName: __ZNSt3__125__bucket_list_deallocatorINS_9allocatorIPNS_16__hash_node_baseIPNS_11__hash_nodeINS_17__hash_value_typeINS_12basic_stringIcNS_11char_traitsIcEENS1_IcEEEE5ValueEEPvEEEEEEE7__allocB7v160006Ev, symObjAddr: 0x5B10C, symBinAddr: 0x10005E1B0, symSize: 0xDC }
  - { offsetInCU: 0x3C592, offset: 0x3C592, size: 0x8, addend: 0x0, symName: __ZNSt3__110unique_ptrIA_PNS_16__hash_node_baseIPNS_11__hash_nodeINS_17__hash_value_typeINS_12basic_stringIcNS_11char_traitsIcEENS_9allocatorIcEEEE5ValueEEPvEEEENS_25__bucket_list_deallocatorINS7_ISG_EEEEE5resetB7v160006IPSG_EENS_9enable_ifIXsr28_CheckArrayPointerConversionIT_EE5valueEvE4typeESP_, symObjAddr: 0x5B1E8, symBinAddr: 0x10005E28C, symSize: 0x2CC }
  - { offsetInCU: 0x3C5DF, offset: 0x3C5DF, size: 0x8, addend: 0x0, symName: __ZNSt3__116allocator_traitsINS_9allocatorIPNS_16__hash_node_baseIPNS_11__hash_nodeINS_17__hash_value_typeINS_12basic_stringIcNS_11char_traitsIcEENS1_IcEEEE5ValueEEPvEEEEEEE8allocateB7v160006ERSH_m, symObjAddr: 0x5B4B4, symBinAddr: 0x10005E558, symSize: 0x2C }
  - { offsetInCU: 0x3C612, offset: 0x3C612, size: 0x8, addend: 0x0, symName: __ZNSt3__125__bucket_list_deallocatorINS_9allocatorIPNS_16__hash_node_baseIPNS_11__hash_nodeINS_17__hash_value_typeINS_12basic_stringIcNS_11char_traitsIcEENS1_IcEEEE5ValueEEPvEEEEEEE4sizeB7v160006Ev, symObjAddr: 0x5B4E0, symBinAddr: 0x10005E584, symSize: 0xF8 }
  - { offsetInCU: 0x3C638, offset: 0x3C638, size: 0x8, addend: 0x0, symName: __ZNSt3__117__compressed_pairIPPNS_16__hash_node_baseIPNS_11__hash_nodeINS_17__hash_value_typeINS_12basic_stringIcNS_11char_traitsIcEENS_9allocatorIcEEEE5ValueEEPvEEEENS_25__bucket_list_deallocatorINS7_ISG_EEEEE6secondB7v160006Ev, symObjAddr: 0x5B5D8, symBinAddr: 0x10005E67C, symSize: 0x12C }
  - { offsetInCU: 0x3C65E, offset: 0x3C65E, size: 0x8, addend: 0x0, symName: __ZNSt3__122__compressed_pair_elemINS_25__bucket_list_deallocatorINS_9allocatorIPNS_16__hash_node_baseIPNS_11__hash_nodeINS_17__hash_value_typeINS_12basic_stringIcNS_11char_traitsIcEENS2_IcEEEE5ValueEEPvEEEEEEEELi1ELb0EE5__getB7v160006Ev, symObjAddr: 0x5B704, symBinAddr: 0x10005E7A8, symSize: 0xAC }
  - { offsetInCU: 0x3C684, offset: 0x3C684, size: 0x8, addend: 0x0, symName: __ZNSt3__117__compressed_pairImNS_9allocatorIPNS_16__hash_node_baseIPNS_11__hash_nodeINS_17__hash_value_typeINS_12basic_stringIcNS_11char_traitsIcEENS1_IcEEEE5ValueEEPvEEEEEEE6secondB7v160006Ev, symObjAddr: 0x5B7B0, symBinAddr: 0x10005E854, symSize: 0x108 }
  - { offsetInCU: 0x3C6AA, offset: 0x3C6AA, size: 0x8, addend: 0x0, symName: __ZNSt3__122__compressed_pair_elemINS_9allocatorIPNS_16__hash_node_baseIPNS_11__hash_nodeINS_17__hash_value_typeINS_12basic_stringIcNS_11char_traitsIcEENS1_IcEEEE5ValueEEPvEEEEEELi1ELb1EE5__getB7v160006Ev, symObjAddr: 0x5B8B8, symBinAddr: 0x10005E95C, symSize: 0x74 }
  - { offsetInCU: 0x3C6D0, offset: 0x3C6D0, size: 0x8, addend: 0x0, symName: __ZNSt3__117__compressed_pairIPPNS_16__hash_node_baseIPNS_11__hash_nodeINS_17__hash_value_typeINS_12basic_stringIcNS_11char_traitsIcEENS_9allocatorIcEEEE5ValueEEPvEEEENS_25__bucket_list_deallocatorINS7_ISG_EEEEE5firstB7v160006Ev, symObjAddr: 0x5B92C, symBinAddr: 0x10005E9D0, symSize: 0x124 }
  - { offsetInCU: 0x3C6F6, offset: 0x3C6F6, size: 0x8, addend: 0x0, symName: __ZNSt3__125__bucket_list_deallocatorINS_9allocatorIPNS_16__hash_node_baseIPNS_11__hash_nodeINS_17__hash_value_typeINS_12basic_stringIcNS_11char_traitsIcEENS1_IcEEEE5ValueEEPvEEEEEEEclB7v160006EPSG_, symObjAddr: 0x5BA50, symBinAddr: 0x10005EAF4, symSize: 0x140 }
  - { offsetInCU: 0x3C72B, offset: 0x3C72B, size: 0x8, addend: 0x0, symName: __ZNSt3__122__compressed_pair_elemIPPNS_16__hash_node_baseIPNS_11__hash_nodeINS_17__hash_value_typeINS_12basic_stringIcNS_11char_traitsIcEENS_9allocatorIcEEEE5ValueEEPvEEEELi0ELb0EE5__getB7v160006Ev, symObjAddr: 0x5BB90, symBinAddr: 0x10005EC34, symSize: 0xAC }
  - { offsetInCU: 0x3C751, offset: 0x3C751, size: 0x8, addend: 0x0, symName: __ZNSt3__116allocator_traitsINS_9allocatorIPNS_16__hash_node_baseIPNS_11__hash_nodeINS_17__hash_value_typeINS_12basic_stringIcNS_11char_traitsIcEENS1_IcEEEE5ValueEEPvEEEEEEE10deallocateB7v160006ERSH_PSG_m, symObjAddr: 0x5BC3C, symBinAddr: 0x10005ECE0, symSize: 0x34 }
  - { offsetInCU: 0x3C793, offset: 0x3C793, size: 0x8, addend: 0x0, symName: __ZNSt3__19allocatorIPNS_16__hash_node_baseIPNS_11__hash_nodeINS_17__hash_value_typeINS_12basic_stringIcNS_11char_traitsIcEENS0_IcEEEE5ValueEEPvEEEEE10deallocateB7v160006EPSF_m, symObjAddr: 0x5BC70, symBinAddr: 0x10005ED14, symSize: 0x78 }
  - { offsetInCU: 0x3C7D5, offset: 0x3C7D5, size: 0x8, addend: 0x0, symName: __ZNSt3__19allocatorIPNS_16__hash_node_baseIPNS_11__hash_nodeINS_17__hash_value_typeINS_12basic_stringIcNS_11char_traitsIcEENS0_IcEEEE5ValueEEPvEEEEE8allocateB7v160006Em, symObjAddr: 0x5BCE8, symBinAddr: 0x10005ED8C, symSize: 0xCC }
  - { offsetInCU: 0x3C814, offset: 0x3C814, size: 0x8, addend: 0x0, symName: __ZNSt3__116allocator_traitsINS_9allocatorIPNS_16__hash_node_baseIPNS_11__hash_nodeINS_17__hash_value_typeINS_12basic_stringIcNS_11char_traitsIcEENS1_IcEEEE5ValueEEPvEEEEEEE8max_sizeB7v160006ISH_vEEmRKSH_, symObjAddr: 0x5BDB4, symBinAddr: 0x10005EE58, symSize: 0x24 }
  - { offsetInCU: 0x3C842, offset: 0x3C842, size: 0x8, addend: 0x0, symName: __ZNKSt3__19allocatorIPNS_16__hash_node_baseIPNS_11__hash_nodeINS_17__hash_value_typeINS_12basic_stringIcNS_11char_traitsIcEENS0_IcEEEE5ValueEEPvEEEEE8max_sizeB7v160006Ev, symObjAddr: 0x5BDD8, symBinAddr: 0x10005EE7C, symSize: 0x4C }
  - { offsetInCU: 0x3C868, offset: 0x3C868, size: 0x8, addend: 0x0, symName: __ZNSt3__117__compressed_pairImNS_9allocatorIPNS_16__hash_node_baseIPNS_11__hash_nodeINS_17__hash_value_typeINS_12basic_stringIcNS_11char_traitsIcEENS1_IcEEEE5ValueEEPvEEEEEEE5firstB7v160006Ev, symObjAddr: 0x5BE24, symBinAddr: 0x10005EEC8, symSize: 0x124 }
  - { offsetInCU: 0x3C88E, offset: 0x3C88E, size: 0x8, addend: 0x0, symName: __ZNKSt3__117__compressed_pairIPNS_11__hash_nodeINS_17__hash_value_typeINS_12basic_stringIcNS_11char_traitsIcEENS_9allocatorIcEEEE5ValueEEPvEENS_22__hash_node_destructorINS6_ISC_EEEEE5firstB7v160006Ev, symObjAddr: 0x5BF48, symBinAddr: 0x10005EFEC, symSize: 0x124 }
  - { offsetInCU: 0x3C8B4, offset: 0x3C8B4, size: 0x8, addend: 0x0, symName: __ZNKSt3__122__compressed_pair_elemIPNS_11__hash_nodeINS_17__hash_value_typeINS_12basic_stringIcNS_11char_traitsIcEENS_9allocatorIcEEEE5ValueEEPvEELi0ELb0EE5__getB7v160006Ev, symObjAddr: 0x5C06C, symBinAddr: 0x10005F110, symSize: 0xAC }
  - { offsetInCU: 0x3C8DA, offset: 0x3C8DA, size: 0x8, addend: 0x0, symName: __ZNSt3__117__compressed_pairIPNS_11__hash_nodeINS_17__hash_value_typeINS_12basic_stringIcNS_11char_traitsIcEENS_9allocatorIcEEEE5ValueEEPvEENS_22__hash_node_destructorINS6_ISC_EEEEE5firstB7v160006Ev, symObjAddr: 0x5C118, symBinAddr: 0x10005F1BC, symSize: 0x124 }
  - { offsetInCU: 0x3C900, offset: 0x3C900, size: 0x8, addend: 0x0, symName: __ZNSt3__122__compressed_pair_elemIPNS_11__hash_nodeINS_17__hash_value_typeINS_12basic_stringIcNS_11char_traitsIcEENS_9allocatorIcEEEE5ValueEEPvEELi0ELb0EE5__getB7v160006Ev, symObjAddr: 0x5C23C, symBinAddr: 0x10005F2E0, symSize: 0xAC }
  - { offsetInCU: 0x3C926, offset: 0x3C926, size: 0x8, addend: 0x0, symName: __ZNSt3__110unique_ptrINS_11__hash_nodeINS_17__hash_value_typeINS_12basic_stringIcNS_11char_traitsIcEENS_9allocatorIcEEEE5ValueEEPvEENS_22__hash_node_destructorINS6_ISC_EEEEED2B7v160006Ev, symObjAddr: 0x5C2E8, symBinAddr: 0x10005F38C, symSize: 0x7C }
  - { offsetInCU: 0x3C950, offset: 0x3C950, size: 0x8, addend: 0x0, symName: __ZNSt3__110unique_ptrINS_11__hash_nodeINS_17__hash_value_typeINS_12basic_stringIcNS_11char_traitsIcEENS_9allocatorIcEEEE5ValueEEPvEENS_22__hash_node_destructorINS6_ISC_EEEEE5resetB7v160006EPSC_, symObjAddr: 0x5C364, symBinAddr: 0x10005F408, symSize: 0x2CC }
  - { offsetInCU: 0x3C994, offset: 0x3C994, size: 0x8, addend: 0x0, symName: __ZNSt3__122__hash_node_destructorINS_9allocatorINS_11__hash_nodeINS_17__hash_value_typeINS_12basic_stringIcNS_11char_traitsIcEENS1_IcEEEE5ValueEEPvEEEEEclB7v160006EPSC_, symObjAddr: 0x5C630, symBinAddr: 0x10005F6D4, symSize: 0x2B8 }
  - { offsetInCU: 0x3C9C9, offset: 0x3C9C9, size: 0x8, addend: 0x0, symName: __ZNSt3__116allocator_traitsINS_9allocatorINS_11__hash_nodeINS_17__hash_value_typeINS_12basic_stringIcNS_11char_traitsIcEENS1_IcEEEE5ValueEEPvEEEEE7destroyB7v160006INS_4pairIKS8_S9_EEvvEEvRSD_PT_, symObjAddr: 0x5C8E8, symBinAddr: 0x10005F98C, symSize: 0x70 }
  - { offsetInCU: 0x3CA04, offset: 0x3CA04, size: 0x8, addend: 0x0, symName: __ZNSt3__116allocator_traitsINS_9allocatorINS_11__hash_nodeINS_17__hash_value_typeINS_12basic_stringIcNS_11char_traitsIcEENS1_IcEEEE5ValueEEPvEEEEE10deallocateB7v160006ERSD_PSC_m, symObjAddr: 0x5C958, symBinAddr: 0x10005F9FC, symSize: 0x34 }
  - { offsetInCU: 0x3CA46, offset: 0x3CA46, size: 0x8, addend: 0x0, symName: __ZNSt3__19allocatorINS_11__hash_nodeINS_17__hash_value_typeINS_12basic_stringIcNS_11char_traitsIcEENS0_IcEEEE5ValueEEPvEEE10deallocateB7v160006EPSB_m, symObjAddr: 0x5C98C, symBinAddr: 0x10005FA30, symSize: 0x7C }
  - { offsetInCU: 0x3CA88, offset: 0x3CA88, size: 0x8, addend: 0x0, symName: __ZNSt3__14pairINS_15__hash_iteratorIPNS_11__hash_nodeINS_17__hash_value_typeINS_12basic_stringIcNS_11char_traitsIcEENS_9allocatorIcEEEE5ValueEEPvEEEEbEC2B7v160006ISF_RbLSC_0EEEOT_OT0_, symObjAddr: 0x5CA08, symBinAddr: 0x10005FAAC, symSize: 0x1C8 }
  - { offsetInCU: 0x3CAE6, offset: 0x3CAE6, size: 0x8, addend: 0x0, symName: __ZNSt3__112__hash_tableINS_17__hash_value_typeINS_12basic_stringIcNS_11char_traitsIcEENS_9allocatorIcEEEE5ValueEENS_22__unordered_map_hasherIS7_S9_NS_4hashIS7_EENS_8equal_toIS7_EELb1EEENS_21__unordered_map_equalIS7_S9_SE_SC_Lb1EEENS5_IS9_EEED2Ev, symObjAddr: 0x5CBD0, symBinAddr: 0x10005FC74, symSize: 0x1C0 }
  - { offsetInCU: 0x3CB12, offset: 0x3CB12, size: 0x8, addend: 0x0, symName: __ZNSt3__112__hash_tableINS_17__hash_value_typeINS_12basic_stringIcNS_11char_traitsIcEENS_9allocatorIcEEEE5ValueEENS_22__unordered_map_hasherIS7_S9_NS_4hashIS7_EENS_8equal_toIS7_EELb1EEENS_21__unordered_map_equalIS7_S9_SE_SC_Lb1EEENS5_IS9_EEE17__deallocate_nodeEPNS_16__hash_node_baseIPNS_11__hash_nodeIS9_PvEEEE, symObjAddr: 0x5CD90, symBinAddr: 0x10005FE34, symSize: 0x300 }
  - { offsetInCU: 0x3CB84, offset: 0x3CB84, size: 0x8, addend: 0x0, symName: __ZNSt3__110unique_ptrIA_PNS_16__hash_node_baseIPNS_11__hash_nodeINS_17__hash_value_typeINS_12basic_stringIcNS_11char_traitsIcEENS_9allocatorIcEEEE5ValueEEPvEEEENS_25__bucket_list_deallocatorINS7_ISG_EEEEED1B7v160006Ev, symObjAddr: 0x5D0A0, symBinAddr: 0x100060144, symSize: 0x78 }
  - { offsetInCU: 0x3CBAE, offset: 0x3CBAE, size: 0x8, addend: 0x0, symName: __ZNSt3__110unique_ptrIA_PNS_16__hash_node_baseIPNS_11__hash_nodeINS_17__hash_value_typeINS_12basic_stringIcNS_11char_traitsIcEENS_9allocatorIcEEEE5ValueEEPvEEEENS_25__bucket_list_deallocatorINS7_ISG_EEEEED2B7v160006Ev, symObjAddr: 0x5D118, symBinAddr: 0x1000601BC, symSize: 0x7C }
  - { offsetInCU: 0x3CBD8, offset: 0x3CBD8, size: 0x8, addend: 0x0, symName: __ZNSt3__110unique_ptrIA_PNS_16__hash_node_baseIPNS_11__hash_nodeINS_17__hash_value_typeINS_12basic_stringIcNS_11char_traitsIcEENS_9allocatorIcEEEE5ValueEEPvEEEENS_25__bucket_list_deallocatorINS7_ISG_EEEEE5resetB7v160006EDn, symObjAddr: 0x5D194, symBinAddr: 0x100060238, symSize: 0x2C0 }
  - { offsetInCU: 0x3CC19, offset: 0x3CC19, size: 0x8, addend: 0x0, symName: __ZNSt3__113unordered_mapINS_12basic_stringIcNS_11char_traitsIcEENS_9allocatorIcEEEE5ValueNS_4hashIS6_EENS_8equal_toIS6_EENS4_INS_4pairIKS6_S7_EEEEED2B7v160006Ev, symObjAddr: 0x5D454, symBinAddr: 0x1000604F8, symSize: 0x78 }
  - { offsetInCU: 0x3CC43, offset: 0x3CC43, size: 0x8, addend: 0x0, symName: __ZNSt3__113unordered_mapINS_12basic_stringIcNS_11char_traitsIcEENS_9allocatorIcEEEE4SuitNS_4hashIS6_EENS_8equal_toIS6_EENS4_INS_4pairIKS6_S7_EEEEEC2ESt16initializer_listISE_E, symObjAddr: 0x5D4CC, symBinAddr: 0x100060570, symSize: 0x324 }
  - { offsetInCU: 0x3CC83, offset: 0x3CC83, size: 0x8, addend: 0x0, symName: __ZNSt3__112__hash_tableINS_17__hash_value_typeINS_12basic_stringIcNS_11char_traitsIcEENS_9allocatorIcEEEE4SuitEENS_22__unordered_map_hasherIS7_S9_NS_4hashIS7_EENS_8equal_toIS7_EELb1EEENS_21__unordered_map_equalIS7_S9_SE_SC_Lb1EEENS5_IS9_EEEC1Ev, symObjAddr: 0x5D7F0, symBinAddr: 0x100060894, symSize: 0x78 }
  - { offsetInCU: 0x3CCAF, offset: 0x3CCAF, size: 0x8, addend: 0x0, symName: __ZNSt3__113unordered_mapINS_12basic_stringIcNS_11char_traitsIcEENS_9allocatorIcEEEE4SuitNS_4hashIS6_EENS_8equal_toIS6_EENS4_INS_4pairIKS6_S7_EEEEE6insertIPKSE_EEvT_SK_, symObjAddr: 0x5D878, symBinAddr: 0x10006091C, symSize: 0x390 }
  - { offsetInCU: 0x3CD01, offset: 0x3CD01, size: 0x8, addend: 0x0, symName: __ZNKSt16initializer_listINSt3__14pairIKNS0_12basic_stringIcNS0_11char_traitsIcEENS0_9allocatorIcEEEE4SuitEEE5beginB7v160006Ev, symObjAddr: 0x5DC08, symBinAddr: 0x100060CAC, symSize: 0xAC }
  - { offsetInCU: 0x3CD27, offset: 0x3CD27, size: 0x8, addend: 0x0, symName: __ZNKSt16initializer_listINSt3__14pairIKNS0_12basic_stringIcNS0_11char_traitsIcEENS0_9allocatorIcEEEE4SuitEEE3endB7v160006Ev, symObjAddr: 0x5DCB4, symBinAddr: 0x100060D58, symSize: 0x1C0 }
  - { offsetInCU: 0x3CD4D, offset: 0x3CD4D, size: 0x8, addend: 0x0, symName: __ZNSt3__112__hash_tableINS_17__hash_value_typeINS_12basic_stringIcNS_11char_traitsIcEENS_9allocatorIcEEEE4SuitEENS_22__unordered_map_hasherIS7_S9_NS_4hashIS7_EENS_8equal_toIS7_EELb1EEENS_21__unordered_map_equalIS7_S9_SE_SC_Lb1EEENS5_IS9_EEED1Ev, symObjAddr: 0x5DE74, symBinAddr: 0x100060F18, symSize: 0x78 }
  - { offsetInCU: 0x3CD79, offset: 0x3CD79, size: 0x8, addend: 0x0, symName: __ZNSt3__112__hash_tableINS_17__hash_value_typeINS_12basic_stringIcNS_11char_traitsIcEENS_9allocatorIcEEEE4SuitEENS_22__unordered_map_hasherIS7_S9_NS_4hashIS7_EENS_8equal_toIS7_EELb1EEENS_21__unordered_map_equalIS7_S9_SE_SC_Lb1EEENS5_IS9_EEEC2Ev, symObjAddr: 0x5DEEC, symBinAddr: 0x100060F90, symSize: 0x3E0 }
  - { offsetInCU: 0x3CDA6, offset: 0x3CDA6, size: 0x8, addend: 0x0, symName: __ZNSt3__110unique_ptrIA_PNS_16__hash_node_baseIPNS_11__hash_nodeINS_17__hash_value_typeINS_12basic_stringIcNS_11char_traitsIcEENS_9allocatorIcEEEE4SuitEEPvEEEENS_25__bucket_list_deallocatorINS7_ISG_EEEEEC1B7v160006ILb1EvEEv, symObjAddr: 0x5E2CC, symBinAddr: 0x100061370, symSize: 0x78 }
  - { offsetInCU: 0x3CDDB, offset: 0x3CDDB, size: 0x8, addend: 0x0, symName: __ZNSt3__117__compressed_pairINS_16__hash_node_baseIPNS_11__hash_nodeINS_17__hash_value_typeINS_12basic_stringIcNS_11char_traitsIcEENS_9allocatorIcEEEE4SuitEEPvEEEENS7_ISD_EEEC1B7v160006ILb1EvEEv, symObjAddr: 0x5E344, symBinAddr: 0x1000613E8, symSize: 0x78 }
  - { offsetInCU: 0x3CE10, offset: 0x3CE10, size: 0x8, addend: 0x0, symName: __ZNSt3__117__compressed_pairImNS_22__unordered_map_hasherINS_12basic_stringIcNS_11char_traitsIcEENS_9allocatorIcEEEENS_17__hash_value_typeIS7_4SuitEENS_4hashIS7_EENS_8equal_toIS7_EELb1EEEEC1B7v160006IiNS_18__default_init_tagEEEOT_OT0_, symObjAddr: 0x5E3BC, symBinAddr: 0x100061460, symSize: 0x88 }
  - { offsetInCU: 0x3CE68, offset: 0x3CE68, size: 0x8, addend: 0x0, symName: __ZNSt3__117__compressed_pairIfNS_21__unordered_map_equalINS_12basic_stringIcNS_11char_traitsIcEENS_9allocatorIcEEEENS_17__hash_value_typeIS7_4SuitEENS_8equal_toIS7_EENS_4hashIS7_EELb1EEEEC1B7v160006IfNS_18__default_init_tagEEEOT_OT0_, symObjAddr: 0x5E444, symBinAddr: 0x1000614E8, symSize: 0x88 }
  - { offsetInCU: 0x3CEC0, offset: 0x3CEC0, size: 0x8, addend: 0x0, symName: __ZNSt3__110unique_ptrIA_PNS_16__hash_node_baseIPNS_11__hash_nodeINS_17__hash_value_typeINS_12basic_stringIcNS_11char_traitsIcEENS_9allocatorIcEEEE4SuitEEPvEEEENS_25__bucket_list_deallocatorINS7_ISG_EEEEEC2B7v160006ILb1EvEEv, symObjAddr: 0x5E4CC, symBinAddr: 0x100061570, symSize: 0x268 }
  - { offsetInCU: 0x3CEF6, offset: 0x3CEF6, size: 0x8, addend: 0x0, symName: __ZNSt3__117__compressed_pairIPPNS_16__hash_node_baseIPNS_11__hash_nodeINS_17__hash_value_typeINS_12basic_stringIcNS_11char_traitsIcEENS_9allocatorIcEEEE4SuitEEPvEEEENS_25__bucket_list_deallocatorINS7_ISG_EEEEEC1B7v160006INS_16__value_init_tagESN_EEOT_OT0_, symObjAddr: 0x5E734, symBinAddr: 0x1000617D8, symSize: 0x88 }
  - { offsetInCU: 0x3CF4E, offset: 0x3CF4E, size: 0x8, addend: 0x0, symName: __ZNSt3__117__compressed_pairIPPNS_16__hash_node_baseIPNS_11__hash_nodeINS_17__hash_value_typeINS_12basic_stringIcNS_11char_traitsIcEENS_9allocatorIcEEEE4SuitEEPvEEEENS_25__bucket_list_deallocatorINS7_ISG_EEEEEC2B7v160006INS_16__value_init_tagESN_EEOT_OT0_, symObjAddr: 0x5E7BC, symBinAddr: 0x100061860, symSize: 0x118 }
  - { offsetInCU: 0x3CFA6, offset: 0x3CFA6, size: 0x8, addend: 0x0, symName: __ZNSt3__122__compressed_pair_elemIPPNS_16__hash_node_baseIPNS_11__hash_nodeINS_17__hash_value_typeINS_12basic_stringIcNS_11char_traitsIcEENS_9allocatorIcEEEE4SuitEEPvEEEELi0ELb0EEC2B7v160006ENS_16__value_init_tagE, symObjAddr: 0x5E8D4, symBinAddr: 0x100061978, symSize: 0xB8 }
  - { offsetInCU: 0x3CFDA, offset: 0x3CFDA, size: 0x8, addend: 0x0, symName: __ZNSt3__122__compressed_pair_elemINS_25__bucket_list_deallocatorINS_9allocatorIPNS_16__hash_node_baseIPNS_11__hash_nodeINS_17__hash_value_typeINS_12basic_stringIcNS_11char_traitsIcEENS2_IcEEEE4SuitEEPvEEEEEEEELi1ELb0EEC2B7v160006ENS_16__value_init_tagE, symObjAddr: 0x5E98C, symBinAddr: 0x100061A30, symSize: 0x78 }
  - { offsetInCU: 0x3D00E, offset: 0x3D00E, size: 0x8, addend: 0x0, symName: __ZNSt3__125__bucket_list_deallocatorINS_9allocatorIPNS_16__hash_node_baseIPNS_11__hash_nodeINS_17__hash_value_typeINS_12basic_stringIcNS_11char_traitsIcEENS1_IcEEEE4SuitEEPvEEEEEEEC1B7v160006Ev, symObjAddr: 0x5EA04, symBinAddr: 0x100061AA8, symSize: 0x78 }
  - { offsetInCU: 0x3D038, offset: 0x3D038, size: 0x8, addend: 0x0, symName: __ZNSt3__125__bucket_list_deallocatorINS_9allocatorIPNS_16__hash_node_baseIPNS_11__hash_nodeINS_17__hash_value_typeINS_12basic_stringIcNS_11char_traitsIcEENS1_IcEEEE4SuitEEPvEEEEEEEC2B7v160006Ev, symObjAddr: 0x5EA7C, symBinAddr: 0x100061B20, symSize: 0x2CC }
  - { offsetInCU: 0x3D063, offset: 0x3D063, size: 0x8, addend: 0x0, symName: __ZNSt3__117__compressed_pairImNS_9allocatorIPNS_16__hash_node_baseIPNS_11__hash_nodeINS_17__hash_value_typeINS_12basic_stringIcNS_11char_traitsIcEENS1_IcEEEE4SuitEEPvEEEEEEEC1B7v160006IiNS_18__default_init_tagEEEOT_OT0_, symObjAddr: 0x5ED48, symBinAddr: 0x100061DEC, symSize: 0x88 }
  - { offsetInCU: 0x3D0BB, offset: 0x3D0BB, size: 0x8, addend: 0x0, symName: __ZNSt3__117__compressed_pairImNS_9allocatorIPNS_16__hash_node_baseIPNS_11__hash_nodeINS_17__hash_value_typeINS_12basic_stringIcNS_11char_traitsIcEENS1_IcEEEE4SuitEEPvEEEEEEEC2B7v160006IiNS_18__default_init_tagEEEOT_OT0_, symObjAddr: 0x5EDD0, symBinAddr: 0x100061E74, symSize: 0x140 }
  - { offsetInCU: 0x3D113, offset: 0x3D113, size: 0x8, addend: 0x0, symName: __ZNSt3__122__compressed_pair_elemINS_9allocatorIPNS_16__hash_node_baseIPNS_11__hash_nodeINS_17__hash_value_typeINS_12basic_stringIcNS_11char_traitsIcEENS1_IcEEEE4SuitEEPvEEEEEELi1ELb1EEC2B7v160006ENS_18__default_init_tagE, symObjAddr: 0x5EF10, symBinAddr: 0x100061FB4, symSize: 0x84 }
  - { offsetInCU: 0x3D147, offset: 0x3D147, size: 0x8, addend: 0x0, symName: __ZNSt3__19allocatorIPNS_16__hash_node_baseIPNS_11__hash_nodeINS_17__hash_value_typeINS_12basic_stringIcNS_11char_traitsIcEENS0_IcEEEE4SuitEEPvEEEEEC2B7v160006Ev, symObjAddr: 0x5EF94, symBinAddr: 0x100062038, symSize: 0x84 }
  - { offsetInCU: 0x3D171, offset: 0x3D171, size: 0x8, addend: 0x0, symName: __ZNSt3__116__non_trivial_ifILb1ENS_9allocatorIPNS_16__hash_node_baseIPNS_11__hash_nodeINS_17__hash_value_typeINS_12basic_stringIcNS_11char_traitsIcEENS1_IcEEEE4SuitEEPvEEEEEEEC2B7v160006Ev, symObjAddr: 0x5F018, symBinAddr: 0x1000620BC, symSize: 0x54 }
  - { offsetInCU: 0x3D19B, offset: 0x3D19B, size: 0x8, addend: 0x0, symName: __ZNSt3__117__compressed_pairINS_16__hash_node_baseIPNS_11__hash_nodeINS_17__hash_value_typeINS_12basic_stringIcNS_11char_traitsIcEENS_9allocatorIcEEEE4SuitEEPvEEEENS7_ISD_EEEC2B7v160006ILb1EvEEv, symObjAddr: 0x5F06C, symBinAddr: 0x100062110, symSize: 0xEC }
  - { offsetInCU: 0x3D1D0, offset: 0x3D1D0, size: 0x8, addend: 0x0, symName: __ZNSt3__122__compressed_pair_elemINS_16__hash_node_baseIPNS_11__hash_nodeINS_17__hash_value_typeINS_12basic_stringIcNS_11char_traitsIcEENS_9allocatorIcEEEE4SuitEEPvEEEELi0ELb0EEC2B7v160006ENS_16__value_init_tagE, symObjAddr: 0x5F158, symBinAddr: 0x1000621FC, symSize: 0x78 }
  - { offsetInCU: 0x3D204, offset: 0x3D204, size: 0x8, addend: 0x0, symName: __ZNSt3__122__compressed_pair_elemINS_9allocatorINS_11__hash_nodeINS_17__hash_value_typeINS_12basic_stringIcNS_11char_traitsIcEENS1_IcEEEE4SuitEEPvEEEELi1ELb1EEC2B7v160006ENS_16__value_init_tagE, symObjAddr: 0x5F1D0, symBinAddr: 0x100062274, symSize: 0x84 }
  - { offsetInCU: 0x3D238, offset: 0x3D238, size: 0x8, addend: 0x0, symName: __ZNSt3__116__hash_node_baseIPNS_11__hash_nodeINS_17__hash_value_typeINS_12basic_stringIcNS_11char_traitsIcEENS_9allocatorIcEEEE4SuitEEPvEEEC1B7v160006Ev, symObjAddr: 0x5F254, symBinAddr: 0x1000622F8, symSize: 0x78 }
  - { offsetInCU: 0x3D262, offset: 0x3D262, size: 0x8, addend: 0x0, symName: __ZNSt3__116__hash_node_baseIPNS_11__hash_nodeINS_17__hash_value_typeINS_12basic_stringIcNS_11char_traitsIcEENS_9allocatorIcEEEE4SuitEEPvEEEC2B7v160006Ev, symObjAddr: 0x5F2CC, symBinAddr: 0x100062370, symSize: 0xB8 }
  - { offsetInCU: 0x3D28C, offset: 0x3D28C, size: 0x8, addend: 0x0, symName: __ZNSt3__19allocatorINS_11__hash_nodeINS_17__hash_value_typeINS_12basic_stringIcNS_11char_traitsIcEENS0_IcEEEE4SuitEEPvEEEC2B7v160006Ev, symObjAddr: 0x5F384, symBinAddr: 0x100062428, symSize: 0x84 }
  - { offsetInCU: 0x3D2B6, offset: 0x3D2B6, size: 0x8, addend: 0x0, symName: __ZNSt3__116__non_trivial_ifILb1ENS_9allocatorINS_11__hash_nodeINS_17__hash_value_typeINS_12basic_stringIcNS_11char_traitsIcEENS1_IcEEEE4SuitEEPvEEEEEC2B7v160006Ev, symObjAddr: 0x5F408, symBinAddr: 0x1000624AC, symSize: 0x54 }
  - { offsetInCU: 0x3D2E0, offset: 0x3D2E0, size: 0x8, addend: 0x0, symName: __ZNSt3__117__compressed_pairImNS_22__unordered_map_hasherINS_12basic_stringIcNS_11char_traitsIcEENS_9allocatorIcEEEENS_17__hash_value_typeIS7_4SuitEENS_4hashIS7_EENS_8equal_toIS7_EELb1EEEEC2B7v160006IiNS_18__default_init_tagEEEOT_OT0_, symObjAddr: 0x5F45C, symBinAddr: 0x100062500, symSize: 0x140 }
  - { offsetInCU: 0x3D338, offset: 0x3D338, size: 0x8, addend: 0x0, symName: __ZNSt3__122__compressed_pair_elemINS_22__unordered_map_hasherINS_12basic_stringIcNS_11char_traitsIcEENS_9allocatorIcEEEENS_17__hash_value_typeIS7_4SuitEENS_4hashIS7_EENS_8equal_toIS7_EELb1EEELi1ELb1EEC2B7v160006ENS_18__default_init_tagE, symObjAddr: 0x5F59C, symBinAddr: 0x100062640, symSize: 0x84 }
  - { offsetInCU: 0x3D36C, offset: 0x3D36C, size: 0x8, addend: 0x0, symName: __ZNSt3__122__unordered_map_hasherINS_12basic_stringIcNS_11char_traitsIcEENS_9allocatorIcEEEENS_17__hash_value_typeIS6_4SuitEENS_4hashIS6_EENS_8equal_toIS6_EELb1EEC2B7v160006Ev, symObjAddr: 0x5F620, symBinAddr: 0x1000626C4, symSize: 0x54 }
  - { offsetInCU: 0x3D396, offset: 0x3D396, size: 0x8, addend: 0x0, symName: __ZNSt3__117__compressed_pairIfNS_21__unordered_map_equalINS_12basic_stringIcNS_11char_traitsIcEENS_9allocatorIcEEEENS_17__hash_value_typeIS7_4SuitEENS_8equal_toIS7_EENS_4hashIS7_EELb1EEEEC2B7v160006IfNS_18__default_init_tagEEEOT_OT0_, symObjAddr: 0x5F674, symBinAddr: 0x100062718, symSize: 0x140 }
  - { offsetInCU: 0x3D3EE, offset: 0x3D3EE, size: 0x8, addend: 0x0, symName: __ZNSt3__122__compressed_pair_elemINS_21__unordered_map_equalINS_12basic_stringIcNS_11char_traitsIcEENS_9allocatorIcEEEENS_17__hash_value_typeIS7_4SuitEENS_8equal_toIS7_EENS_4hashIS7_EELb1EEELi1ELb1EEC2B7v160006ENS_18__default_init_tagE, symObjAddr: 0x5F7B4, symBinAddr: 0x100062858, symSize: 0x84 }
  - { offsetInCU: 0x3D422, offset: 0x3D422, size: 0x8, addend: 0x0, symName: __ZNSt3__121__unordered_map_equalINS_12basic_stringIcNS_11char_traitsIcEENS_9allocatorIcEEEENS_17__hash_value_typeIS6_4SuitEENS_8equal_toIS6_EENS_4hashIS6_EELb1EEC2B7v160006Ev, symObjAddr: 0x5F838, symBinAddr: 0x1000628DC, symSize: 0x54 }
  - { offsetInCU: 0x3D44C, offset: 0x3D44C, size: 0x8, addend: 0x0, symName: __ZNSt3__112__hash_tableINS_17__hash_value_typeINS_12basic_stringIcNS_11char_traitsIcEENS_9allocatorIcEEEE4SuitEENS_22__unordered_map_hasherIS7_S9_NS_4hashIS7_EENS_8equal_toIS7_EELb1EEENS_21__unordered_map_equalIS7_S9_SE_SC_Lb1EEENS5_IS9_EEE15__insert_uniqueB7v160006ERKNS_4pairIKS7_S8_EE, symObjAddr: 0x5F88C, symBinAddr: 0x100062930, symSize: 0x34C }
  - { offsetInCU: 0x3D483, offset: 0x3D483, size: 0x8, addend: 0x0, symName: __ZNSt3__112__hash_tableINS_17__hash_value_typeINS_12basic_stringIcNS_11char_traitsIcEENS_9allocatorIcEEEE4SuitEENS_22__unordered_map_hasherIS7_S9_NS_4hashIS7_EENS_8equal_toIS7_EELb1EEENS_21__unordered_map_equalIS7_S9_SE_SC_Lb1EEENS5_IS9_EEE25__emplace_unique_key_argsIS7_JRKNS_4pairIKS7_S8_EEEEENSL_INS_15__hash_iteratorIPNS_11__hash_nodeIS9_PvEEEEbEERKT_DpOT0_, symObjAddr: 0x5FBD8, symBinAddr: 0x100062C7C, symSize: 0x1CBC }
  - { offsetInCU: 0x3D56C, offset: 0x3D56C, size: 0x8, addend: 0x0, symName: __ZNSt3__122__hash_key_value_typesINS_17__hash_value_typeINS_12basic_stringIcNS_11char_traitsIcEENS_9allocatorIcEEEE4SuitEEE9__get_keyB7v160006ERKNS_4pairIKS7_S8_EE, symObjAddr: 0x61894, symBinAddr: 0x100064938, symSize: 0x68 }
  - { offsetInCU: 0x3D58F, offset: 0x3D58F, size: 0x8, addend: 0x0, symName: __ZNSt3__112__hash_tableINS_17__hash_value_typeINS_12basic_stringIcNS_11char_traitsIcEENS_9allocatorIcEEEE4SuitEENS_22__unordered_map_hasherIS7_S9_NS_4hashIS7_EENS_8equal_toIS7_EELb1EEENS_21__unordered_map_equalIS7_S9_SE_SC_Lb1EEENS5_IS9_EEE13hash_functionB7v160006Ev, symObjAddr: 0x618FC, symBinAddr: 0x1000649A0, symSize: 0xE4 }
  - { offsetInCU: 0x3D5B5, offset: 0x3D5B5, size: 0x8, addend: 0x0, symName: __ZNKSt3__122__unordered_map_hasherINS_12basic_stringIcNS_11char_traitsIcEENS_9allocatorIcEEEENS_17__hash_value_typeIS6_4SuitEENS_4hashIS6_EENS_8equal_toIS6_EELb1EEclB7v160006ERKS6_, symObjAddr: 0x619E0, symBinAddr: 0x100064A84, symSize: 0xC8 }
  - { offsetInCU: 0x3D5EA, offset: 0x3D5EA, size: 0x8, addend: 0x0, symName: __ZNKSt3__112__hash_tableINS_17__hash_value_typeINS_12basic_stringIcNS_11char_traitsIcEENS_9allocatorIcEEEE4SuitEENS_22__unordered_map_hasherIS7_S9_NS_4hashIS7_EENS_8equal_toIS7_EELb1EEENS_21__unordered_map_equalIS7_S9_SE_SC_Lb1EEENS5_IS9_EEE12bucket_countB7v160006Ev, symObjAddr: 0x61AA8, symBinAddr: 0x100064B4C, symSize: 0xFC }
  - { offsetInCU: 0x3D610, offset: 0x3D610, size: 0x8, addend: 0x0, symName: __ZNKSt3__110unique_ptrIA_PNS_16__hash_node_baseIPNS_11__hash_nodeINS_17__hash_value_typeINS_12basic_stringIcNS_11char_traitsIcEENS_9allocatorIcEEEE4SuitEEPvEEEENS_25__bucket_list_deallocatorINS7_ISG_EEEEEixB7v160006Em, symObjAddr: 0x61BA4, symBinAddr: 0x100064C48, symSize: 0x25C }
  - { offsetInCU: 0x3D645, offset: 0x3D645, size: 0x8, addend: 0x0, symName: __ZNKSt3__116__hash_node_baseIPNS_11__hash_nodeINS_17__hash_value_typeINS_12basic_stringIcNS_11char_traitsIcEENS_9allocatorIcEEEE4SuitEEPvEEE6__hashB7v160006Ev, symObjAddr: 0x61E00, symBinAddr: 0x100064EA4, symSize: 0x180 }
  - { offsetInCU: 0x3D66B, offset: 0x3D66B, size: 0x8, addend: 0x0, symName: __ZNSt3__112__hash_tableINS_17__hash_value_typeINS_12basic_stringIcNS_11char_traitsIcEENS_9allocatorIcEEEE4SuitEENS_22__unordered_map_hasherIS7_S9_NS_4hashIS7_EENS_8equal_toIS7_EELb1EEENS_21__unordered_map_equalIS7_S9_SE_SC_Lb1EEENS5_IS9_EEE6key_eqB7v160006Ev, symObjAddr: 0x61F80, symBinAddr: 0x100065024, symSize: 0xE4 }
  - { offsetInCU: 0x3D691, offset: 0x3D691, size: 0x8, addend: 0x0, symName: __ZNKSt3__121__unordered_map_equalINS_12basic_stringIcNS_11char_traitsIcEENS_9allocatorIcEEEENS_17__hash_value_typeIS6_4SuitEENS_8equal_toIS6_EENS_4hashIS6_EELb1EEclB7v160006ERKS9_RKS6_, symObjAddr: 0x62064, symBinAddr: 0x100065108, symSize: 0x190 }
  - { offsetInCU: 0x3D6D5, offset: 0x3D6D5, size: 0x8, addend: 0x0, symName: __ZNSt3__112__hash_tableINS_17__hash_value_typeINS_12basic_stringIcNS_11char_traitsIcEENS_9allocatorIcEEEE4SuitEENS_22__unordered_map_hasherIS7_S9_NS_4hashIS7_EENS_8equal_toIS7_EELb1EEENS_21__unordered_map_equalIS7_S9_SE_SC_Lb1EEENS5_IS9_EEE21__construct_node_hashIRKNS_4pairIKS7_S8_EEJEEENS_10unique_ptrINS_11__hash_nodeIS9_PvEENS_22__hash_node_destructorINS5_IST_EEEEEEmOT_DpOT0_, symObjAddr: 0x621F4, symBinAddr: 0x100065298, symSize: 0x8E0 }
  - { offsetInCU: 0x3D74D, offset: 0x3D74D, size: 0x8, addend: 0x0, symName: __ZNSt3__112__hash_tableINS_17__hash_value_typeINS_12basic_stringIcNS_11char_traitsIcEENS_9allocatorIcEEEE4SuitEENS_22__unordered_map_hasherIS7_S9_NS_4hashIS7_EENS_8equal_toIS7_EELb1EEENS_21__unordered_map_equalIS7_S9_SE_SC_Lb1EEENS5_IS9_EEE4sizeB7v160006Ev, symObjAddr: 0x62AD4, symBinAddr: 0x100065B78, symSize: 0x100 }
  - { offsetInCU: 0x3D773, offset: 0x3D773, size: 0x8, addend: 0x0, symName: __ZNSt3__112__hash_tableINS_17__hash_value_typeINS_12basic_stringIcNS_11char_traitsIcEENS_9allocatorIcEEEE4SuitEENS_22__unordered_map_hasherIS7_S9_NS_4hashIS7_EENS_8equal_toIS7_EELb1EEENS_21__unordered_map_equalIS7_S9_SE_SC_Lb1EEENS5_IS9_EEE15max_load_factorB7v160006Ev, symObjAddr: 0x62BD4, symBinAddr: 0x100065C78, symSize: 0x100 }
  - { offsetInCU: 0x3D799, offset: 0x3D799, size: 0x8, addend: 0x0, symName: __ZNSt3__112__hash_tableINS_17__hash_value_typeINS_12basic_stringIcNS_11char_traitsIcEENS_9allocatorIcEEEE4SuitEENS_22__unordered_map_hasherIS7_S9_NS_4hashIS7_EENS_8equal_toIS7_EELb1EEENS_21__unordered_map_equalIS7_S9_SE_SC_Lb1EEENS5_IS9_EEE15__rehash_uniqueB7v160006Em, symObjAddr: 0x62CD4, symBinAddr: 0x100065D78, symSize: 0x74 }
  - { offsetInCU: 0x3D7CE, offset: 0x3D7CE, size: 0x8, addend: 0x0, symName: __ZNSt3__116__hash_node_baseIPNS_11__hash_nodeINS_17__hash_value_typeINS_12basic_stringIcNS_11char_traitsIcEENS_9allocatorIcEEEE4SuitEEPvEEE5__ptrB7v160006Ev, symObjAddr: 0x62D48, symBinAddr: 0x100065DEC, symSize: 0xB0 }
  - { offsetInCU: 0x3D7F4, offset: 0x3D7F4, size: 0x8, addend: 0x0, symName: __ZNKSt3__110unique_ptrINS_11__hash_nodeINS_17__hash_value_typeINS_12basic_stringIcNS_11char_traitsIcEENS_9allocatorIcEEEE4SuitEEPvEENS_22__hash_node_destructorINS6_ISC_EEEEEptB7v160006Ev, symObjAddr: 0x62DF8, symBinAddr: 0x100065E9C, symSize: 0x13C }
  - { offsetInCU: 0x3D81A, offset: 0x3D81A, size: 0x8, addend: 0x0, symName: __ZNKSt3__110unique_ptrINS_11__hash_nodeINS_17__hash_value_typeINS_12basic_stringIcNS_11char_traitsIcEENS_9allocatorIcEEEE4SuitEEPvEENS_22__hash_node_destructorINS6_ISC_EEEEE3getB7v160006Ev, symObjAddr: 0x62F34, symBinAddr: 0x100065FD8, symSize: 0x13C }
  - { offsetInCU: 0x3D840, offset: 0x3D840, size: 0x8, addend: 0x0, symName: __ZNSt3__110unique_ptrINS_11__hash_nodeINS_17__hash_value_typeINS_12basic_stringIcNS_11char_traitsIcEENS_9allocatorIcEEEE4SuitEEPvEENS_22__hash_node_destructorINS6_ISC_EEEEE7releaseB7v160006Ev, symObjAddr: 0x63070, symBinAddr: 0x100066114, symSize: 0x20C }
  - { offsetInCU: 0x3D875, offset: 0x3D875, size: 0x8, addend: 0x0, symName: __ZNSt3__110unique_ptrINS_11__hash_nodeINS_17__hash_value_typeINS_12basic_stringIcNS_11char_traitsIcEENS_9allocatorIcEEEE4SuitEEPvEENS_22__hash_node_destructorINS6_ISC_EEEEED1B7v160006Ev, symObjAddr: 0x6327C, symBinAddr: 0x100066320, symSize: 0x78 }
  - { offsetInCU: 0x3D8A5, offset: 0x3D8A5, size: 0x8, addend: 0x0, symName: __ZNSt3__14pairINS_15__hash_iteratorIPNS_11__hash_nodeINS_17__hash_value_typeINS_12basic_stringIcNS_11char_traitsIcEENS_9allocatorIcEEEE4SuitEEPvEEEEbEC1B7v160006ISF_RbLSC_0EEEOT_OT0_, symObjAddr: 0x632F4, symBinAddr: 0x100066398, symSize: 0x88 }
  - { offsetInCU: 0x3D903, offset: 0x3D903, size: 0x8, addend: 0x0, symName: __ZNSt3__117__compressed_pairImNS_22__unordered_map_hasherINS_12basic_stringIcNS_11char_traitsIcEENS_9allocatorIcEEEENS_17__hash_value_typeIS7_4SuitEENS_4hashIS7_EENS_8equal_toIS7_EELb1EEEE6secondB7v160006Ev, symObjAddr: 0x6337C, symBinAddr: 0x100066420, symSize: 0x108 }
  - { offsetInCU: 0x3D929, offset: 0x3D929, size: 0x8, addend: 0x0, symName: __ZNSt3__122__compressed_pair_elemINS_22__unordered_map_hasherINS_12basic_stringIcNS_11char_traitsIcEENS_9allocatorIcEEEENS_17__hash_value_typeIS7_4SuitEENS_4hashIS7_EENS_8equal_toIS7_EELb1EEELi1ELb1EE5__getB7v160006Ev, symObjAddr: 0x63484, symBinAddr: 0x100066528, symSize: 0x74 }
  - { offsetInCU: 0x3D94F, offset: 0x3D94F, size: 0x8, addend: 0x0, symName: __ZNKSt3__110unique_ptrIA_PNS_16__hash_node_baseIPNS_11__hash_nodeINS_17__hash_value_typeINS_12basic_stringIcNS_11char_traitsIcEENS_9allocatorIcEEEE4SuitEEPvEEEENS_25__bucket_list_deallocatorINS7_ISG_EEEEE11get_deleterB7v160006Ev, symObjAddr: 0x634F8, symBinAddr: 0x10006659C, symSize: 0xF8 }
  - { offsetInCU: 0x3D975, offset: 0x3D975, size: 0x8, addend: 0x0, symName: __ZNKSt3__125__bucket_list_deallocatorINS_9allocatorIPNS_16__hash_node_baseIPNS_11__hash_nodeINS_17__hash_value_typeINS_12basic_stringIcNS_11char_traitsIcEENS1_IcEEEE4SuitEEPvEEEEEEE4sizeB7v160006Ev, symObjAddr: 0x635F0, symBinAddr: 0x100066694, symSize: 0x13C }
  - { offsetInCU: 0x3D99B, offset: 0x3D99B, size: 0x8, addend: 0x0, symName: __ZNKSt3__117__compressed_pairIPPNS_16__hash_node_baseIPNS_11__hash_nodeINS_17__hash_value_typeINS_12basic_stringIcNS_11char_traitsIcEENS_9allocatorIcEEEE4SuitEEPvEEEENS_25__bucket_list_deallocatorINS7_ISG_EEEEE6secondB7v160006Ev, symObjAddr: 0x6372C, symBinAddr: 0x1000667D0, symSize: 0x12C }
  - { offsetInCU: 0x3D9C1, offset: 0x3D9C1, size: 0x8, addend: 0x0, symName: __ZNKSt3__122__compressed_pair_elemINS_25__bucket_list_deallocatorINS_9allocatorIPNS_16__hash_node_baseIPNS_11__hash_nodeINS_17__hash_value_typeINS_12basic_stringIcNS_11char_traitsIcEENS2_IcEEEE4SuitEEPvEEEEEEEELi1ELb0EE5__getB7v160006Ev, symObjAddr: 0x63858, symBinAddr: 0x1000668FC, symSize: 0xAC }
  - { offsetInCU: 0x3D9E7, offset: 0x3D9E7, size: 0x8, addend: 0x0, symName: __ZNKSt3__117__compressed_pairImNS_9allocatorIPNS_16__hash_node_baseIPNS_11__hash_nodeINS_17__hash_value_typeINS_12basic_stringIcNS_11char_traitsIcEENS1_IcEEEE4SuitEEPvEEEEEEE5firstB7v160006Ev, symObjAddr: 0x63904, symBinAddr: 0x1000669A8, symSize: 0x124 }
  - { offsetInCU: 0x3DA0D, offset: 0x3DA0D, size: 0x8, addend: 0x0, symName: __ZNKSt3__117__compressed_pairIPPNS_16__hash_node_baseIPNS_11__hash_nodeINS_17__hash_value_typeINS_12basic_stringIcNS_11char_traitsIcEENS_9allocatorIcEEEE4SuitEEPvEEEENS_25__bucket_list_deallocatorINS7_ISG_EEEEE5firstB7v160006Ev, symObjAddr: 0x63A28, symBinAddr: 0x100066ACC, symSize: 0x124 }
  - { offsetInCU: 0x3DA33, offset: 0x3DA33, size: 0x8, addend: 0x0, symName: __ZNKSt3__122__compressed_pair_elemIPPNS_16__hash_node_baseIPNS_11__hash_nodeINS_17__hash_value_typeINS_12basic_stringIcNS_11char_traitsIcEENS_9allocatorIcEEEE4SuitEEPvEEEELi0ELb0EE5__getB7v160006Ev, symObjAddr: 0x63B4C, symBinAddr: 0x100066BF0, symSize: 0xAC }
  - { offsetInCU: 0x3DA59, offset: 0x3DA59, size: 0x8, addend: 0x0, symName: __ZNSt3__117__compressed_pairIfNS_21__unordered_map_equalINS_12basic_stringIcNS_11char_traitsIcEENS_9allocatorIcEEEENS_17__hash_value_typeIS7_4SuitEENS_8equal_toIS7_EENS_4hashIS7_EELb1EEEE6secondB7v160006Ev, symObjAddr: 0x63BF8, symBinAddr: 0x100066C9C, symSize: 0x108 }
  - { offsetInCU: 0x3DA7F, offset: 0x3DA7F, size: 0x8, addend: 0x0, symName: __ZNSt3__122__compressed_pair_elemINS_21__unordered_map_equalINS_12basic_stringIcNS_11char_traitsIcEENS_9allocatorIcEEEENS_17__hash_value_typeIS7_4SuitEENS_8equal_toIS7_EENS_4hashIS7_EELb1EEELi1ELb1EE5__getB7v160006Ev, symObjAddr: 0x63D00, symBinAddr: 0x100066DA4, symSize: 0x74 }
  - { offsetInCU: 0x3DAA5, offset: 0x3DAA5, size: 0x8, addend: 0x0, symName: __ZNKSt3__117__hash_value_typeINS_12basic_stringIcNS_11char_traitsIcEENS_9allocatorIcEEEE4SuitE11__get_valueB7v160006Ev, symObjAddr: 0x63D74, symBinAddr: 0x100066E18, symSize: 0xB4 }
  - { offsetInCU: 0x3DACB, offset: 0x3DACB, size: 0x8, addend: 0x0, symName: __ZNSt3__112__hash_tableINS_17__hash_value_typeINS_12basic_stringIcNS_11char_traitsIcEENS_9allocatorIcEEEE4SuitEENS_22__unordered_map_hasherIS7_S9_NS_4hashIS7_EENS_8equal_toIS7_EELb1EEENS_21__unordered_map_equalIS7_S9_SE_SC_Lb1EEENS5_IS9_EEE12__node_allocB7v160006Ev, symObjAddr: 0x63E60, symBinAddr: 0x100066F04, symSize: 0xE4 }
  - { offsetInCU: 0x3DAF1, offset: 0x3DAF1, size: 0x8, addend: 0x0, symName: __ZNSt3__116allocator_traitsINS_9allocatorINS_11__hash_nodeINS_17__hash_value_typeINS_12basic_stringIcNS_11char_traitsIcEENS1_IcEEEE4SuitEEPvEEEEE8allocateB7v160006ERSD_m, symObjAddr: 0x63F44, symBinAddr: 0x100066FE8, symSize: 0x2C }
  - { offsetInCU: 0x3DB24, offset: 0x3DB24, size: 0x8, addend: 0x0, symName: __ZNSt3__122__hash_node_destructorINS_9allocatorINS_11__hash_nodeINS_17__hash_value_typeINS_12basic_stringIcNS_11char_traitsIcEENS1_IcEEEE4SuitEEPvEEEEEC1B7v160006ERSD_b, symObjAddr: 0x63F70, symBinAddr: 0x100067014, symSize: 0xCC }
  - { offsetInCU: 0x3DB72, offset: 0x3DB72, size: 0x8, addend: 0x0, symName: __ZNSt3__110unique_ptrINS_11__hash_nodeINS_17__hash_value_typeINS_12basic_stringIcNS_11char_traitsIcEENS_9allocatorIcEEEE4SuitEEPvEENS_22__hash_node_destructorINS6_ISC_EEEEEC1B7v160006ILb1EvEEPSC_NS_16__dependent_typeINS_27__unique_ptr_deleter_sfinaeISF_EEXT_EE20__good_rval_ref_typeE, symObjAddr: 0x6403C, symBinAddr: 0x1000670E0, symSize: 0x88 }
  - { offsetInCU: 0x3DBC3, offset: 0x3DBC3, size: 0x8, addend: 0x0, symName: __ZNSt3__116allocator_traitsINS_9allocatorINS_11__hash_nodeINS_17__hash_value_typeINS_12basic_stringIcNS_11char_traitsIcEENS1_IcEEEE4SuitEEPvEEEEE9constructB7v160006INS_4pairIKS8_S9_EEJRKSI_EvEEvRSD_PT_DpOT0_, symObjAddr: 0x640C4, symBinAddr: 0x100067168, symSize: 0x8C }
  - { offsetInCU: 0x3DC1A, offset: 0x3DC1A, size: 0x8, addend: 0x0, symName: __ZNSt3__122__hash_key_value_typesINS_17__hash_value_typeINS_12basic_stringIcNS_11char_traitsIcEENS_9allocatorIcEEEE4SuitEEE9__get_ptrB7v160006ERS9_, symObjAddr: 0x64150, symBinAddr: 0x1000671F4, symSize: 0x50 }
  - { offsetInCU: 0x3DC3D, offset: 0x3DC3D, size: 0x8, addend: 0x0, symName: __ZNSt3__110unique_ptrINS_11__hash_nodeINS_17__hash_value_typeINS_12basic_stringIcNS_11char_traitsIcEENS_9allocatorIcEEEE4SuitEEPvEENS_22__hash_node_destructorINS6_ISC_EEEEE11get_deleterB7v160006Ev, symObjAddr: 0x641A0, symBinAddr: 0x100067244, symSize: 0xF8 }
  - { offsetInCU: 0x3DC63, offset: 0x3DC63, size: 0x8, addend: 0x0, symName: __ZNSt3__117__compressed_pairINS_16__hash_node_baseIPNS_11__hash_nodeINS_17__hash_value_typeINS_12basic_stringIcNS_11char_traitsIcEENS_9allocatorIcEEEE4SuitEEPvEEEENS7_ISD_EEE6secondB7v160006Ev, symObjAddr: 0x64298, symBinAddr: 0x10006733C, symSize: 0x108 }
  - { offsetInCU: 0x3DC89, offset: 0x3DC89, size: 0x8, addend: 0x0, symName: __ZNSt3__122__compressed_pair_elemINS_9allocatorINS_11__hash_nodeINS_17__hash_value_typeINS_12basic_stringIcNS_11char_traitsIcEENS1_IcEEEE4SuitEEPvEEEELi1ELb1EE5__getB7v160006Ev, symObjAddr: 0x643A0, symBinAddr: 0x100067444, symSize: 0x74 }
  - { offsetInCU: 0x3DCAF, offset: 0x3DCAF, size: 0x8, addend: 0x0, symName: __ZNSt3__19allocatorINS_11__hash_nodeINS_17__hash_value_typeINS_12basic_stringIcNS_11char_traitsIcEENS0_IcEEEE4SuitEEPvEEE8allocateB7v160006Em, symObjAddr: 0x64414, symBinAddr: 0x1000674B8, symSize: 0xD0 }
  - { offsetInCU: 0x3DCEE, offset: 0x3DCEE, size: 0x8, addend: 0x0, symName: __ZNSt3__116allocator_traitsINS_9allocatorINS_11__hash_nodeINS_17__hash_value_typeINS_12basic_stringIcNS_11char_traitsIcEENS1_IcEEEE4SuitEEPvEEEEE8max_sizeB7v160006ISD_vEEmRKSD_, symObjAddr: 0x644E4, symBinAddr: 0x100067588, symSize: 0x24 }
  - { offsetInCU: 0x3DD1C, offset: 0x3DD1C, size: 0x8, addend: 0x0, symName: __ZNKSt3__19allocatorINS_11__hash_nodeINS_17__hash_value_typeINS_12basic_stringIcNS_11char_traitsIcEENS0_IcEEEE4SuitEEPvEEE8max_sizeB7v160006Ev, symObjAddr: 0x64508, symBinAddr: 0x1000675AC, symSize: 0x50 }
  - { offsetInCU: 0x3DD42, offset: 0x3DD42, size: 0x8, addend: 0x0, symName: __ZNSt3__122__hash_node_destructorINS_9allocatorINS_11__hash_nodeINS_17__hash_value_typeINS_12basic_stringIcNS_11char_traitsIcEENS1_IcEEEE4SuitEEPvEEEEEC2B7v160006ERSD_b, symObjAddr: 0x64558, symBinAddr: 0x1000675FC, symSize: 0x1A0 }
  - { offsetInCU: 0x3DD8A, offset: 0x3DD8A, size: 0x8, addend: 0x0, symName: __ZNSt3__110unique_ptrINS_11__hash_nodeINS_17__hash_value_typeINS_12basic_stringIcNS_11char_traitsIcEENS_9allocatorIcEEEE4SuitEEPvEENS_22__hash_node_destructorINS6_ISC_EEEEEC2B7v160006ILb1EvEEPSC_NS_16__dependent_typeINS_27__unique_ptr_deleter_sfinaeISF_EEXT_EE20__good_rval_ref_typeE, symObjAddr: 0x646F8, symBinAddr: 0x10006779C, symSize: 0x2BC }
  - { offsetInCU: 0x3DDE1, offset: 0x3DDE1, size: 0x8, addend: 0x0, symName: __ZNSt3__117__compressed_pairIPNS_11__hash_nodeINS_17__hash_value_typeINS_12basic_stringIcNS_11char_traitsIcEENS_9allocatorIcEEEE4SuitEEPvEENS_22__hash_node_destructorINS6_ISC_EEEEEC1B7v160006IRSD_SG_EEOT_OT0_, symObjAddr: 0x649B4, symBinAddr: 0x100067A58, symSize: 0x88 }
  - { offsetInCU: 0x3DE39, offset: 0x3DE39, size: 0x8, addend: 0x0, symName: __ZNSt3__117__compressed_pairIPNS_11__hash_nodeINS_17__hash_value_typeINS_12basic_stringIcNS_11char_traitsIcEENS_9allocatorIcEEEE4SuitEEPvEENS_22__hash_node_destructorINS6_ISC_EEEEEC2B7v160006IRSD_SG_EEOT_OT0_, symObjAddr: 0x64A3C, symBinAddr: 0x100067AE0, symSize: 0x1B4 }
  - { offsetInCU: 0x3DE91, offset: 0x3DE91, size: 0x8, addend: 0x0, symName: __ZNSt3__122__compressed_pair_elemIPNS_11__hash_nodeINS_17__hash_value_typeINS_12basic_stringIcNS_11char_traitsIcEENS_9allocatorIcEEEE4SuitEEPvEELi0ELb0EEC2B7v160006IRSD_vEEOT_, symObjAddr: 0x64BF0, symBinAddr: 0x100067C94, symSize: 0x144 }
  - { offsetInCU: 0x3DED3, offset: 0x3DED3, size: 0x8, addend: 0x0, symName: __ZNSt3__122__compressed_pair_elemINS_22__hash_node_destructorINS_9allocatorINS_11__hash_nodeINS_17__hash_value_typeINS_12basic_stringIcNS_11char_traitsIcEENS2_IcEEEE4SuitEEPvEEEEEELi1ELb0EEC2B7v160006ISF_vEEOT_, symObjAddr: 0x64D34, symBinAddr: 0x100067DD8, symSize: 0x84 }
  - { offsetInCU: 0x3DF15, offset: 0x3DF15, size: 0x8, addend: 0x0, symName: __ZNSt3__19allocatorINS_11__hash_nodeINS_17__hash_value_typeINS_12basic_stringIcNS_11char_traitsIcEENS0_IcEEEE4SuitEEPvEEE9constructB7v160006INS_4pairIKS7_S8_EEJRKSG_EEEvPT_DpOT0_, symObjAddr: 0x64DB8, symBinAddr: 0x100067E5C, symSize: 0xEC }
  - { offsetInCU: 0x3DF6B, offset: 0x3DF6B, size: 0x8, addend: 0x0, symName: __ZNSt3__117__compressed_pairIPNS_11__hash_nodeINS_17__hash_value_typeINS_12basic_stringIcNS_11char_traitsIcEENS_9allocatorIcEEEE4SuitEEPvEENS_22__hash_node_destructorINS6_ISC_EEEEE6secondB7v160006Ev, symObjAddr: 0x64EA4, symBinAddr: 0x100067F48, symSize: 0x12C }
  - { offsetInCU: 0x3DF91, offset: 0x3DF91, size: 0x8, addend: 0x0, symName: __ZNSt3__122__compressed_pair_elemINS_22__hash_node_destructorINS_9allocatorINS_11__hash_nodeINS_17__hash_value_typeINS_12basic_stringIcNS_11char_traitsIcEENS2_IcEEEE4SuitEEPvEEEEEELi1ELb0EE5__getB7v160006Ev, symObjAddr: 0x64FD0, symBinAddr: 0x100068074, symSize: 0xAC }
  - { offsetInCU: 0x3DFB7, offset: 0x3DFB7, size: 0x8, addend: 0x0, symName: __ZNSt3__117__compressed_pairImNS_22__unordered_map_hasherINS_12basic_stringIcNS_11char_traitsIcEENS_9allocatorIcEEEENS_17__hash_value_typeIS7_4SuitEENS_4hashIS7_EENS_8equal_toIS7_EELb1EEEE5firstB7v160006Ev, symObjAddr: 0x6507C, symBinAddr: 0x100068120, symSize: 0x124 }
  - { offsetInCU: 0x3DFDD, offset: 0x3DFDD, size: 0x8, addend: 0x0, symName: __ZNSt3__117__compressed_pairIfNS_21__unordered_map_equalINS_12basic_stringIcNS_11char_traitsIcEENS_9allocatorIcEEEENS_17__hash_value_typeIS7_4SuitEENS_8equal_toIS7_EENS_4hashIS7_EELb1EEEE5firstB7v160006Ev, symObjAddr: 0x651A0, symBinAddr: 0x100068244, symSize: 0x124 }
  - { offsetInCU: 0x3E003, offset: 0x3E003, size: 0x8, addend: 0x0, symName: __ZNSt3__112__hash_tableINS_17__hash_value_typeINS_12basic_stringIcNS_11char_traitsIcEENS_9allocatorIcEEEE4SuitEENS_22__unordered_map_hasherIS7_S9_NS_4hashIS7_EENS_8equal_toIS7_EELb1EEENS_21__unordered_map_equalIS7_S9_SE_SC_Lb1EEENS5_IS9_EEE8__rehashILb1EEEvm, symObjAddr: 0x652C4, symBinAddr: 0x100068368, symSize: 0x9CC }
  - { offsetInCU: 0x3E059, offset: 0x3E059, size: 0x8, addend: 0x0, symName: __ZNSt3__112__hash_tableINS_17__hash_value_typeINS_12basic_stringIcNS_11char_traitsIcEENS_9allocatorIcEEEE4SuitEENS_22__unordered_map_hasherIS7_S9_NS_4hashIS7_EENS_8equal_toIS7_EELb1EEENS_21__unordered_map_equalIS7_S9_SE_SC_Lb1EEENS5_IS9_EEE11__do_rehashILb1EEEvm, symObjAddr: 0x65C90, symBinAddr: 0x100068D34, symSize: 0x108C }
  - { offsetInCU: 0x3E13E, offset: 0x3E13E, size: 0x8, addend: 0x0, symName: __ZNSt3__110unique_ptrIA_PNS_16__hash_node_baseIPNS_11__hash_nodeINS_17__hash_value_typeINS_12basic_stringIcNS_11char_traitsIcEENS_9allocatorIcEEEE4SuitEEPvEEEENS_25__bucket_list_deallocatorINS7_ISG_EEEEE11get_deleterB7v160006Ev, symObjAddr: 0x66D2C, symBinAddr: 0x100069DD0, symSize: 0xF8 }
  - { offsetInCU: 0x3E164, offset: 0x3E164, size: 0x8, addend: 0x0, symName: __ZNSt3__125__bucket_list_deallocatorINS_9allocatorIPNS_16__hash_node_baseIPNS_11__hash_nodeINS_17__hash_value_typeINS_12basic_stringIcNS_11char_traitsIcEENS1_IcEEEE4SuitEEPvEEEEEEE7__allocB7v160006Ev, symObjAddr: 0x66E24, symBinAddr: 0x100069EC8, symSize: 0xDC }
  - { offsetInCU: 0x3E18A, offset: 0x3E18A, size: 0x8, addend: 0x0, symName: __ZNSt3__110unique_ptrIA_PNS_16__hash_node_baseIPNS_11__hash_nodeINS_17__hash_value_typeINS_12basic_stringIcNS_11char_traitsIcEENS_9allocatorIcEEEE4SuitEEPvEEEENS_25__bucket_list_deallocatorINS7_ISG_EEEEE5resetB7v160006IPSG_EENS_9enable_ifIXsr28_CheckArrayPointerConversionIT_EE5valueEvE4typeESP_, symObjAddr: 0x66F00, symBinAddr: 0x100069FA4, symSize: 0x2CC }
  - { offsetInCU: 0x3E1D7, offset: 0x3E1D7, size: 0x8, addend: 0x0, symName: __ZNSt3__116allocator_traitsINS_9allocatorIPNS_16__hash_node_baseIPNS_11__hash_nodeINS_17__hash_value_typeINS_12basic_stringIcNS_11char_traitsIcEENS1_IcEEEE4SuitEEPvEEEEEEE8allocateB7v160006ERSH_m, symObjAddr: 0x671CC, symBinAddr: 0x10006A270, symSize: 0x2C }
  - { offsetInCU: 0x3E20A, offset: 0x3E20A, size: 0x8, addend: 0x0, symName: __ZNSt3__125__bucket_list_deallocatorINS_9allocatorIPNS_16__hash_node_baseIPNS_11__hash_nodeINS_17__hash_value_typeINS_12basic_stringIcNS_11char_traitsIcEENS1_IcEEEE4SuitEEPvEEEEEEE4sizeB7v160006Ev, symObjAddr: 0x671F8, symBinAddr: 0x10006A29C, symSize: 0xF8 }
  - { offsetInCU: 0x3E230, offset: 0x3E230, size: 0x8, addend: 0x0, symName: __ZNSt3__117__compressed_pairIPPNS_16__hash_node_baseIPNS_11__hash_nodeINS_17__hash_value_typeINS_12basic_stringIcNS_11char_traitsIcEENS_9allocatorIcEEEE4SuitEEPvEEEENS_25__bucket_list_deallocatorINS7_ISG_EEEEE6secondB7v160006Ev, symObjAddr: 0x672F0, symBinAddr: 0x10006A394, symSize: 0x12C }
  - { offsetInCU: 0x3E256, offset: 0x3E256, size: 0x8, addend: 0x0, symName: __ZNSt3__122__compressed_pair_elemINS_25__bucket_list_deallocatorINS_9allocatorIPNS_16__hash_node_baseIPNS_11__hash_nodeINS_17__hash_value_typeINS_12basic_stringIcNS_11char_traitsIcEENS2_IcEEEE4SuitEEPvEEEEEEEELi1ELb0EE5__getB7v160006Ev, symObjAddr: 0x6741C, symBinAddr: 0x10006A4C0, symSize: 0xAC }
  - { offsetInCU: 0x3E27C, offset: 0x3E27C, size: 0x8, addend: 0x0, symName: __ZNSt3__117__compressed_pairImNS_9allocatorIPNS_16__hash_node_baseIPNS_11__hash_nodeINS_17__hash_value_typeINS_12basic_stringIcNS_11char_traitsIcEENS1_IcEEEE4SuitEEPvEEEEEEE6secondB7v160006Ev, symObjAddr: 0x674C8, symBinAddr: 0x10006A56C, symSize: 0x108 }
  - { offsetInCU: 0x3E2A2, offset: 0x3E2A2, size: 0x8, addend: 0x0, symName: __ZNSt3__122__compressed_pair_elemINS_9allocatorIPNS_16__hash_node_baseIPNS_11__hash_nodeINS_17__hash_value_typeINS_12basic_stringIcNS_11char_traitsIcEENS1_IcEEEE4SuitEEPvEEEEEELi1ELb1EE5__getB7v160006Ev, symObjAddr: 0x675D0, symBinAddr: 0x10006A674, symSize: 0x74 }
  - { offsetInCU: 0x3E2C8, offset: 0x3E2C8, size: 0x8, addend: 0x0, symName: __ZNSt3__117__compressed_pairIPPNS_16__hash_node_baseIPNS_11__hash_nodeINS_17__hash_value_typeINS_12basic_stringIcNS_11char_traitsIcEENS_9allocatorIcEEEE4SuitEEPvEEEENS_25__bucket_list_deallocatorINS7_ISG_EEEEE5firstB7v160006Ev, symObjAddr: 0x67644, symBinAddr: 0x10006A6E8, symSize: 0x124 }
  - { offsetInCU: 0x3E2EE, offset: 0x3E2EE, size: 0x8, addend: 0x0, symName: __ZNSt3__125__bucket_list_deallocatorINS_9allocatorIPNS_16__hash_node_baseIPNS_11__hash_nodeINS_17__hash_value_typeINS_12basic_stringIcNS_11char_traitsIcEENS1_IcEEEE4SuitEEPvEEEEEEEclB7v160006EPSG_, symObjAddr: 0x67768, symBinAddr: 0x10006A80C, symSize: 0x140 }
  - { offsetInCU: 0x3E323, offset: 0x3E323, size: 0x8, addend: 0x0, symName: __ZNSt3__122__compressed_pair_elemIPPNS_16__hash_node_baseIPNS_11__hash_nodeINS_17__hash_value_typeINS_12basic_stringIcNS_11char_traitsIcEENS_9allocatorIcEEEE4SuitEEPvEEEELi0ELb0EE5__getB7v160006Ev, symObjAddr: 0x678A8, symBinAddr: 0x10006A94C, symSize: 0xAC }
  - { offsetInCU: 0x3E349, offset: 0x3E349, size: 0x8, addend: 0x0, symName: __ZNSt3__116allocator_traitsINS_9allocatorIPNS_16__hash_node_baseIPNS_11__hash_nodeINS_17__hash_value_typeINS_12basic_stringIcNS_11char_traitsIcEENS1_IcEEEE4SuitEEPvEEEEEEE10deallocateB7v160006ERSH_PSG_m, symObjAddr: 0x67954, symBinAddr: 0x10006A9F8, symSize: 0x34 }
  - { offsetInCU: 0x3E38B, offset: 0x3E38B, size: 0x8, addend: 0x0, symName: __ZNSt3__19allocatorIPNS_16__hash_node_baseIPNS_11__hash_nodeINS_17__hash_value_typeINS_12basic_stringIcNS_11char_traitsIcEENS0_IcEEEE4SuitEEPvEEEEE10deallocateB7v160006EPSF_m, symObjAddr: 0x67988, symBinAddr: 0x10006AA2C, symSize: 0x78 }
  - { offsetInCU: 0x3E3CD, offset: 0x3E3CD, size: 0x8, addend: 0x0, symName: __ZNSt3__19allocatorIPNS_16__hash_node_baseIPNS_11__hash_nodeINS_17__hash_value_typeINS_12basic_stringIcNS_11char_traitsIcEENS0_IcEEEE4SuitEEPvEEEEE8allocateB7v160006Em, symObjAddr: 0x67A00, symBinAddr: 0x10006AAA4, symSize: 0xCC }
  - { offsetInCU: 0x3E40C, offset: 0x3E40C, size: 0x8, addend: 0x0, symName: __ZNSt3__116allocator_traitsINS_9allocatorIPNS_16__hash_node_baseIPNS_11__hash_nodeINS_17__hash_value_typeINS_12basic_stringIcNS_11char_traitsIcEENS1_IcEEEE4SuitEEPvEEEEEEE8max_sizeB7v160006ISH_vEEmRKSH_, symObjAddr: 0x67ACC, symBinAddr: 0x10006AB70, symSize: 0x24 }
  - { offsetInCU: 0x3E43A, offset: 0x3E43A, size: 0x8, addend: 0x0, symName: __ZNKSt3__19allocatorIPNS_16__hash_node_baseIPNS_11__hash_nodeINS_17__hash_value_typeINS_12basic_stringIcNS_11char_traitsIcEENS0_IcEEEE4SuitEEPvEEEEE8max_sizeB7v160006Ev, symObjAddr: 0x67AF0, symBinAddr: 0x10006AB94, symSize: 0x4C }
  - { offsetInCU: 0x3E460, offset: 0x3E460, size: 0x8, addend: 0x0, symName: __ZNSt3__117__compressed_pairImNS_9allocatorIPNS_16__hash_node_baseIPNS_11__hash_nodeINS_17__hash_value_typeINS_12basic_stringIcNS_11char_traitsIcEENS1_IcEEEE4SuitEEPvEEEEEEE5firstB7v160006Ev, symObjAddr: 0x67B3C, symBinAddr: 0x10006ABE0, symSize: 0x124 }
  - { offsetInCU: 0x3E486, offset: 0x3E486, size: 0x8, addend: 0x0, symName: __ZNKSt3__117__compressed_pairIPNS_11__hash_nodeINS_17__hash_value_typeINS_12basic_stringIcNS_11char_traitsIcEENS_9allocatorIcEEEE4SuitEEPvEENS_22__hash_node_destructorINS6_ISC_EEEEE5firstB7v160006Ev, symObjAddr: 0x67C60, symBinAddr: 0x10006AD04, symSize: 0x124 }
  - { offsetInCU: 0x3E4AC, offset: 0x3E4AC, size: 0x8, addend: 0x0, symName: __ZNKSt3__122__compressed_pair_elemIPNS_11__hash_nodeINS_17__hash_value_typeINS_12basic_stringIcNS_11char_traitsIcEENS_9allocatorIcEEEE4SuitEEPvEELi0ELb0EE5__getB7v160006Ev, symObjAddr: 0x67D84, symBinAddr: 0x10006AE28, symSize: 0xAC }
  - { offsetInCU: 0x3E4D2, offset: 0x3E4D2, size: 0x8, addend: 0x0, symName: __ZNSt3__117__compressed_pairIPNS_11__hash_nodeINS_17__hash_value_typeINS_12basic_stringIcNS_11char_traitsIcEENS_9allocatorIcEEEE4SuitEEPvEENS_22__hash_node_destructorINS6_ISC_EEEEE5firstB7v160006Ev, symObjAddr: 0x67E30, symBinAddr: 0x10006AED4, symSize: 0x124 }
  - { offsetInCU: 0x3E4F8, offset: 0x3E4F8, size: 0x8, addend: 0x0, symName: __ZNSt3__122__compressed_pair_elemIPNS_11__hash_nodeINS_17__hash_value_typeINS_12basic_stringIcNS_11char_traitsIcEENS_9allocatorIcEEEE4SuitEEPvEELi0ELb0EE5__getB7v160006Ev, symObjAddr: 0x67F54, symBinAddr: 0x10006AFF8, symSize: 0xAC }
  - { offsetInCU: 0x3E51E, offset: 0x3E51E, size: 0x8, addend: 0x0, symName: __ZNSt3__110unique_ptrINS_11__hash_nodeINS_17__hash_value_typeINS_12basic_stringIcNS_11char_traitsIcEENS_9allocatorIcEEEE4SuitEEPvEENS_22__hash_node_destructorINS6_ISC_EEEEED2B7v160006Ev, symObjAddr: 0x68000, symBinAddr: 0x10006B0A4, symSize: 0x7C }
  - { offsetInCU: 0x3E548, offset: 0x3E548, size: 0x8, addend: 0x0, symName: __ZNSt3__110unique_ptrINS_11__hash_nodeINS_17__hash_value_typeINS_12basic_stringIcNS_11char_traitsIcEENS_9allocatorIcEEEE4SuitEEPvEENS_22__hash_node_destructorINS6_ISC_EEEEE5resetB7v160006EPSC_, symObjAddr: 0x6807C, symBinAddr: 0x10006B120, symSize: 0x2CC }
  - { offsetInCU: 0x3E58C, offset: 0x3E58C, size: 0x8, addend: 0x0, symName: __ZNSt3__122__hash_node_destructorINS_9allocatorINS_11__hash_nodeINS_17__hash_value_typeINS_12basic_stringIcNS_11char_traitsIcEENS1_IcEEEE4SuitEEPvEEEEEclB7v160006EPSC_, symObjAddr: 0x68348, symBinAddr: 0x10006B3EC, symSize: 0x2B8 }
  - { offsetInCU: 0x3E5C1, offset: 0x3E5C1, size: 0x8, addend: 0x0, symName: __ZNSt3__116allocator_traitsINS_9allocatorINS_11__hash_nodeINS_17__hash_value_typeINS_12basic_stringIcNS_11char_traitsIcEENS1_IcEEEE4SuitEEPvEEEEE7destroyB7v160006INS_4pairIKS8_S9_EEvvEEvRSD_PT_, symObjAddr: 0x68600, symBinAddr: 0x10006B6A4, symSize: 0x70 }
  - { offsetInCU: 0x3E5FC, offset: 0x3E5FC, size: 0x8, addend: 0x0, symName: __ZNSt3__116allocator_traitsINS_9allocatorINS_11__hash_nodeINS_17__hash_value_typeINS_12basic_stringIcNS_11char_traitsIcEENS1_IcEEEE4SuitEEPvEEEEE10deallocateB7v160006ERSD_PSC_m, symObjAddr: 0x68670, symBinAddr: 0x10006B714, symSize: 0x34 }
  - { offsetInCU: 0x3E63E, offset: 0x3E63E, size: 0x8, addend: 0x0, symName: __ZNSt3__19allocatorINS_11__hash_nodeINS_17__hash_value_typeINS_12basic_stringIcNS_11char_traitsIcEENS0_IcEEEE4SuitEEPvEEE10deallocateB7v160006EPSB_m, symObjAddr: 0x686A4, symBinAddr: 0x10006B748, symSize: 0x7C }
  - { offsetInCU: 0x3E680, offset: 0x3E680, size: 0x8, addend: 0x0, symName: __ZNSt3__14pairINS_15__hash_iteratorIPNS_11__hash_nodeINS_17__hash_value_typeINS_12basic_stringIcNS_11char_traitsIcEENS_9allocatorIcEEEE4SuitEEPvEEEEbEC2B7v160006ISF_RbLSC_0EEEOT_OT0_, symObjAddr: 0x68720, symBinAddr: 0x10006B7C4, symSize: 0x1C8 }
  - { offsetInCU: 0x3E6DE, offset: 0x3E6DE, size: 0x8, addend: 0x0, symName: __ZNSt3__112__hash_tableINS_17__hash_value_typeINS_12basic_stringIcNS_11char_traitsIcEENS_9allocatorIcEEEE4SuitEENS_22__unordered_map_hasherIS7_S9_NS_4hashIS7_EENS_8equal_toIS7_EELb1EEENS_21__unordered_map_equalIS7_S9_SE_SC_Lb1EEENS5_IS9_EEED2Ev, symObjAddr: 0x688E8, symBinAddr: 0x10006B98C, symSize: 0x1C0 }
  - { offsetInCU: 0x3E70A, offset: 0x3E70A, size: 0x8, addend: 0x0, symName: __ZNSt3__112__hash_tableINS_17__hash_value_typeINS_12basic_stringIcNS_11char_traitsIcEENS_9allocatorIcEEEE4SuitEENS_22__unordered_map_hasherIS7_S9_NS_4hashIS7_EENS_8equal_toIS7_EELb1EEENS_21__unordered_map_equalIS7_S9_SE_SC_Lb1EEENS5_IS9_EEE17__deallocate_nodeEPNS_16__hash_node_baseIPNS_11__hash_nodeIS9_PvEEEE, symObjAddr: 0x68AA8, symBinAddr: 0x10006BB4C, symSize: 0x300 }
  - { offsetInCU: 0x3E77C, offset: 0x3E77C, size: 0x8, addend: 0x0, symName: __ZNSt3__110unique_ptrIA_PNS_16__hash_node_baseIPNS_11__hash_nodeINS_17__hash_value_typeINS_12basic_stringIcNS_11char_traitsIcEENS_9allocatorIcEEEE4SuitEEPvEEEENS_25__bucket_list_deallocatorINS7_ISG_EEEEED1B7v160006Ev, symObjAddr: 0x68DB8, symBinAddr: 0x10006BE5C, symSize: 0x78 }
  - { offsetInCU: 0x3E7A6, offset: 0x3E7A6, size: 0x8, addend: 0x0, symName: __ZNSt3__110unique_ptrIA_PNS_16__hash_node_baseIPNS_11__hash_nodeINS_17__hash_value_typeINS_12basic_stringIcNS_11char_traitsIcEENS_9allocatorIcEEEE4SuitEEPvEEEENS_25__bucket_list_deallocatorINS7_ISG_EEEEED2B7v160006Ev, symObjAddr: 0x68E30, symBinAddr: 0x10006BED4, symSize: 0x7C }
  - { offsetInCU: 0x3E7D0, offset: 0x3E7D0, size: 0x8, addend: 0x0, symName: __ZNSt3__110unique_ptrIA_PNS_16__hash_node_baseIPNS_11__hash_nodeINS_17__hash_value_typeINS_12basic_stringIcNS_11char_traitsIcEENS_9allocatorIcEEEE4SuitEEPvEEEENS_25__bucket_list_deallocatorINS7_ISG_EEEEE5resetB7v160006EDn, symObjAddr: 0x68EAC, symBinAddr: 0x10006BF50, symSize: 0x2C0 }
  - { offsetInCU: 0x3E811, offset: 0x3E811, size: 0x8, addend: 0x0, symName: __ZNSt3__113unordered_mapINS_12basic_stringIcNS_11char_traitsIcEENS_9allocatorIcEEEE4SuitNS_4hashIS6_EENS_8equal_toIS6_EENS4_INS_4pairIKS6_S7_EEEEED2B7v160006Ev, symObjAddr: 0x6916C, symBinAddr: 0x10006C210, symSize: 0x78 }
  - { offsetInCU: 0x3E83B, offset: 0x3E83B, size: 0x8, addend: 0x0, symName: __ZNSt3__112basic_stringIcNS_11char_traitsIcEENS_9allocatorIcEEEC2B7v160006Ev, symObjAddr: 0x691E4, symBinAddr: 0x10006C288, symSize: 0x27C }
  - { offsetInCU: 0x3E866, offset: 0x3E866, size: 0x8, addend: 0x0, symName: __ZNSt3__112basic_stringIcNS_11char_traitsIcEENS_9allocatorIcEEE14__default_initB7v160006Ev, symObjAddr: 0x69460, symBinAddr: 0x10006C504, symSize: 0x2B4 }
  - { offsetInCU: 0x3E88D, offset: 0x3E88D, size: 0x8, addend: 0x0, symName: __ZNSt3__117__compressed_pairINS_12basic_stringIcNS_11char_traitsIcEENS_9allocatorIcEEE5__repES5_E5firstB7v160006Ev, symObjAddr: 0x69714, symBinAddr: 0x10006C7B8, symSize: 0x124 }
  - { offsetInCU: 0x3E8B3, offset: 0x3E8B3, size: 0x8, addend: 0x0, symName: __ZNSt3__122__compressed_pair_elemINS_12basic_stringIcNS_11char_traitsIcEENS_9allocatorIcEEE5__repELi0ELb0EE5__getB7v160006Ev, symObjAddr: 0x69838, symBinAddr: 0x10006C8DC, symSize: 0xAC }
  - { offsetInCU: 0x3E985, offset: 0x3E985, size: 0x8, addend: 0x0, symName: __ZNKSt3__113basic_istreamIcNS_11char_traitsIcEEE6sentrycvbB7v160006Ev, symObjAddr: 0x698E4, symBinAddr: 0x10006C988, symSize: 0xE8 }
  - { offsetInCU: 0x3E9AB, offset: 0x3E9AB, size: 0x8, addend: 0x0, symName: __ZNSt3__112basic_stringIcNS_11char_traitsIcEENS_9allocatorIcEEE5clearB7v160006Ev, symObjAddr: 0x699CC, symBinAddr: 0x10006CA70, symSize: 0x3B4 }
  - { offsetInCU: 0x3E9D4, offset: 0x3E9D4, size: 0x8, addend: 0x0, symName: __ZNKSt3__18ios_base5widthB7v160006Ev, symObjAddr: 0x69D80, symBinAddr: 0x10006CE24, symSize: 0x138 }
  - { offsetInCU: 0x3E9FC, offset: 0x3E9FC, size: 0x8, addend: 0x0, symName: __ZNKSt3__112basic_stringIcNS_11char_traitsIcEENS_9allocatorIcEEE8max_sizeB7v160006Ev, symObjAddr: 0x69EB8, symBinAddr: 0x10006CF5C, symSize: 0x1B8 }
  - { offsetInCU: 0x3EA4E, offset: 0x3EA4E, size: 0x8, addend: 0x0, symName: __ZNKSt3__19basic_iosIcNS_11char_traitsIcEEE5rdbufB7v160006Ev, symObjAddr: 0x6A1F8, symBinAddr: 0x10006D29C, symSize: 0x120 }
  - { offsetInCU: 0x3EA76, offset: 0x3EA76, size: 0x8, addend: 0x0, symName: __ZNSt3__115basic_streambufIcNS_11char_traitsIcEEE5sgetcB7v160006Ev, symObjAddr: 0x6A318, symBinAddr: 0x10006D3BC, symSize: 0x418 }
  - { offsetInCU: 0x3EA9C, offset: 0x3EA9C, size: 0x8, addend: 0x0, symName: __ZNSt3__111char_traitsIcE11eq_int_typeEii, symObjAddr: 0x6A730, symBinAddr: 0x10006D7D4, symSize: 0x28 }
  - { offsetInCU: 0x3EACD, offset: 0x3EACD, size: 0x8, addend: 0x0, symName: __ZNSt3__111char_traitsIcE3eofEv, symObjAddr: 0x6A758, symBinAddr: 0x10006D7FC, symSize: 0x8 }
  - { offsetInCU: 0x3EAE1, offset: 0x3EAE1, size: 0x8, addend: 0x0, symName: __ZNSt3__111char_traitsIcE12to_char_typeEi, symObjAddr: 0x6A760, symBinAddr: 0x10006D804, symSize: 0x18 }
  - { offsetInCU: 0x3EB32, offset: 0x3EB32, size: 0x8, addend: 0x0, symName: __ZNKSt3__15ctypeIcE2isB7v160006Ejc, symObjAddr: 0x6A778, symBinAddr: 0x10006D81C, symSize: 0x314 }
  - { offsetInCU: 0x3EB76, offset: 0x3EB76, size: 0x8, addend: 0x0, symName: __ZNSt3__115basic_streambufIcNS_11char_traitsIcEEE6sbumpcB7v160006Ev, symObjAddr: 0x6AA8C, symBinAddr: 0x10006DB30, symSize: 0x4D8 }
  - { offsetInCU: 0x3EB9C, offset: 0x3EB9C, size: 0x8, addend: 0x0, symName: __ZNSt3__18ios_base5widthB7v160006El, symObjAddr: 0x6AF64, symBinAddr: 0x10006E008, symSize: 0x1F8 }
  - { offsetInCU: 0x3EBE2, offset: 0x3EBE2, size: 0x8, addend: 0x0, symName: __ZNSt3__18ios_base18__setstate_nothrowB7v160006Ej, symObjAddr: 0x6B15C, symBinAddr: 0x10006E200, symSize: 0x320 }
  - { offsetInCU: 0x3EC17, offset: 0x3EC17, size: 0x8, addend: 0x0, symName: __ZNKSt3__19basic_iosIcNS_11char_traitsIcEEE10exceptionsB7v160006Ev, symObjAddr: 0x6B47C, symBinAddr: 0x10006E520, symSize: 0x120 }
  - { offsetInCU: 0x3EC3D, offset: 0x3EC3D, size: 0x8, addend: 0x0, symName: __ZNSt3__19basic_iosIcNS_11char_traitsIcEEE8setstateB7v160006Ej, symObjAddr: 0x6B59C, symBinAddr: 0x10006E640, symSize: 0x128 }
  - { offsetInCU: 0x3EC72, offset: 0x3EC72, size: 0x8, addend: 0x0, symName: __ZNSt3__111char_traitsIcE6assignERcRKc, symObjAddr: 0x6B6D4, symBinAddr: 0x10006E778, symSize: 0xF4 }
  - { offsetInCU: 0x3ECA3, offset: 0x3ECA3, size: 0x8, addend: 0x0, symName: __ZNSt3__112basic_stringIcNS_11char_traitsIcEENS_9allocatorIcEEE18__get_long_pointerB7v160006Ev, symObjAddr: 0x6B7C8, symBinAddr: 0x10006E86C, symSize: 0x208 }
  - { offsetInCU: 0x3ECC9, offset: 0x3ECC9, size: 0x8, addend: 0x0, symName: __ZNSt3__112basic_stringIcNS_11char_traitsIcEENS_9allocatorIcEEE15__set_long_sizeB7v160006Em, symObjAddr: 0x6B9D0, symBinAddr: 0x10006EA74, symSize: 0x220 }
  - { offsetInCU: 0x3ECFE, offset: 0x3ECFE, size: 0x8, addend: 0x0, symName: __ZNSt3__112basic_stringIcNS_11char_traitsIcEENS_9allocatorIcEEE19__get_short_pointerB7v160006Ev, symObjAddr: 0x6BBF0, symBinAddr: 0x10006EC94, symSize: 0x1CC }
  - { offsetInCU: 0x3ED24, offset: 0x3ED24, size: 0x8, addend: 0x0, symName: __ZNSt3__112basic_stringIcNS_11char_traitsIcEENS_9allocatorIcEEE16__set_short_sizeB7v160006Em, symObjAddr: 0x6BDBC, symBinAddr: 0x10006EE60, symSize: 0x394 }
  - { offsetInCU: 0x3ED59, offset: 0x3ED59, size: 0x8, addend: 0x0, symName: __ZNSt3__114pointer_traitsIPcE10pointer_toB7v160006ERc, symObjAddr: 0x6C150, symBinAddr: 0x10006F1F4, symSize: 0x14 }
  - { offsetInCU: 0x3ED87, offset: 0x3ED87, size: 0x8, addend: 0x0, symName: __ZNSt3__116allocator_traitsINS_9allocatorIcEEE8max_sizeB7v160006IS2_vEEmRKS2_, symObjAddr: 0x6C164, symBinAddr: 0x10006F208, symSize: 0x24 }
  - { offsetInCU: 0x3EDB5, offset: 0x3EDB5, size: 0x8, addend: 0x0, symName: __ZNKSt3__112basic_stringIcNS_11char_traitsIcEENS_9allocatorIcEEE7__allocB7v160006Ev, symObjAddr: 0x6C188, symBinAddr: 0x10006F22C, symSize: 0xDC }
  - { offsetInCU: 0x3EDDB, offset: 0x3EDDB, size: 0x8, addend: 0x0, symName: __ZNSt3__114numeric_limitsImE3maxB7v160006Ev, symObjAddr: 0x6C264, symBinAddr: 0x10006F308, symSize: 0x14 }
  - { offsetInCU: 0x3EDEF, offset: 0x3EDEF, size: 0x8, addend: 0x0, symName: __ZNKSt3__19allocatorIcE8max_sizeB7v160006Ev, symObjAddr: 0x6C278, symBinAddr: 0x10006F31C, symSize: 0x4C }
  - { offsetInCU: 0x3EE15, offset: 0x3EE15, size: 0x8, addend: 0x0, symName: __ZNKSt3__117__compressed_pairINS_12basic_stringIcNS_11char_traitsIcEENS_9allocatorIcEEE5__repES5_E6secondB7v160006Ev, symObjAddr: 0x6C2C4, symBinAddr: 0x10006F368, symSize: 0x108 }
  - { offsetInCU: 0x3EE3B, offset: 0x3EE3B, size: 0x8, addend: 0x0, symName: __ZNKSt3__122__compressed_pair_elemINS_9allocatorIcEELi1ELb1EE5__getB7v160006Ev, symObjAddr: 0x6C3CC, symBinAddr: 0x10006F470, symSize: 0x74 }
  - { offsetInCU: 0x3EE61, offset: 0x3EE61, size: 0x8, addend: 0x0, symName: __ZNSt3__123__libcpp_numeric_limitsImLb1EE3maxB7v160006Ev, symObjAddr: 0x6C440, symBinAddr: 0x10006F4E4, symSize: 0x8 }
  - { offsetInCU: 0x3EE75, offset: 0x3EE75, size: 0x8, addend: 0x0, symName: __ZNKSt3__18ios_base5rdbufB7v160006Ev, symObjAddr: 0x6C448, symBinAddr: 0x10006F4EC, symSize: 0x138 }
  - { offsetInCU: 0x3EE9B, offset: 0x3EE9B, size: 0x8, addend: 0x0, symName: __ZNSt3__111char_traitsIcE11to_int_typeEc, symObjAddr: 0x6C580, symBinAddr: 0x10006F624, symSize: 0x14 }
  - { offsetInCU: 0x3EEBD, offset: 0x3EEBD, size: 0x8, addend: 0x0, symName: __Z7isasciii, symObjAddr: 0x6C594, symBinAddr: 0x10006F638, symSize: 0x24 }
  - { offsetInCU: 0x3EEEA, offset: 0x3EEEA, size: 0x8, addend: 0x0, symName: __ZNKSt3__18ios_base10exceptionsB7v160006Ev, symObjAddr: 0x6C5B8, symBinAddr: 0x10006F65C, symSize: 0x160 }
  - { offsetInCU: 0x3EF12, offset: 0x3EF12, size: 0x8, addend: 0x0, symName: __ZNSt3__18ios_base8setstateB7v160006Ej, symObjAddr: 0x6C718, symBinAddr: 0x10006F7BC, symSize: 0x1E0 }
  - { offsetInCU: 0x3EF49, offset: 0x3EF49, size: 0x8, addend: 0x0, symName: __ZNSt3__112__hash_tableINS_17__hash_value_typeINS_12basic_stringIcNS_11char_traitsIcEENS_9allocatorIcEEEE5ValueEENS_22__unordered_map_hasherIS7_S9_NS_4hashIS7_EENS_8equal_toIS7_EELb1EEENS_21__unordered_map_equalIS7_S9_SE_SC_Lb1EEENS5_IS9_EEE4findIS7_EENS_15__hash_iteratorIPNS_11__hash_nodeIS9_PvEEEERKT_, symObjAddr: 0x6C8F8, symBinAddr: 0x10006F99C, symSize: 0x8EC }
  - { offsetInCU: 0x3EFD1, offset: 0x3EFD1, size: 0x8, addend: 0x0, symName: __ZNSt3__112__hash_tableINS_17__hash_value_typeINS_12basic_stringIcNS_11char_traitsIcEENS_9allocatorIcEEEE5ValueEENS_22__unordered_map_hasherIS7_S9_NS_4hashIS7_EENS_8equal_toIS7_EELb1EEENS_21__unordered_map_equalIS7_S9_SE_SC_Lb1EEENS5_IS9_EEE3endEv, symObjAddr: 0x6D1E4, symBinAddr: 0x100070288, symSize: 0x248 }
  - { offsetInCU: 0x3EFFA, offset: 0x3EFFA, size: 0x8, addend: 0x0, symName: __ZNSt3__112__hash_tableINS_17__hash_value_typeINS_12basic_stringIcNS_11char_traitsIcEENS_9allocatorIcEEEE4SuitEENS_22__unordered_map_hasherIS7_S9_NS_4hashIS7_EENS_8equal_toIS7_EELb1EEENS_21__unordered_map_equalIS7_S9_SE_SC_Lb1EEENS5_IS9_EEE4findIS7_EENS_15__hash_iteratorIPNS_11__hash_nodeIS9_PvEEEERKT_, symObjAddr: 0x6D42C, symBinAddr: 0x1000704D0, symSize: 0x8EC }
  - { offsetInCU: 0x3F082, offset: 0x3F082, size: 0x8, addend: 0x0, symName: __ZNSt3__112__hash_tableINS_17__hash_value_typeINS_12basic_stringIcNS_11char_traitsIcEENS_9allocatorIcEEEE4SuitEENS_22__unordered_map_hasherIS7_S9_NS_4hashIS7_EENS_8equal_toIS7_EELb1EEENS_21__unordered_map_equalIS7_S9_SE_SC_Lb1EEENS5_IS9_EEE3endEv, symObjAddr: 0x6DD18, symBinAddr: 0x100070DBC, symSize: 0x248 }
  - { offsetInCU: 0x3F0C3, offset: 0x3F0C3, size: 0x8, addend: 0x0, symName: __ZNSt3__112__hash_tableINS_17__hash_value_typeINS_12basic_stringIcNS_11char_traitsIcEENS_9allocatorIcEEEE5ValueEENS_22__unordered_map_hasherIS7_S9_NS_4hashIS7_EENS_8equal_toIS7_EELb1EEENS_21__unordered_map_equalIS7_S9_SE_SC_Lb1EEENS5_IS9_EEE25__emplace_unique_key_argsIS7_JRKNS_21piecewise_construct_tENS_5tupleIJRKS7_EEENSO_IJEEEEEENS_4pairINS_15__hash_iteratorIPNS_11__hash_nodeIS9_PvEEEEbEERKT_DpOT0_, symObjAddr: 0x6DF60, symBinAddr: 0x100071004, symSize: 0x1D00 }
  - { offsetInCU: 0x3F1D6, offset: 0x3F1D6, size: 0x8, addend: 0x0, symName: __ZNSt3__112__hash_tableINS_17__hash_value_typeINS_12basic_stringIcNS_11char_traitsIcEENS_9allocatorIcEEEE5ValueEENS_22__unordered_map_hasherIS7_S9_NS_4hashIS7_EENS_8equal_toIS7_EELb1EEENS_21__unordered_map_equalIS7_S9_SE_SC_Lb1EEENS5_IS9_EEE21__construct_node_hashIRKNS_21piecewise_construct_tEJNS_5tupleIJRKS7_EEENSO_IJEEEEEENS_10unique_ptrINS_11__hash_nodeIS9_PvEENS_22__hash_node_destructorINS5_ISW_EEEEEEmOT_DpOT0_, symObjAddr: 0x6FEA8, symBinAddr: 0x100072F4C, symSize: 0x944 }
  - { offsetInCU: 0x3F279, offset: 0x3F279, size: 0x8, addend: 0x0, symName: __ZNSt3__116allocator_traitsINS_9allocatorINS_11__hash_nodeINS_17__hash_value_typeINS_12basic_stringIcNS_11char_traitsIcEENS1_IcEEEE5ValueEEPvEEEEE9constructB7v160006INS_4pairIKS8_S9_EEJRKNS_21piecewise_construct_tENS_5tupleIJRSH_EEENSM_IJEEEEvEEvRSD_PT_DpOT0_, symObjAddr: 0x707EC, symBinAddr: 0x100073890, symSize: 0xF4 }
  - { offsetInCU: 0x3F2F8, offset: 0x3F2F8, size: 0x8, addend: 0x0, symName: __ZNSt3__19allocatorINS_11__hash_nodeINS_17__hash_value_typeINS_12basic_stringIcNS_11char_traitsIcEENS0_IcEEEE5ValueEEPvEEE9constructB7v160006INS_4pairIKS7_S8_EEJRKNS_21piecewise_construct_tENS_5tupleIJRSF_EEENSK_IJEEEEEEvPT_DpOT0_, symObjAddr: 0x708E0, symBinAddr: 0x100073984, symSize: 0x284 }
  - { offsetInCU: 0x3F379, offset: 0x3F379, size: 0x8, addend: 0x0, symName: __ZNSt3__14pairIKNS_12basic_stringIcNS_11char_traitsIcEENS_9allocatorIcEEEE5ValueEC1B7v160006IJRS7_EJEEENS_21piecewise_construct_tENS_5tupleIJDpT_EEENSD_IJDpT0_EEE, symObjAddr: 0x70B64, symBinAddr: 0x100073C08, symSize: 0x28C }
  - { offsetInCU: 0x3F3EA, offset: 0x3F3EA, size: 0x8, addend: 0x0, symName: __ZNSt3__14pairIKNS_12basic_stringIcNS_11char_traitsIcEENS_9allocatorIcEEEE5ValueEC1B7v160006IJRS7_EJEJLm0EEJEEENS_21piecewise_construct_tERNS_5tupleIJDpT_EEERNSD_IJDpT0_EEENS_15__tuple_indicesIJXspT1_EEEENSM_IJXspT2_EEEE, symObjAddr: 0x70DF0, symBinAddr: 0x100073E94, symSize: 0x88 }
  - { offsetInCU: 0x3F47A, offset: 0x3F47A, size: 0x8, addend: 0x0, symName: __ZNSt3__14pairIKNS_12basic_stringIcNS_11char_traitsIcEENS_9allocatorIcEEEE5ValueEC2B7v160006IJRS7_EJEJLm0EEJEEENS_21piecewise_construct_tERNS_5tupleIJDpT_EEERNSD_IJDpT0_EEENS_15__tuple_indicesIJXspT1_EEEENSM_IJXspT2_EEEE, symObjAddr: 0x70E78, symBinAddr: 0x100073F1C, symSize: 0x18C }
  - { offsetInCU: 0x3F50A, offset: 0x3F50A, size: 0x8, addend: 0x0, symName: __ZNSt3__112__tuple_leafILm0ERKNS_12basic_stringIcNS_11char_traitsIcEENS_9allocatorIcEEEELb0EE3getB7v160006Ev, symObjAddr: 0x710E4, symBinAddr: 0x100074188, symSize: 0xF4 }
  - { offsetInCU: 0x3F530, offset: 0x3F530, size: 0x8, addend: 0x0, symName: __ZNSt3__15tupleIJRKNS_12basic_stringIcNS_11char_traitsIcEENS_9allocatorIcEEEEEEC1B7v160006INS_4_AndELi0EEES8_, symObjAddr: 0x711D8, symBinAddr: 0x10007427C, symSize: 0x80 }
  - { offsetInCU: 0x3F578, offset: 0x3F578, size: 0x8, addend: 0x0, symName: __ZNSt3__15tupleIJRKNS_12basic_stringIcNS_11char_traitsIcEENS_9allocatorIcEEEEEEC2B7v160006INS_4_AndELi0EEES8_, symObjAddr: 0x71258, symBinAddr: 0x1000742FC, symSize: 0xC8 }
  - { offsetInCU: 0x3F5C0, offset: 0x3F5C0, size: 0x8, addend: 0x0, symName: __ZNSt3__112__tuple_implINS_15__tuple_indicesIJLm0EEEEJRKNS_12basic_stringIcNS_11char_traitsIcEENS_9allocatorIcEEEEEEC1B7v160006IJLm0EEJSA_EJEJEJSA_EEENS1_IJXspT_EEEENS_13__tuple_typesIJDpT0_EEENS1_IJXspT1_EEEENSE_IJDpT2_EEEDpOT3_, symObjAddr: 0x71320, symBinAddr: 0x1000743C4, symSize: 0x80 }
  - { offsetInCU: 0x3F655, offset: 0x3F655, size: 0x8, addend: 0x0, symName: __ZNSt3__112__tuple_implINS_15__tuple_indicesIJLm0EEEEJRKNS_12basic_stringIcNS_11char_traitsIcEENS_9allocatorIcEEEEEEC2B7v160006IJLm0EEJSA_EJEJEJSA_EEENS1_IJXspT_EEEENS_13__tuple_typesIJDpT0_EEENS1_IJXspT1_EEEENSE_IJDpT2_EEEDpOT3_, symObjAddr: 0x713A0, symBinAddr: 0x100074444, symSize: 0x10C }
  - { offsetInCU: 0x3F6EA, offset: 0x3F6EA, size: 0x8, addend: 0x0, symName: __ZNSt3__112__tuple_leafILm0ERKNS_12basic_stringIcNS_11char_traitsIcEENS_9allocatorIcEEEELb0EEC2B7v160006IS8_vEEOT_, symObjAddr: 0x714AC, symBinAddr: 0x100074550, symSize: 0x108 }
  - { offsetInCU: 0x3F72D, offset: 0x3F72D, size: 0x8, addend: 0x0, symName: __ZNSt3__112__hash_tableINS_17__hash_value_typeINS_12basic_stringIcNS_11char_traitsIcEENS_9allocatorIcEEEE4SuitEENS_22__unordered_map_hasherIS7_S9_NS_4hashIS7_EENS_8equal_toIS7_EELb1EEENS_21__unordered_map_equalIS7_S9_SE_SC_Lb1EEENS5_IS9_EEE25__emplace_unique_key_argsIS7_JRKNS_21piecewise_construct_tENS_5tupleIJRKS7_EEENSO_IJEEEEEENS_4pairINS_15__hash_iteratorIPNS_11__hash_nodeIS9_PvEEEEbEERKT_DpOT0_, symObjAddr: 0x715B4, symBinAddr: 0x100074658, symSize: 0x1D00 }
  - { offsetInCU: 0x3F840, offset: 0x3F840, size: 0x8, addend: 0x0, symName: __ZNSt3__112__hash_tableINS_17__hash_value_typeINS_12basic_stringIcNS_11char_traitsIcEENS_9allocatorIcEEEE4SuitEENS_22__unordered_map_hasherIS7_S9_NS_4hashIS7_EENS_8equal_toIS7_EELb1EEENS_21__unordered_map_equalIS7_S9_SE_SC_Lb1EEENS5_IS9_EEE21__construct_node_hashIRKNS_21piecewise_construct_tEJNS_5tupleIJRKS7_EEENSO_IJEEEEEENS_10unique_ptrINS_11__hash_nodeIS9_PvEENS_22__hash_node_destructorINS5_ISW_EEEEEEmOT_DpOT0_, symObjAddr: 0x732B4, symBinAddr: 0x100076358, symSize: 0x944 }
  - { offsetInCU: 0x3F8E3, offset: 0x3F8E3, size: 0x8, addend: 0x0, symName: __ZNSt3__116allocator_traitsINS_9allocatorINS_11__hash_nodeINS_17__hash_value_typeINS_12basic_stringIcNS_11char_traitsIcEENS1_IcEEEE4SuitEEPvEEEEE9constructB7v160006INS_4pairIKS8_S9_EEJRKNS_21piecewise_construct_tENS_5tupleIJRSH_EEENSM_IJEEEEvEEvRSD_PT_DpOT0_, symObjAddr: 0x73BF8, symBinAddr: 0x100076C9C, symSize: 0xF4 }
  - { offsetInCU: 0x3F962, offset: 0x3F962, size: 0x8, addend: 0x0, symName: __ZNSt3__19allocatorINS_11__hash_nodeINS_17__hash_value_typeINS_12basic_stringIcNS_11char_traitsIcEENS0_IcEEEE4SuitEEPvEEE9constructB7v160006INS_4pairIKS7_S8_EEJRKNS_21piecewise_construct_tENS_5tupleIJRSF_EEENSK_IJEEEEEEvPT_DpOT0_, symObjAddr: 0x73CEC, symBinAddr: 0x100076D90, symSize: 0x284 }
  - { offsetInCU: 0x3F9E3, offset: 0x3F9E3, size: 0x8, addend: 0x0, symName: __ZNSt3__14pairIKNS_12basic_stringIcNS_11char_traitsIcEENS_9allocatorIcEEEE4SuitEC1B7v160006IJRS7_EJEEENS_21piecewise_construct_tENS_5tupleIJDpT_EEENSD_IJDpT0_EEE, symObjAddr: 0x73F70, symBinAddr: 0x100077014, symSize: 0x28C }
  - { offsetInCU: 0x3FA54, offset: 0x3FA54, size: 0x8, addend: 0x0, symName: __ZNSt3__14pairIKNS_12basic_stringIcNS_11char_traitsIcEENS_9allocatorIcEEEE4SuitEC1B7v160006IJRS7_EJEJLm0EEJEEENS_21piecewise_construct_tERNS_5tupleIJDpT_EEERNSD_IJDpT0_EEENS_15__tuple_indicesIJXspT1_EEEENSM_IJXspT2_EEEE, symObjAddr: 0x741FC, symBinAddr: 0x1000772A0, symSize: 0x88 }
  - { offsetInCU: 0x3FAE4, offset: 0x3FAE4, size: 0x8, addend: 0x0, symName: __ZNSt3__14pairIKNS_12basic_stringIcNS_11char_traitsIcEENS_9allocatorIcEEEE4SuitEC2B7v160006IJRS7_EJEJLm0EEJEEENS_21piecewise_construct_tERNS_5tupleIJDpT_EEERNSD_IJDpT0_EEENS_15__tuple_indicesIJXspT1_EEEENSM_IJXspT2_EEEE, symObjAddr: 0x74284, symBinAddr: 0x100077328, symSize: 0x18C }
  - { offsetInCU: 0x3FB97, offset: 0x3FB97, size: 0x8, addend: 0x0, symName: __ZNKSt3__113basic_ostreamIcNS_11char_traitsIcEEE6sentrycvbB7v160006Ev, symObjAddr: 0x7544C, symBinAddr: 0x1000784F0, symSize: 0x104 }
  - { offsetInCU: 0x3FBBD, offset: 0x3FBBD, size: 0x8, addend: 0x0, symName: __ZNSt3__119ostreambuf_iteratorIcNS_11char_traitsIcEEEC1B7v160006ERNS_13basic_ostreamIcS2_EE, symObjAddr: 0x760D8, symBinAddr: 0x10007917C, symSize: 0x80 }
  - { offsetInCU: 0x3FBF5, offset: 0x3FBF5, size: 0x8, addend: 0x0, symName: __ZNKSt3__18ios_base5flagsB7v160006Ev, symObjAddr: 0x76158, symBinAddr: 0x1000791FC, symSize: 0x160 }
  - { offsetInCU: 0x3FC1D, offset: 0x3FC1D, size: 0x8, addend: 0x0, symName: __ZNKSt3__19basic_iosIcNS_11char_traitsIcEEE4fillB7v160006Ev, symObjAddr: 0x762B8, symBinAddr: 0x10007935C, symSize: 0x39C }
  - { offsetInCU: 0x3FC45, offset: 0x3FC45, size: 0x8, addend: 0x0, symName: __ZNKSt3__119ostreambuf_iteratorIcNS_11char_traitsIcEEE6failedB7v160006Ev, symObjAddr: 0x76654, symBinAddr: 0x1000796F8, symSize: 0xB8 }
  - { offsetInCU: 0x3FC6B, offset: 0x3FC6B, size: 0x8, addend: 0x0, symName: __ZNSt3__115basic_streambufIcNS_11char_traitsIcEEE5sputnB7v160006EPKcl, symObjAddr: 0x7670C, symBinAddr: 0x1000797B0, symSize: 0x198 }
  - { offsetInCU: 0x3FCAD, offset: 0x3FCAD, size: 0x8, addend: 0x0, symName: __ZNSt3__112basic_stringIcNS_11char_traitsIcEENS_9allocatorIcEEEC1B7v160006Emc, symObjAddr: 0x768A4, symBinAddr: 0x100079948, symSize: 0x88 }
  - { offsetInCU: 0x3FCF5, offset: 0x3FCF5, size: 0x8, addend: 0x0, symName: __ZNSt3__112basic_stringIcNS_11char_traitsIcEENS_9allocatorIcEEE4dataB7v160006Ev, symObjAddr: 0x7692C, symBinAddr: 0x1000799D0, symSize: 0x70 }
  - { offsetInCU: 0x3FD1B, offset: 0x3FD1B, size: 0x8, addend: 0x0, symName: __ZNSt3__112basic_stringIcNS_11char_traitsIcEENS_9allocatorIcEEEC2B7v160006Emc, symObjAddr: 0x7699C, symBinAddr: 0x100079A40, symSize: 0x274 }
  - { offsetInCU: 0x3FD66, offset: 0x3FD66, size: 0x8, addend: 0x0, symName: __ZNSt3__112basic_stringIcNS_11char_traitsIcEENS_9allocatorIcEEE13__get_pointerB7v160006Ev, symObjAddr: 0x76C24, symBinAddr: 0x100079CC8, symSize: 0x98 }
  - { offsetInCU: 0x3FD8C, offset: 0x3FD8C, size: 0x8, addend: 0x0, symName: __ZNSt3__119ostreambuf_iteratorIcNS_11char_traitsIcEEEC2B7v160006ERNS_13basic_ostreamIcS2_EE, symObjAddr: 0x76CBC, symBinAddr: 0x100079D60, symSize: 0x2E8 }
  - { offsetInCU: 0x3FDC4, offset: 0x3FDC4, size: 0x8, addend: 0x0, symName: __ZNKSt3__19basic_iosIcNS_11char_traitsIcEEE5widenB7v160006Ec, symObjAddr: 0x76FA4, symBinAddr: 0x10007A048, symSize: 0x47C }
  - { offsetInCU: 0x3FDFD, offset: 0x3FDFD, size: 0x8, addend: 0x0, symName: __ZNKSt3__15ctypeIcE5widenB7v160006Ec, symObjAddr: 0x77420, symBinAddr: 0x10007A4C4, symSize: 0x18C }
  - { offsetInCU: 0x3FE32, offset: 0x3FE32, size: 0x8, addend: 0x0, symName: __ZNSt3__16threadC2IM10ThreadPoolFvvEJPS2_EvEEOT_DpOT0_, symObjAddr: 0x775AC, symBinAddr: 0x10007A650, symSize: 0x570 }
  - { offsetInCU: 0x3FECE, offset: 0x3FECE, size: 0x8, addend: 0x0, symName: __ZNSt3__110unique_ptrINS_15__thread_structENS_14default_deleteIS1_EEEC1B7v160006ILb1EvEEPS1_, symObjAddr: 0x77B1C, symBinAddr: 0x10007ABC0, symSize: 0x80 }
  - { offsetInCU: 0x3FF11, offset: 0x3FF11, size: 0x8, addend: 0x0, symName: __ZNSt3__15tupleIJNS_10unique_ptrINS_15__thread_structENS_14default_deleteIS2_EEEEM10ThreadPoolFvvEPS6_EEC1B7v160006IJS5_S8_S9_ELi0EEEDpOT_, symObjAddr: 0x77B9C, symBinAddr: 0x10007AC40, symSize: 0x90 }
  - { offsetInCU: 0x4002A, offset: 0x4002A, size: 0x8, addend: 0x0, symName: __ZNSt3__110unique_ptrINS_5tupleIJNS0_INS_15__thread_structENS_14default_deleteIS2_EEEEM10ThreadPoolFvvEPS6_EEENS3_ISA_EEEC1B7v160006ILb1EvEEPSA_, symObjAddr: 0x77C2C, symBinAddr: 0x10007ACD0, symSize: 0x80 }
  - { offsetInCU: 0x4006D, offset: 0x4006D, size: 0x8, addend: 0x0, symName: __ZNKSt3__110unique_ptrINS_5tupleIJNS0_INS_15__thread_structENS_14default_deleteIS2_EEEEM10ThreadPoolFvvEPS6_EEENS3_ISA_EEE3getB7v160006Ev, symObjAddr: 0x780B4, symBinAddr: 0x10007B158, symSize: 0x13C }
  - { offsetInCU: 0x40093, offset: 0x40093, size: 0x8, addend: 0x0, symName: __ZNSt3__110unique_ptrINS_5tupleIJNS0_INS_15__thread_structENS_14default_deleteIS2_EEEEM10ThreadPoolFvvEPS6_EEENS3_ISA_EEE7releaseB7v160006Ev, symObjAddr: 0x781F0, symBinAddr: 0x10007B294, symSize: 0x20C }
  - { offsetInCU: 0x400C8, offset: 0x400C8, size: 0x8, addend: 0x0, symName: __ZNSt3__110unique_ptrINS_5tupleIJNS0_INS_15__thread_structENS_14default_deleteIS2_EEEEM10ThreadPoolFvvEPS6_EEENS3_ISA_EEED1B7v160006Ev, symObjAddr: 0x783FC, symBinAddr: 0x10007B4A0, symSize: 0x78 }
  - { offsetInCU: 0x400F2, offset: 0x400F2, size: 0x8, addend: 0x0, symName: __ZNSt3__110unique_ptrINS_15__thread_structENS_14default_deleteIS1_EEED1B7v160006Ev, symObjAddr: 0x78474, symBinAddr: 0x10007B518, symSize: 0x78 }
  - { offsetInCU: 0x4011C, offset: 0x4011C, size: 0x8, addend: 0x0, symName: __ZNSt3__110unique_ptrINS_15__thread_structENS_14default_deleteIS1_EEEC2B7v160006ILb1EvEEPS1_, symObjAddr: 0x784EC, symBinAddr: 0x10007B590, symSize: 0x2B8 }
  - { offsetInCU: 0x40164, offset: 0x40164, size: 0x8, addend: 0x0, symName: __ZNSt3__117__compressed_pairIPNS_15__thread_structENS_14default_deleteIS1_EEEC1B7v160006IRS2_NS_16__value_init_tagEEEOT_OT0_, symObjAddr: 0x787A4, symBinAddr: 0x10007B848, symSize: 0x88 }
  - { offsetInCU: 0x401BC, offset: 0x401BC, size: 0x8, addend: 0x0, symName: __ZNSt3__117__compressed_pairIPNS_15__thread_structENS_14default_deleteIS1_EEEC2B7v160006IRS2_NS_16__value_init_tagEEEOT_OT0_, symObjAddr: 0x7882C, symBinAddr: 0x10007B8D0, symSize: 0x140 }
  - { offsetInCU: 0x40214, offset: 0x40214, size: 0x8, addend: 0x0, symName: __ZNSt3__122__compressed_pair_elemIPNS_15__thread_structELi0ELb0EEC2B7v160006IRS2_vEEOT_, symObjAddr: 0x7896C, symBinAddr: 0x10007BA10, symSize: 0x144 }
  - { offsetInCU: 0x40256, offset: 0x40256, size: 0x8, addend: 0x0, symName: __ZNSt3__122__compressed_pair_elemINS_14default_deleteINS_15__thread_structEEELi1ELb1EEC2B7v160006ENS_16__value_init_tagE, symObjAddr: 0x78AB0, symBinAddr: 0x10007BB54, symSize: 0x54 }
  - { offsetInCU: 0x4028A, offset: 0x4028A, size: 0x8, addend: 0x0, symName: __ZNSt3__15tupleIJNS_10unique_ptrINS_15__thread_structENS_14default_deleteIS2_EEEEM10ThreadPoolFvvEPS6_EEC2B7v160006IJS5_S8_S9_ELi0EEEDpOT_, symObjAddr: 0x78B04, symBinAddr: 0x10007BBA8, symSize: 0x168 }
  - { offsetInCU: 0x402FC, offset: 0x402FC, size: 0x8, addend: 0x0, symName: __ZNSt3__112__tuple_implINS_15__tuple_indicesIJLm0ELm1ELm2EEEEJNS_10unique_ptrINS_15__thread_structENS_14default_deleteIS4_EEEEM10ThreadPoolFvvEPS8_EEC1B7v160006IJLm0ELm1ELm2EEJS7_SA_SB_EJEJEJS7_SA_SB_EEENS1_IJXspT_EEEENS_13__tuple_typesIJDpT0_EEENS1_IJXspT1_EEEENSF_IJDpT2_EEEDpOT3_, symObjAddr: 0x78C6C, symBinAddr: 0x10007BD10, symSize: 0x90 }
  - { offsetInCU: 0x403CF, offset: 0x403CF, size: 0x8, addend: 0x0, symName: __ZNSt3__112__tuple_implINS_15__tuple_indicesIJLm0ELm1ELm2EEEEJNS_10unique_ptrINS_15__thread_structENS_14default_deleteIS4_EEEEM10ThreadPoolFvvEPS8_EEC2B7v160006IJLm0ELm1ELm2EEJS7_SA_SB_EJEJEJS7_SA_SB_EEENS1_IJXspT_EEEENS_13__tuple_typesIJDpT0_EEENS1_IJXspT1_EEEENSF_IJDpT2_EEEDpOT3_, symObjAddr: 0x78CFC, symBinAddr: 0x10007BDA0, symSize: 0x25C }
  - { offsetInCU: 0x404A2, offset: 0x404A2, size: 0x8, addend: 0x0, symName: __ZNSt3__112__tuple_leafILm0ENS_10unique_ptrINS_15__thread_structENS_14default_deleteIS2_EEEELb0EEC2B7v160006IS5_vEEOT_, symObjAddr: 0x78F58, symBinAddr: 0x10007BFFC, symSize: 0xC8 }
  - { offsetInCU: 0x404E5, offset: 0x404E5, size: 0x8, addend: 0x0, symName: __ZNSt3__112__tuple_leafILm1EM10ThreadPoolFvvELb0EEC2B7v160006IS3_vEEOT_, symObjAddr: 0x79020, symBinAddr: 0x10007C0C4, symSize: 0x154 }
  - { offsetInCU: 0x40528, offset: 0x40528, size: 0x8, addend: 0x0, symName: __ZNSt3__112__tuple_leafILm2EP10ThreadPoolLb0EEC2B7v160006IS2_vEEOT_, symObjAddr: 0x79174, symBinAddr: 0x10007C218, symSize: 0x144 }
  - { offsetInCU: 0x4056B, offset: 0x4056B, size: 0x8, addend: 0x0, symName: __ZNSt3__110unique_ptrINS_15__thread_structENS_14default_deleteIS1_EEEC1B7v160006EOS4_, symObjAddr: 0x792B8, symBinAddr: 0x10007C35C, symSize: 0x80 }
  - { offsetInCU: 0x405A3, offset: 0x405A3, size: 0x8, addend: 0x0, symName: __ZNSt3__110unique_ptrINS_15__thread_structENS_14default_deleteIS1_EEEC2B7v160006EOS4_, symObjAddr: 0x79338, symBinAddr: 0x10007C3DC, symSize: 0x320 }
  - { offsetInCU: 0x405DD, offset: 0x405DD, size: 0x8, addend: 0x0, symName: __ZNSt3__110unique_ptrINS_15__thread_structENS_14default_deleteIS1_EEE7releaseB7v160006Ev, symObjAddr: 0x79658, symBinAddr: 0x10007C6FC, symSize: 0x20C }
  - { offsetInCU: 0x40612, offset: 0x40612, size: 0x8, addend: 0x0, symName: __ZNSt3__110unique_ptrINS_15__thread_structENS_14default_deleteIS1_EEE11get_deleterB7v160006Ev, symObjAddr: 0x79864, symBinAddr: 0x10007C908, symSize: 0xDC }
  - { offsetInCU: 0x40644, offset: 0x40644, size: 0x8, addend: 0x0, symName: __ZNSt3__117__compressed_pairIPNS_15__thread_structENS_14default_deleteIS1_EEEC1B7v160006IS2_S4_EEOT_OT0_, symObjAddr: 0x79940, symBinAddr: 0x10007C9E4, symSize: 0x88 }
  - { offsetInCU: 0x4069C, offset: 0x4069C, size: 0x8, addend: 0x0, symName: __ZNSt3__117__compressed_pairIPNS_15__thread_structENS_14default_deleteIS1_EEE5firstB7v160006Ev, symObjAddr: 0x799C8, symBinAddr: 0x10007CA6C, symSize: 0x124 }
  - { offsetInCU: 0x406C2, offset: 0x406C2, size: 0x8, addend: 0x0, symName: __ZNSt3__122__compressed_pair_elemIPNS_15__thread_structELi0ELb0EE5__getB7v160006Ev, symObjAddr: 0x79AEC, symBinAddr: 0x10007CB90, symSize: 0xAC }
  - { offsetInCU: 0x406E8, offset: 0x406E8, size: 0x8, addend: 0x0, symName: __ZNSt3__117__compressed_pairIPNS_15__thread_structENS_14default_deleteIS1_EEE6secondB7v160006Ev, symObjAddr: 0x79B98, symBinAddr: 0x10007CC3C, symSize: 0x108 }
  - { offsetInCU: 0x4070E, offset: 0x4070E, size: 0x8, addend: 0x0, symName: __ZNSt3__122__compressed_pair_elemINS_14default_deleteINS_15__thread_structEEELi1ELb1EE5__getB7v160006Ev, symObjAddr: 0x79CA0, symBinAddr: 0x10007CD44, symSize: 0x74 }
  - { offsetInCU: 0x40734, offset: 0x40734, size: 0x8, addend: 0x0, symName: __ZNSt3__117__compressed_pairIPNS_15__thread_structENS_14default_deleteIS1_EEEC2B7v160006IS2_S4_EEOT_OT0_, symObjAddr: 0x79D14, symBinAddr: 0x10007CDB8, symSize: 0x170 }
  - { offsetInCU: 0x4078C, offset: 0x4078C, size: 0x8, addend: 0x0, symName: __ZNSt3__122__compressed_pair_elemIPNS_15__thread_structELi0ELb0EEC2B7v160006IS2_vEEOT_, symObjAddr: 0x79E84, symBinAddr: 0x10007CF28, symSize: 0x144 }
  - { offsetInCU: 0x407CE, offset: 0x407CE, size: 0x8, addend: 0x0, symName: __ZNSt3__122__compressed_pair_elemINS_14default_deleteINS_15__thread_structEEELi1ELb1EEC2B7v160006IS3_vEEOT_, symObjAddr: 0x79FC8, symBinAddr: 0x10007D06C, symSize: 0x58 }
  - { offsetInCU: 0x40810, offset: 0x40810, size: 0x8, addend: 0x0, symName: __ZNSt3__110unique_ptrINS_5tupleIJNS0_INS_15__thread_structENS_14default_deleteIS2_EEEEM10ThreadPoolFvvEPS6_EEENS3_ISA_EEEC2B7v160006ILb1EvEEPSA_, symObjAddr: 0x7A020, symBinAddr: 0x10007D0C4, symSize: 0x2B8 }
  - { offsetInCU: 0x40858, offset: 0x40858, size: 0x8, addend: 0x0, symName: __ZNSt3__117__compressed_pairIPNS_5tupleIJNS_10unique_ptrINS_15__thread_structENS_14default_deleteIS3_EEEEM10ThreadPoolFvvEPS7_EEENS4_ISB_EEEC1B7v160006IRSC_NS_16__value_init_tagEEEOT_OT0_, symObjAddr: 0x7A2D8, symBinAddr: 0x10007D37C, symSize: 0x88 }
  - { offsetInCU: 0x408B0, offset: 0x408B0, size: 0x8, addend: 0x0, symName: __ZNSt3__117__compressed_pairIPNS_5tupleIJNS_10unique_ptrINS_15__thread_structENS_14default_deleteIS3_EEEEM10ThreadPoolFvvEPS7_EEENS4_ISB_EEEC2B7v160006IRSC_NS_16__value_init_tagEEEOT_OT0_, symObjAddr: 0x7A360, symBinAddr: 0x10007D404, symSize: 0x140 }
  - { offsetInCU: 0x40908, offset: 0x40908, size: 0x8, addend: 0x0, symName: __ZNSt3__122__compressed_pair_elemIPNS_5tupleIJNS_10unique_ptrINS_15__thread_structENS_14default_deleteIS3_EEEEM10ThreadPoolFvvEPS7_EEELi0ELb0EEC2B7v160006IRSC_vEEOT_, symObjAddr: 0x7A4A0, symBinAddr: 0x10007D544, symSize: 0x144 }
  - { offsetInCU: 0x4094A, offset: 0x4094A, size: 0x8, addend: 0x0, symName: __ZNSt3__122__compressed_pair_elemINS_14default_deleteINS_5tupleIJNS_10unique_ptrINS_15__thread_structENS1_IS4_EEEEM10ThreadPoolFvvEPS7_EEEEELi1ELb1EEC2B7v160006ENS_16__value_init_tagE, symObjAddr: 0x7A5E4, symBinAddr: 0x10007D688, symSize: 0x54 }
  - { offsetInCU: 0x409B1, offset: 0x409B1, size: 0x8, addend: 0x0, symName: __ZNSt3__121__thread_specific_ptrINS_15__thread_structEE11set_pointerEPS1_, symObjAddr: 0x7A638, symBinAddr: 0x10007D6DC, symSize: 0xB8 }
  - { offsetInCU: 0x409E6, offset: 0x409E6, size: 0x8, addend: 0x0, symName: __ZNSt3__112__tuple_leafILm0ENS_10unique_ptrINS_15__thread_structENS_14default_deleteIS2_EEEELb0EE3getB7v160006Ev, symObjAddr: 0x7A94C, symBinAddr: 0x10007D9F0, symSize: 0xAC }
  - { offsetInCU: 0x40A0C, offset: 0x40A0C, size: 0x8, addend: 0x0, symName: __ZNSt3__112__tuple_leafILm1EM10ThreadPoolFvvELb0EE3getB7v160006Ev, symObjAddr: 0x7AD2C, symBinAddr: 0x10007DDD0, symSize: 0xAC }
  - { offsetInCU: 0x40A32, offset: 0x40A32, size: 0x8, addend: 0x0, symName: __ZNSt3__112__tuple_leafILm2EP10ThreadPoolLb0EE3getB7v160006Ev, symObjAddr: 0x7ADD8, symBinAddr: 0x10007DE7C, symSize: 0xAC }
  - { offsetInCU: 0x40A58, offset: 0x40A58, size: 0x8, addend: 0x0, symName: __ZNKSt3__117__compressed_pairIPNS_5tupleIJNS_10unique_ptrINS_15__thread_structENS_14default_deleteIS3_EEEEM10ThreadPoolFvvEPS7_EEENS4_ISB_EEE5firstB7v160006Ev, symObjAddr: 0x7AE84, symBinAddr: 0x10007DF28, symSize: 0x124 }
  - { offsetInCU: 0x40A7E, offset: 0x40A7E, size: 0x8, addend: 0x0, symName: __ZNKSt3__122__compressed_pair_elemIPNS_5tupleIJNS_10unique_ptrINS_15__thread_structENS_14default_deleteIS3_EEEEM10ThreadPoolFvvEPS7_EEELi0ELb0EE5__getB7v160006Ev, symObjAddr: 0x7AFA8, symBinAddr: 0x10007E04C, symSize: 0xAC }
  - { offsetInCU: 0x40AA4, offset: 0x40AA4, size: 0x8, addend: 0x0, symName: __ZNSt3__117__compressed_pairIPNS_5tupleIJNS_10unique_ptrINS_15__thread_structENS_14default_deleteIS3_EEEEM10ThreadPoolFvvEPS7_EEENS4_ISB_EEE5firstB7v160006Ev, symObjAddr: 0x7B054, symBinAddr: 0x10007E0F8, symSize: 0x124 }
  - { offsetInCU: 0x40ACA, offset: 0x40ACA, size: 0x8, addend: 0x0, symName: __ZNSt3__122__compressed_pair_elemIPNS_5tupleIJNS_10unique_ptrINS_15__thread_structENS_14default_deleteIS3_EEEEM10ThreadPoolFvvEPS7_EEELi0ELb0EE5__getB7v160006Ev, symObjAddr: 0x7B178, symBinAddr: 0x10007E21C, symSize: 0xAC }
  - { offsetInCU: 0x40AF0, offset: 0x40AF0, size: 0x8, addend: 0x0, symName: __ZNSt3__110unique_ptrINS_5tupleIJNS0_INS_15__thread_structENS_14default_deleteIS2_EEEEM10ThreadPoolFvvEPS6_EEENS3_ISA_EEED2B7v160006Ev, symObjAddr: 0x7B224, symBinAddr: 0x10007E2C8, symSize: 0x7C }
  - { offsetInCU: 0x40B1A, offset: 0x40B1A, size: 0x8, addend: 0x0, symName: __ZNSt3__110unique_ptrINS_5tupleIJNS0_INS_15__thread_structENS_14default_deleteIS2_EEEEM10ThreadPoolFvvEPS6_EEENS3_ISA_EEE5resetB7v160006EPSA_, symObjAddr: 0x7B2A0, symBinAddr: 0x10007E344, symSize: 0x2B0 }
  - { offsetInCU: 0x40B5E, offset: 0x40B5E, size: 0x8, addend: 0x0, symName: __ZNSt3__117__compressed_pairIPNS_5tupleIJNS_10unique_ptrINS_15__thread_structENS_14default_deleteIS3_EEEEM10ThreadPoolFvvEPS7_EEENS4_ISB_EEE6secondB7v160006Ev, symObjAddr: 0x7B550, symBinAddr: 0x10007E5F4, symSize: 0x108 }
  - { offsetInCU: 0x40B84, offset: 0x40B84, size: 0x8, addend: 0x0, symName: __ZNKSt3__114default_deleteINS_5tupleIJNS_10unique_ptrINS_15__thread_structENS0_IS3_EEEEM10ThreadPoolFvvEPS6_EEEEclB7v160006EPSA_, symObjAddr: 0x7B658, symBinAddr: 0x10007E6FC, symSize: 0xBC }
  - { offsetInCU: 0x40BB8, offset: 0x40BB8, size: 0x8, addend: 0x0, symName: __ZNSt3__122__compressed_pair_elemINS_14default_deleteINS_5tupleIJNS_10unique_ptrINS_15__thread_structENS1_IS4_EEEEM10ThreadPoolFvvEPS7_EEEEELi1ELb1EE5__getB7v160006Ev, symObjAddr: 0x7B714, symBinAddr: 0x10007E7B8, symSize: 0x74 }
  - { offsetInCU: 0x40BDE, offset: 0x40BDE, size: 0x8, addend: 0x0, symName: __ZNSt3__15tupleIJNS_10unique_ptrINS_15__thread_structENS_14default_deleteIS2_EEEEM10ThreadPoolFvvEPS6_EED1Ev, symObjAddr: 0x7B788, symBinAddr: 0x10007E82C, symSize: 0x78 }
  - { offsetInCU: 0x40C0B, offset: 0x40C0B, size: 0x8, addend: 0x0, symName: __ZNSt3__15tupleIJNS_10unique_ptrINS_15__thread_structENS_14default_deleteIS2_EEEEM10ThreadPoolFvvEPS6_EED2Ev, symObjAddr: 0x7B800, symBinAddr: 0x10007E8A4, symSize: 0x78 }
  - { offsetInCU: 0x40C38, offset: 0x40C38, size: 0x8, addend: 0x0, symName: __ZNSt3__112__tuple_implINS_15__tuple_indicesIJLm0ELm1ELm2EEEEJNS_10unique_ptrINS_15__thread_structENS_14default_deleteIS4_EEEEM10ThreadPoolFvvEPS8_EED1Ev, symObjAddr: 0x7B878, symBinAddr: 0x10007E91C, symSize: 0x78 }
  - { offsetInCU: 0x40C65, offset: 0x40C65, size: 0x8, addend: 0x0, symName: __ZNSt3__112__tuple_implINS_15__tuple_indicesIJLm0ELm1ELm2EEEEJNS_10unique_ptrINS_15__thread_structENS_14default_deleteIS4_EEEEM10ThreadPoolFvvEPS8_EED2Ev, symObjAddr: 0x7B8F0, symBinAddr: 0x10007E994, symSize: 0x78 }
  - { offsetInCU: 0x40C92, offset: 0x40C92, size: 0x8, addend: 0x0, symName: __ZNSt3__112__tuple_leafILm0ENS_10unique_ptrINS_15__thread_structENS_14default_deleteIS2_EEEELb0EED2Ev, symObjAddr: 0x7B968, symBinAddr: 0x10007EA0C, symSize: 0x78 }
  - { offsetInCU: 0x40CBF, offset: 0x40CBF, size: 0x8, addend: 0x0, symName: __ZNSt3__110unique_ptrINS_15__thread_structENS_14default_deleteIS1_EEED2B7v160006Ev, symObjAddr: 0x7B9E0, symBinAddr: 0x10007EA84, symSize: 0x7C }
  - { offsetInCU: 0x40CE9, offset: 0x40CE9, size: 0x8, addend: 0x0, symName: __ZNSt3__110unique_ptrINS_15__thread_structENS_14default_deleteIS1_EEE5resetB7v160006EPS1_, symObjAddr: 0x7BA5C, symBinAddr: 0x10007EB00, symSize: 0x2B0 }
  - { offsetInCU: 0x40D2D, offset: 0x40D2D, size: 0x8, addend: 0x0, symName: __ZNKSt3__114default_deleteINS_15__thread_structEEclB7v160006EPS1_, symObjAddr: 0x7BD0C, symBinAddr: 0x10007EDB0, symSize: 0xBC }
  - { offsetInCU: 0x40D61, offset: 0x40D61, size: 0x8, addend: 0x0, symName: __ZNSt3__16vectorINS_6threadENS_9allocatorIS1_EEE9__end_capB7v160006Ev, symObjAddr: 0x7BDC8, symBinAddr: 0x10007EE6C, symSize: 0x100 }
  - { offsetInCU: 0x40D87, offset: 0x40D87, size: 0x8, addend: 0x0, symName: __ZNSt3__16vectorINS_6threadENS_9allocatorIS1_EEE22__construct_one_at_endB7v160006IJS1_EEEvDpOT_, symObjAddr: 0x7BEC8, symBinAddr: 0x10007EF6C, symSize: 0x550 }
  - { offsetInCU: 0x40DDC, offset: 0x40DDC, size: 0x8, addend: 0x0, symName: __ZNSt3__16vectorINS_6threadENS_9allocatorIS1_EEE24__emplace_back_slow_pathIJS1_EEEvDpOT_, symObjAddr: 0x7C418, symBinAddr: 0x10007F4BC, symSize: 0x5B0 }
  - { offsetInCU: 0x40E43, offset: 0x40E43, size: 0x8, addend: 0x0, symName: __ZNSt3__16vectorINS_6threadENS_9allocatorIS1_EEE4backB7v160006Ev, symObjAddr: 0x7C9C8, symBinAddr: 0x10007FA6C, symSize: 0x18C }
  - { offsetInCU: 0x40E69, offset: 0x40E69, size: 0x8, addend: 0x0, symName: __ZNSt3__117__compressed_pairIPNS_6threadENS_9allocatorIS1_EEE5firstB7v160006Ev, symObjAddr: 0x7CB54, symBinAddr: 0x10007FBF8, symSize: 0x124 }
  - { offsetInCU: 0x40E8F, offset: 0x40E8F, size: 0x8, addend: 0x0, symName: __ZNSt3__122__compressed_pair_elemIPNS_6threadELi0ELb0EE5__getB7v160006Ev, symObjAddr: 0x7CC78, symBinAddr: 0x10007FD1C, symSize: 0xAC }
  - { offsetInCU: 0x40ED1, offset: 0x40ED1, size: 0x8, addend: 0x0, symName: __ZNSt3__16vectorINS_6threadENS_9allocatorIS1_EEE21_ConstructTransactionC1B7v160006ERS4_m, symObjAddr: 0x7CD24, symBinAddr: 0x10007FDC8, symSize: 0x88 }
  - { offsetInCU: 0x40F19, offset: 0x40F19, size: 0x8, addend: 0x0, symName: __ZNSt3__116allocator_traitsINS_9allocatorINS_6threadEEEE9constructB7v160006IS2_JS2_EvEEvRS3_PT_DpOT0_, symObjAddr: 0x7CDAC, symBinAddr: 0x10007FE50, symSize: 0x8C }
  - { offsetInCU: 0x40F70, offset: 0x40F70, size: 0x8, addend: 0x0, symName: __ZNSt3__16vectorINS_6threadENS_9allocatorIS1_EEE21_ConstructTransactionD1B7v160006Ev, symObjAddr: 0x7CE38, symBinAddr: 0x10007FEDC, symSize: 0x78 }
  - { offsetInCU: 0x40F9A, offset: 0x40F9A, size: 0x8, addend: 0x0, symName: __ZNSt3__16vectorINS_6threadENS_9allocatorIS1_EEE21_ConstructTransactionC2B7v160006ERS4_m, symObjAddr: 0x7CEB0, symBinAddr: 0x10007FF54, symSize: 0x3D8 }
  - { offsetInCU: 0x40FE2, offset: 0x40FE2, size: 0x8, addend: 0x0, symName: __ZNKSt3__16vectorINS_6threadENS_9allocatorIS1_EEE19__annotate_increaseB7v160006Em, symObjAddr: 0x7D288, symBinAddr: 0x10008032C, symSize: 0x44C }
  - { offsetInCU: 0x41017, offset: 0x41017, size: 0x8, addend: 0x0, symName: __ZNSt3__19allocatorINS_6threadEE9constructB7v160006IS1_JS1_EEEvPT_DpOT0_, symObjAddr: 0x7D6D4, symBinAddr: 0x100080778, symSize: 0xEC }
  - { offsetInCU: 0x4106D, offset: 0x4106D, size: 0x8, addend: 0x0, symName: __ZNSt3__16threadC1B7v160006EOS0_, symObjAddr: 0x7D7C0, symBinAddr: 0x100080864, symSize: 0x80 }
  - { offsetInCU: 0x410A5, offset: 0x410A5, size: 0x8, addend: 0x0, symName: __ZNSt3__16threadC2B7v160006EOS0_, symObjAddr: 0x7D840, symBinAddr: 0x1000808E4, symSize: 0x194 }
  - { offsetInCU: 0x410DD, offset: 0x410DD, size: 0x8, addend: 0x0, symName: __ZNSt3__16vectorINS_6threadENS_9allocatorIS1_EEE21_ConstructTransactionD2B7v160006Ev, symObjAddr: 0x7D9D4, symBinAddr: 0x100080A78, symSize: 0x390 }
  - { offsetInCU: 0x41107, offset: 0x41107, size: 0x8, addend: 0x0, symName: __ZNKSt3__16vectorINS_6threadENS_9allocatorIS1_EEE17__annotate_shrinkB7v160006Em, symObjAddr: 0x7DD64, symBinAddr: 0x100080E08, symSize: 0x360 }
  - { offsetInCU: 0x4113C, offset: 0x4113C, size: 0x8, addend: 0x0, symName: __ZNKSt3__16vectorINS_6threadENS_9allocatorIS1_EEE11__recommendB7v160006Em, symObjAddr: 0x7E0C4, symBinAddr: 0x100081168, symSize: 0x45C }
  - { offsetInCU: 0x41198, offset: 0x41198, size: 0x8, addend: 0x0, symName: __ZNSt3__114__split_bufferINS_6threadERNS_9allocatorIS1_EEEC1EmmS4_, symObjAddr: 0x7E520, symBinAddr: 0x1000815C4, symSize: 0x90 }
  - { offsetInCU: 0x411EE, offset: 0x411EE, size: 0x8, addend: 0x0, symName: __ZNSt3__114__split_bufferINS_6threadERNS_9allocatorIS1_EEED1Ev, symObjAddr: 0x7EE14, symBinAddr: 0x100081EB8, symSize: 0x78 }
  - { offsetInCU: 0x4121A, offset: 0x4121A, size: 0x8, addend: 0x0, symName: __ZNKSt3__16vectorINS_6threadENS_9allocatorIS1_EEE8max_sizeEv, symObjAddr: 0x7EE8C, symBinAddr: 0x100081F30, symSize: 0x3B8 }
  - { offsetInCU: 0x41243, offset: 0x41243, size: 0x8, addend: 0x0, symName: __ZNKSt3__16vectorINS_6threadENS_9allocatorIS1_EEE20__throw_length_errorB7v160006Ev, symObjAddr: 0x7F244, symBinAddr: 0x1000822E8, symSize: 0x80 }
  - { offsetInCU: 0x41274, offset: 0x41274, size: 0x8, addend: 0x0, symName: __ZNSt3__116allocator_traitsINS_9allocatorINS_6threadEEEE8max_sizeB7v160006IS3_vEEmRKS3_, symObjAddr: 0x7F2C4, symBinAddr: 0x100082368, symSize: 0x24 }
  - { offsetInCU: 0x412A2, offset: 0x412A2, size: 0x8, addend: 0x0, symName: __ZNKSt3__16vectorINS_6threadENS_9allocatorIS1_EEE7__allocB7v160006Ev, symObjAddr: 0x7F2E8, symBinAddr: 0x10008238C, symSize: 0xE4 }
  - { offsetInCU: 0x412C8, offset: 0x412C8, size: 0x8, addend: 0x0, symName: __ZNKSt3__19allocatorINS_6threadEE8max_sizeB7v160006Ev, symObjAddr: 0x7F3CC, symBinAddr: 0x100082470, symSize: 0x4C }
  - { offsetInCU: 0x412EE, offset: 0x412EE, size: 0x8, addend: 0x0, symName: __ZNKSt3__117__compressed_pairIPNS_6threadENS_9allocatorIS1_EEE6secondB7v160006Ev, symObjAddr: 0x7F418, symBinAddr: 0x1000824BC, symSize: 0x108 }
  - { offsetInCU: 0x41314, offset: 0x41314, size: 0x8, addend: 0x0, symName: __ZNKSt3__122__compressed_pair_elemINS_9allocatorINS_6threadEEELi1ELb1EE5__getB7v160006Ev, symObjAddr: 0x7F520, symBinAddr: 0x1000825C4, symSize: 0x74 }
  - { offsetInCU: 0x4133A, offset: 0x4133A, size: 0x8, addend: 0x0, symName: __ZNSt3__114__split_bufferINS_6threadERNS_9allocatorIS1_EEEC2EmmS4_, symObjAddr: 0x7F594, symBinAddr: 0x100082638, symSize: 0x7D8 }
  - { offsetInCU: 0x413B5, offset: 0x413B5, size: 0x8, addend: 0x0, symName: __ZNSt3__117__compressed_pairIPNS_6threadERNS_9allocatorIS1_EEEC1B7v160006IDnS5_EEOT_OT0_, symObjAddr: 0x7FD6C, symBinAddr: 0x100082E10, symSize: 0x88 }
  - { offsetInCU: 0x4140D, offset: 0x4140D, size: 0x8, addend: 0x0, symName: __ZNSt3__114__split_bufferINS_6threadERNS_9allocatorIS1_EEE7__allocB7v160006Ev, symObjAddr: 0x80080, symBinAddr: 0x100083124, symSize: 0xE4 }
  - { offsetInCU: 0x41433, offset: 0x41433, size: 0x8, addend: 0x0, symName: __ZNSt3__114__split_bufferINS_6threadERNS_9allocatorIS1_EEE9__end_capB7v160006Ev, symObjAddr: 0x80164, symBinAddr: 0x100083208, symSize: 0x100 }
  - { offsetInCU: 0x41459, offset: 0x41459, size: 0x8, addend: 0x0, symName: __ZNSt3__117__compressed_pairIPNS_6threadERNS_9allocatorIS1_EEEC2B7v160006IDnS5_EEOT_OT0_, symObjAddr: 0x80264, symBinAddr: 0x100083308, symSize: 0x198 }
  - { offsetInCU: 0x414B1, offset: 0x414B1, size: 0x8, addend: 0x0, symName: __ZNSt3__122__compressed_pair_elemIRNS_9allocatorINS_6threadEEELi1ELb0EEC2B7v160006IS4_vEEOT_, symObjAddr: 0x803FC, symBinAddr: 0x1000834A0, symSize: 0xEC }
  - { offsetInCU: 0x414F3, offset: 0x414F3, size: 0x8, addend: 0x0, symName: __ZNSt3__19allocatorINS_6threadEE8allocateB7v160006Em, symObjAddr: 0x804E8, symBinAddr: 0x10008358C, symSize: 0xCC }
  - { offsetInCU: 0x41527, offset: 0x41527, size: 0x8, addend: 0x0, symName: __ZNSt3__117__compressed_pairIPNS_6threadERNS_9allocatorIS1_EEE6secondB7v160006Ev, symObjAddr: 0x805B4, symBinAddr: 0x100083658, symSize: 0x110 }
  - { offsetInCU: 0x4154D, offset: 0x4154D, size: 0x8, addend: 0x0, symName: __ZNSt3__122__compressed_pair_elemIRNS_9allocatorINS_6threadEEELi1ELb0EE5__getB7v160006Ev, symObjAddr: 0x806C4, symBinAddr: 0x100083768, symSize: 0xD8 }
  - { offsetInCU: 0x41573, offset: 0x41573, size: 0x8, addend: 0x0, symName: __ZNSt3__117__compressed_pairIPNS_6threadERNS_9allocatorIS1_EEE5firstB7v160006Ev, symObjAddr: 0x8079C, symBinAddr: 0x100083840, symSize: 0x124 }
  - { offsetInCU: 0x41599, offset: 0x41599, size: 0x8, addend: 0x0, symName: __ZNSt3__116reverse_iteratorIPNS_6threadEEC1B7v160006ES2_, symObjAddr: 0x80E98, symBinAddr: 0x100083F3C, symSize: 0x80 }
  - { offsetInCU: 0x415D1, offset: 0x415D1, size: 0x8, addend: 0x0, symName: __ZNKSt3__116reverse_iteratorIPNS_6threadEE4baseB7v160006Ev, symObjAddr: 0x80F18, symBinAddr: 0x100083FBC, symSize: 0xB0 }
  - { offsetInCU: 0x415F7, offset: 0x415F7, size: 0x8, addend: 0x0, symName: __ZNKSt3__16vectorINS_6threadENS_9allocatorIS1_EEE14__annotate_newB7v160006Em, symObjAddr: 0x81188, symBinAddr: 0x10008422C, symSize: 0x360 }
  - { offsetInCU: 0x4162C, offset: 0x4162C, size: 0x8, addend: 0x0, symName: __ZNSt3__129_AllocatorDestroyRangeReverseINS_9allocatorINS_6threadEEENS_16reverse_iteratorIPS2_EEEC1B7v160006ERS3_RS6_S9_, symObjAddr: 0x81734, symBinAddr: 0x1000847D8, symSize: 0x90 }
  - { offsetInCU: 0x41683, offset: 0x41683, size: 0x8, addend: 0x0, symName: __ZNKSt3__116reverse_iteratorIPNS_6threadEEdeB7v160006Ev, symObjAddr: 0x818CC, symBinAddr: 0x100084970, symSize: 0x184 }
  - { offsetInCU: 0x416B7, offset: 0x416B7, size: 0x8, addend: 0x0, symName: __ZNSt3__116reverse_iteratorIPNS_6threadEEppB7v160006Ev, symObjAddr: 0x81A50, symBinAddr: 0x100084AF4, symSize: 0x1B0 }
  - { offsetInCU: 0x416DD, offset: 0x416DD, size: 0x8, addend: 0x0, symName: __ZNSt3__128__exception_guard_exceptionsINS_29_AllocatorDestroyRangeReverseINS_9allocatorINS_6threadEEENS_16reverse_iteratorIPS3_EEEEE10__completeB7v160006Ev, symObjAddr: 0x81C00, symBinAddr: 0x100084CA4, symSize: 0xD8 }
  - { offsetInCU: 0x41703, offset: 0x41703, size: 0x8, addend: 0x0, symName: __ZNSt3__128__exception_guard_exceptionsINS_29_AllocatorDestroyRangeReverseINS_9allocatorINS_6threadEEENS_16reverse_iteratorIPS3_EEEEED1B7v160006Ev, symObjAddr: 0x81CD8, symBinAddr: 0x100084D7C, symSize: 0x78 }
  - { offsetInCU: 0x4172D, offset: 0x4172D, size: 0x8, addend: 0x0, symName: __ZNSt3__128__exception_guard_exceptionsINS_29_AllocatorDestroyRangeReverseINS_9allocatorINS_6threadEEENS_16reverse_iteratorIPS3_EEEEEC1B7v160006ES8_, symObjAddr: 0x81D50, symBinAddr: 0x100084DF4, symSize: 0x84 }
  - { offsetInCU: 0x41766, offset: 0x41766, size: 0x8, addend: 0x0, symName: __ZNSt3__128__exception_guard_exceptionsINS_29_AllocatorDestroyRangeReverseINS_9allocatorINS_6threadEEENS_16reverse_iteratorIPS3_EEEEEC2B7v160006ES8_, symObjAddr: 0x81DD4, symBinAddr: 0x100084E78, symSize: 0xF8 }
  - { offsetInCU: 0x4179F, offset: 0x4179F, size: 0x8, addend: 0x0, symName: __ZNSt3__129_AllocatorDestroyRangeReverseINS_9allocatorINS_6threadEEENS_16reverse_iteratorIPS2_EEEC2B7v160006ERS3_RS6_S9_, symObjAddr: 0x81ECC, symBinAddr: 0x100084F70, symSize: 0x20C }
  - { offsetInCU: 0x417FC, offset: 0x417FC, size: 0x8, addend: 0x0, symName: __ZNSt3__119__to_address_helperINS_16reverse_iteratorIPNS_6threadEEEvE6__callB7v160006ERKS4_, symObjAddr: 0x820D8, symBinAddr: 0x10008517C, symSize: 0x70 }
  - { offsetInCU: 0x4181F, offset: 0x4181F, size: 0x8, addend: 0x0, symName: __ZNKSt3__116reverse_iteratorIPNS_6threadEEptB7v160006Ev, symObjAddr: 0x82148, symBinAddr: 0x1000851EC, symSize: 0x6C }
  - { offsetInCU: 0x41845, offset: 0x41845, size: 0x8, addend: 0x0, symName: __ZNSt3__128__exception_guard_exceptionsINS_29_AllocatorDestroyRangeReverseINS_9allocatorINS_6threadEEENS_16reverse_iteratorIPS3_EEEEED2B7v160006Ev, symObjAddr: 0x821B4, symBinAddr: 0x100085258, symSize: 0x17C }
  - { offsetInCU: 0x4186F, offset: 0x4186F, size: 0x8, addend: 0x0, symName: __ZNKSt3__129_AllocatorDestroyRangeReverseINS_9allocatorINS_6threadEEENS_16reverse_iteratorIPS2_EEEclB7v160006Ev, symObjAddr: 0x82330, symBinAddr: 0x1000853D4, symSize: 0x418 }
  - { offsetInCU: 0x41896, offset: 0x41896, size: 0x8, addend: 0x0, symName: __ZNSt3__116reverse_iteratorINS0_IPNS_6threadEEEEC1B7v160006ES3_, symObjAddr: 0x828EC, symBinAddr: 0x100085990, symSize: 0x29C }
  - { offsetInCU: 0x418D3, offset: 0x418D3, size: 0x8, addend: 0x0, symName: __ZNSt3__116reverse_iteratorINS0_IPNS_6threadEEEEppB7v160006Ev, symObjAddr: 0x82F18, symBinAddr: 0x100085FBC, symSize: 0x100 }
  - { offsetInCU: 0x418F9, offset: 0x418F9, size: 0x8, addend: 0x0, symName: __ZNKSt3__116reverse_iteratorINS0_IPNS_6threadEEEE4baseB7v160006Ev, symObjAddr: 0x83018, symBinAddr: 0x1000860BC, symSize: 0x258 }
  - { offsetInCU: 0x41926, offset: 0x41926, size: 0x8, addend: 0x0, symName: __ZNSt3__119__to_address_helperINS_16reverse_iteratorINS1_IPNS_6threadEEEEEvE6__callB7v160006ERKS5_, symObjAddr: 0x83270, symBinAddr: 0x100086314, symSize: 0x70 }
  - { offsetInCU: 0x41949, offset: 0x41949, size: 0x8, addend: 0x0, symName: __ZNKSt3__116reverse_iteratorINS0_IPNS_6threadEEEEptB7v160006Ev, symObjAddr: 0x832E0, symBinAddr: 0x100086384, symSize: 0x6C }
  - { offsetInCU: 0x4196F, offset: 0x4196F, size: 0x8, addend: 0x0, symName: __ZNKSt3__116reverse_iteratorINS0_IPNS_6threadEEEEdeB7v160006Ev, symObjAddr: 0x8334C, symBinAddr: 0x1000863F0, symSize: 0x2C4 }
  - { offsetInCU: 0x419A8, offset: 0x419A8, size: 0x8, addend: 0x0, symName: __ZNSt3__116reverse_iteratorIPNS_6threadEEmmB7v160006Ev, symObjAddr: 0x83610, symBinAddr: 0x1000866B4, symSize: 0x1B0 }
  - { offsetInCU: 0x419CE, offset: 0x419CE, size: 0x8, addend: 0x0, symName: __ZNSt3__116reverse_iteratorINS0_IPNS_6threadEEEEC2B7v160006ES3_, symObjAddr: 0x837C0, symBinAddr: 0x100086864, symSize: 0x284 }
  - { offsetInCU: 0x41A0B, offset: 0x41A0B, size: 0x8, addend: 0x0, symName: __ZNSt3__116reverse_iteratorIPNS_6threadEEC2B7v160006ES2_, symObjAddr: 0x83A44, symBinAddr: 0x100086AE8, symSize: 0x10C }
  - { offsetInCU: 0x41A43, offset: 0x41A43, size: 0x8, addend: 0x0, symName: __ZNSt3__114__split_bufferINS_6threadERNS_9allocatorIS1_EEED2Ev, symObjAddr: 0x83B50, symBinAddr: 0x100086BF4, symSize: 0x16C }
  - { offsetInCU: 0x41A6F, offset: 0x41A6F, size: 0x8, addend: 0x0, symName: __ZNSt3__114__split_bufferINS_6threadERNS_9allocatorIS1_EEE5clearB7v160006Ev, symObjAddr: 0x83CBC, symBinAddr: 0x100086D60, symSize: 0xB4 }
  - { offsetInCU: 0x41A95, offset: 0x41A95, size: 0x8, addend: 0x0, symName: __ZNKSt3__114__split_bufferINS_6threadERNS_9allocatorIS1_EEE8capacityB7v160006Ev, symObjAddr: 0x83D70, symBinAddr: 0x100086E14, symSize: 0x144 }
  - { offsetInCU: 0x41ABB, offset: 0x41ABB, size: 0x8, addend: 0x0, symName: __ZNSt3__114__split_bufferINS_6threadERNS_9allocatorIS1_EEE17__destruct_at_endB7v160006EPS1_, symObjAddr: 0x83EB4, symBinAddr: 0x100086F58, symSize: 0x74 }
  - { offsetInCU: 0x41AEF, offset: 0x41AEF, size: 0x8, addend: 0x0, symName: __ZNSt3__114__split_bufferINS_6threadERNS_9allocatorIS1_EEE17__destruct_at_endB7v160006EPS1_NS_17integral_constantIbLb0EEE, symObjAddr: 0x83F28, symBinAddr: 0x100086FCC, symSize: 0x224 }
  - { offsetInCU: 0x41B2F, offset: 0x41B2F, size: 0x8, addend: 0x0, symName: __ZNKSt3__114__split_bufferINS_6threadERNS_9allocatorIS1_EEE9__end_capB7v160006Ev, symObjAddr: 0x8414C, symBinAddr: 0x1000871F0, symSize: 0x100 }
  - { offsetInCU: 0x41B55, offset: 0x41B55, size: 0x8, addend: 0x0, symName: __ZNKSt3__117__compressed_pairIPNS_6threadERNS_9allocatorIS1_EEE5firstB7v160006Ev, symObjAddr: 0x8424C, symBinAddr: 0x1000872F0, symSize: 0x124 }
  - { offsetInCU: 0x41B7B, offset: 0x41B7B, size: 0x8, addend: 0x0, symName: __ZNSt3__18functionIFvvEEC2B7v160006Ev, symObjAddr: 0x84370, symBinAddr: 0x100087414, symSize: 0x78 }
  - { offsetInCU: 0x41BA5, offset: 0x41BA5, size: 0x8, addend: 0x0, symName: __ZNSt3__110__function12__value_funcIFvvEEC1B7v160006Ev, symObjAddr: 0x843E8, symBinAddr: 0x10008748C, symSize: 0x78 }
  - { offsetInCU: 0x41BCF, offset: 0x41BCF, size: 0x8, addend: 0x0, symName: __ZNSt3__110__function12__value_funcIFvvEEC2B7v160006Ev, symObjAddr: 0x84460, symBinAddr: 0x100087504, symSize: 0xBC }
  - { offsetInCU: 0x41BF9, offset: 0x41BF9, size: 0x8, addend: 0x0, symName: __ZNSt3__18functionIFvvEED2Ev, symObjAddr: 0x8451C, symBinAddr: 0x1000875C0, symSize: 0x78 }
  - { offsetInCU: 0x41C25, offset: 0x41C25, size: 0x8, addend: 0x0, symName: __ZNSt3__110__function12__value_funcIFvvEED1B7v160006Ev, symObjAddr: 0x84594, symBinAddr: 0x100087638, symSize: 0x78 }
  - { offsetInCU: 0x41C4F, offset: 0x41C4F, size: 0x8, addend: 0x0, symName: __ZNSt3__110__function12__value_funcIFvvEED2B7v160006Ev, symObjAddr: 0x8460C, symBinAddr: 0x1000876B0, symSize: 0x44C }
  - { offsetInCU: 0x41C79, offset: 0x41C79, size: 0x8, addend: 0x0, symName: __ZNSt3__111unique_lockINS_5mutexEEC2B7v160006ERS1_, symObjAddr: 0x84A58, symBinAddr: 0x100087AFC, symSize: 0x1A8 }
  - { offsetInCU: 0x41CB1, offset: 0x41CB1, size: 0x8, addend: 0x0, symName: __ZNSt3__111unique_lockINS_5mutexEED2B7v160006Ev, symObjAddr: 0x84C00, symBinAddr: 0x100087CA4, symSize: 0x1A0 }
  - { offsetInCU: 0x41CDB, offset: 0x41CDB, size: 0x8, addend: 0x0, symName: __ZNKSt3__15dequeINS_8functionIFvvEEENS_9allocatorIS3_EEE5emptyB7v160006Ev, symObjAddr: 0x84DA0, symBinAddr: 0x100087E44, symSize: 0x78 }
  - { offsetInCU: 0x41D0C, offset: 0x41D0C, size: 0x8, addend: 0x0, symName: '__ZZN10ThreadPool10ThreadLoopEvENK3$_0clEv', symObjAddr: 0x84E18, symBinAddr: 0x100087EBC, symSize: 0x190 }
  - { offsetInCU: 0x41D36, offset: 0x41D36, size: 0x8, addend: 0x0, symName: __ZNSt3__15dequeINS_8functionIFvvEEENS_9allocatorIS3_EEE5frontEv, symObjAddr: 0x84FA8, symBinAddr: 0x10008804C, symSize: 0x41C }
  - { offsetInCU: 0x41D5E, offset: 0x41D5E, size: 0x8, addend: 0x0, symName: __ZNSt3__18functionIFvvEEC1ERKS2_, symObjAddr: 0x853C4, symBinAddr: 0x100088468, symSize: 0x80 }
  - { offsetInCU: 0x41D99, offset: 0x41D99, size: 0x8, addend: 0x0, symName: __ZNSt3__18functionIFvvEE4swapERS2_, symObjAddr: 0x85444, symBinAddr: 0x1000884E8, symSize: 0x100 }
  - { offsetInCU: 0x41DD0, offset: 0x41DD0, size: 0x8, addend: 0x0, symName: __ZNSt3__18functionIFvvEEC2ERKS2_, symObjAddr: 0x85544, symBinAddr: 0x1000885E8, symSize: 0xC8 }
  - { offsetInCU: 0x41E0B, offset: 0x41E0B, size: 0x8, addend: 0x0, symName: __ZNSt3__110__function12__value_funcIFvvEEC1B7v160006ERKS3_, symObjAddr: 0x8560C, symBinAddr: 0x1000886B0, symSize: 0x80 }
  - { offsetInCU: 0x41E44, offset: 0x41E44, size: 0x8, addend: 0x0, symName: __ZNSt3__110__function12__value_funcIFvvEEC2B7v160006ERKS3_, symObjAddr: 0x8568C, symBinAddr: 0x100088730, symSize: 0x640 }
  - { offsetInCU: 0x41E7D, offset: 0x41E7D, size: 0x8, addend: 0x0, symName: __ZNSt3__110__function12__value_funcIFvvEE9__as_baseEPv, symObjAddr: 0x85CCC, symBinAddr: 0x100088D70, symSize: 0x14 }
  - { offsetInCU: 0x41EA1, offset: 0x41EA1, size: 0x8, addend: 0x0, symName: __ZNSt3__110__function12__value_funcIFvvEE4swapB7v160006ERS3_, symObjAddr: 0x85CE0, symBinAddr: 0x100088D84, symSize: 0x185C }
  - { offsetInCU: 0x41F01, offset: 0x41F01, size: 0x8, addend: 0x0, symName: __ZNSt3__15dequeINS_8functionIFvvEEENS_9allocatorIS3_EEE9pop_frontEv, symObjAddr: 0x876FC, symBinAddr: 0x10008A7A0, symSize: 0x4E4 }
  - { offsetInCU: 0x41F38, offset: 0x41F38, size: 0x8, addend: 0x0, symName: __ZNSt3__15dequeINS_8functionIFvvEEENS_9allocatorIS3_EEE26__maybe_remove_front_spareB7v160006Eb, symObjAddr: 0x87BF4, symBinAddr: 0x10008AC98, symSize: 0x2B0 }
  - { offsetInCU: 0x41F6D, offset: 0x41F6D, size: 0x8, addend: 0x0, symName: __ZNKSt3__15dequeINS_8functionIFvvEEENS_9allocatorIS3_EEE20__front_spare_blocksB7v160006Ev, symObjAddr: 0x87EA4, symBinAddr: 0x10008AF48, symSize: 0xA0 }
  - { offsetInCU: 0x41F93, offset: 0x41F93, size: 0x8, addend: 0x0, symName: __ZNKSt3__15dequeINS_8functionIFvvEEENS_9allocatorIS3_EEE13__front_spareB7v160006Ev, symObjAddr: 0x87F44, symBinAddr: 0x10008AFE8, symSize: 0xB0 }
  - { offsetInCU: 0x41FB9, offset: 0x41FB9, size: 0x8, addend: 0x0, symName: __ZNKSt3__110__function12__value_funcIFvvEEclB7v160006Ev, symObjAddr: 0x87FF4, symBinAddr: 0x10008B098, symSize: 0x284 }
  - { offsetInCU: 0x41FE5, offset: 0x41FE5, size: 0x8, addend: 0x0, symName: __ZNSt3__117bad_function_callC1Ev, symObjAddr: 0x88308, symBinAddr: 0x10008B3AC, symSize: 0x78 }
  - { offsetInCU: 0x42011, offset: 0x42011, size: 0x8, addend: 0x0, symName: __ZNSt3__117bad_function_callD1Ev, symObjAddr: 0x88380, symBinAddr: 0x10008B424, symSize: 0x78 }
  - { offsetInCU: 0x4203B, offset: 0x4203B, size: 0x8, addend: 0x0, symName: __ZNSt3__117bad_function_callC2Ev, symObjAddr: 0x883F8, symBinAddr: 0x10008B49C, symSize: 0x118 }
  - { offsetInCU: 0x42067, offset: 0x42067, size: 0x8, addend: 0x0, symName: __ZNSt9exceptionC2B7v160006Ev, symObjAddr: 0x88510, symBinAddr: 0x10008B5B4, symSize: 0xCC }
  - { offsetInCU: 0x42091, offset: 0x42091, size: 0x8, addend: 0x0, symName: __ZNSt3__117bad_function_callD0Ev, symObjAddr: 0x885DC, symBinAddr: 0x10008B680, symSize: 0x74 }
  - { offsetInCU: 0x420BB, offset: 0x420BB, size: 0x8, addend: 0x0, symName: __ZNSt3__117bad_function_callD2Ev, symObjAddr: 0x88650, symBinAddr: 0x10008B6F4, symSize: 0x78 }
  - { offsetInCU: 0x420E5, offset: 0x420E5, size: 0x8, addend: 0x0, symName: __ZNSt3__15dequeINS_8functionIFvvEEENS_9allocatorIS3_EEE9push_backERKS3_, symObjAddr: 0x886C8, symBinAddr: 0x10008B76C, symSize: 0x39C }
  - { offsetInCU: 0x4212E, offset: 0x4212E, size: 0x8, addend: 0x0, symName: __ZNKSt3__15dequeINS_8functionIFvvEEENS_9allocatorIS3_EEE12__back_spareB7v160006Ev, symObjAddr: 0x88A64, symBinAddr: 0x10008BB08, symSize: 0xD4 }
  - { offsetInCU: 0x42154, offset: 0x42154, size: 0x8, addend: 0x0, symName: __ZNSt3__15dequeINS_8functionIFvvEEENS_9allocatorIS3_EEE19__add_back_capacityEv, symObjAddr: 0x88B38, symBinAddr: 0x10008BBDC, symSize: 0x1314 }
  - { offsetInCU: 0x42214, offset: 0x42214, size: 0x8, addend: 0x0, symName: __ZNSt3__116allocator_traitsINS_9allocatorINS_8functionIFvvEEEEEE9constructB7v160006IS4_JRKS4_EvEEvRS5_PT_DpOT0_, symObjAddr: 0x89E4C, symBinAddr: 0x10008CEF0, symSize: 0x8C }
  - { offsetInCU: 0x4226B, offset: 0x4226B, size: 0x8, addend: 0x0, symName: __ZNKSt3__15dequeINS_8functionIFvvEEENS_9allocatorIS3_EEE10__capacityB7v160006Ev, symObjAddr: 0x89ED8, symBinAddr: 0x10008CF7C, symSize: 0x12C }
  - { offsetInCU: 0x42291, offset: 0x42291, size: 0x8, addend: 0x0, symName: __ZNSt3__114__split_bufferIPNS_8functionIFvvEEENS_9allocatorIS4_EEE9push_backB7v160006ERKS4_, symObjAddr: 0x8A004, symBinAddr: 0x10008D0A8, symSize: 0x1138 }
  - { offsetInCU: 0x42310, offset: 0x42310, size: 0x8, addend: 0x0, symName: __ZNKSt3__114__split_bufferIPNS_8functionIFvvEEENS_9allocatorIS4_EEE12__back_spareB7v160006Ev, symObjAddr: 0x8B13C, symBinAddr: 0x10008E1E0, symSize: 0x148 }
  - { offsetInCU: 0x42336, offset: 0x42336, size: 0x8, addend: 0x0, symName: __ZNSt3__114__split_bufferIPNS_8functionIFvvEEENS_9allocatorIS4_EEE9push_backEOS4_, symObjAddr: 0x8B284, symBinAddr: 0x10008E328, symSize: 0x1138 }
  - { offsetInCU: 0x423B5, offset: 0x423B5, size: 0x8, addend: 0x0, symName: __ZNSt3__116allocator_traitsINS_9allocatorINS_8functionIFvvEEEEEE8allocateB7v160006ERS5_m, symObjAddr: 0x8C3BC, symBinAddr: 0x10008F460, symSize: 0x2C }
  - { offsetInCU: 0x423E8, offset: 0x423E8, size: 0x8, addend: 0x0, symName: __ZNSt3__114__split_bufferIPNS_8functionIFvvEEENS_9allocatorIS4_EEE10push_frontEOS4_, symObjAddr: 0x8C3E8, symBinAddr: 0x10008F48C, symSize: 0x1214 }
  - { offsetInCU: 0x42467, offset: 0x42467, size: 0x8, addend: 0x0, symName: __ZNSt3__114__split_bufferIPNS_8functionIFvvEEERNS_9allocatorIS4_EEEC1EmmS7_, symObjAddr: 0x8D5FC, symBinAddr: 0x1000906A0, symSize: 0x90 }
  - { offsetInCU: 0x424C3, offset: 0x424C3, size: 0x8, addend: 0x0, symName: __ZNSt3__122__allocator_destructorINS_9allocatorINS_8functionIFvvEEEEEEC1B7v160006ERS5_m, symObjAddr: 0x8D68C, symBinAddr: 0x100090730, symSize: 0x88 }
  - { offsetInCU: 0x42599, offset: 0x42599, size: 0x8, addend: 0x0, symName: __ZNSt3__110unique_ptrIPNS_8functionIFvvEEENS_22__allocator_destructorINS_9allocatorIS3_EEEEEC1B7v160006ILb1EvEES4_NS_16__dependent_typeINS_27__unique_ptr_deleter_sfinaeIS8_EEXT_EE20__good_rval_ref_typeE, symObjAddr: 0x8D714, symBinAddr: 0x1000907B8, symSize: 0x88 }
  - { offsetInCU: 0x425EA, offset: 0x425EA, size: 0x8, addend: 0x0, symName: __ZNSt3__114__split_bufferIPNS_8functionIFvvEEERNS_9allocatorIS4_EEE9push_backEOS4_, symObjAddr: 0x8D79C, symBinAddr: 0x100090840, symSize: 0x1138 }
  - { offsetInCU: 0x42669, offset: 0x42669, size: 0x8, addend: 0x0, symName: __ZNKSt3__110unique_ptrIPNS_8functionIFvvEEENS_22__allocator_destructorINS_9allocatorIS3_EEEEE3getB7v160006Ev, symObjAddr: 0x8E8D4, symBinAddr: 0x100091978, symSize: 0x13C }
  - { offsetInCU: 0x4268F, offset: 0x4268F, size: 0x8, addend: 0x0, symName: __ZNSt3__110unique_ptrIPNS_8functionIFvvEEENS_22__allocator_destructorINS_9allocatorIS3_EEEEE7releaseB7v160006Ev, symObjAddr: 0x8EA10, symBinAddr: 0x100091AB4, symSize: 0x20C }
  - { offsetInCU: 0x426C4, offset: 0x426C4, size: 0x8, addend: 0x0, symName: __ZNSt3__114__split_bufferIPNS_8functionIFvvEEERNS_9allocatorIS4_EEE10push_frontERKS4_, symObjAddr: 0x8EC1C, symBinAddr: 0x100091CC0, symSize: 0x1214 }
  - { offsetInCU: 0x42743, offset: 0x42743, size: 0x8, addend: 0x0, symName: __ZNSt3__114__split_bufferIPNS_8functionIFvvEEENS_9allocatorIS4_EEE9__end_capB7v160006Ev, symObjAddr: 0x8FFF0, symBinAddr: 0x100093094, symSize: 0x100 }
  - { offsetInCU: 0x42769, offset: 0x42769, size: 0x8, addend: 0x0, symName: __ZNSt3__114__split_bufferIPNS_8functionIFvvEEERNS_9allocatorIS4_EEE9__end_capB7v160006Ev, symObjAddr: 0x900F0, symBinAddr: 0x100093194, symSize: 0x100 }
  - { offsetInCU: 0x4278F, offset: 0x4278F, size: 0x8, addend: 0x0, symName: __ZNSt3__110unique_ptrIPNS_8functionIFvvEEENS_22__allocator_destructorINS_9allocatorIS3_EEEEED1B7v160006Ev, symObjAddr: 0x901F0, symBinAddr: 0x100093294, symSize: 0x78 }
  - { offsetInCU: 0x427B9, offset: 0x427B9, size: 0x8, addend: 0x0, symName: __ZNSt3__114__split_bufferIPNS_8functionIFvvEEERNS_9allocatorIS4_EEED1Ev, symObjAddr: 0x90268, symBinAddr: 0x10009330C, symSize: 0x78 }
  - { offsetInCU: 0x427E5, offset: 0x427E5, size: 0x8, addend: 0x0, symName: __ZNSt3__114__split_bufferIPNS_8functionIFvvEEERNS_9allocatorIS4_EEE18__construct_at_endINS_13move_iteratorIPS4_EEEENS_9enable_ifIXsr27__is_cpp17_forward_iteratorIT_EE5valueEvE4typeESE_SE_, symObjAddr: 0x90594, symBinAddr: 0x100093638, symSize: 0x78C }
  - { offsetInCU: 0x4284E, offset: 0x4284E, size: 0x8, addend: 0x0, symName: __ZNSt3__113move_iteratorIPPNS_8functionIFvvEEEEC1B7v160006ES5_, symObjAddr: 0x90D20, symBinAddr: 0x100093DC4, symSize: 0x80 }
  - { offsetInCU: 0x42886, offset: 0x42886, size: 0x8, addend: 0x0, symName: __ZNSt3__116allocator_traitsINS_9allocatorIPNS_8functionIFvvEEEEEE9constructB7v160006IS5_JRKS5_EvEEvRS6_PT_DpOT0_, symObjAddr: 0x90DA0, symBinAddr: 0x100093E44, symSize: 0x8C }
  - { offsetInCU: 0x42905, offset: 0x42905, size: 0x8, addend: 0x0, symName: __ZNKSt3__114__move_trivialclB7v160006IPNS_8functionIFvvEEES5_Li0EEENS_4pairIPT_PT0_EES8_S8_SA_, symObjAddr: 0x91C08, symBinAddr: 0x100094CAC, symSize: 0x25C }
  - { offsetInCU: 0x42977, offset: 0x42977, size: 0x8, addend: 0x0, symName: __ZNSt3__14pairIPPNS_8functionIFvvEEES5_EC1B7v160006IRS5_S5_LPv0EEEOT_OT0_, symObjAddr: 0x928C0, symBinAddr: 0x100095964, symSize: 0x88 }
  - { offsetInCU: 0x429D5, offset: 0x429D5, size: 0x8, addend: 0x0, symName: __ZNSt3__14pairIPPNS_8functionIFvvEEES5_EC2B7v160006IRS5_S5_LPv0EEEOT_OT0_, symObjAddr: 0x92948, symBinAddr: 0x1000959EC, symSize: 0x210 }
  - { offsetInCU: 0x42A33, offset: 0x42A33, size: 0x8, addend: 0x0, symName: __ZNSt3__118__unwrap_iter_implIPPNS_8functionIFvvEEELb1EE8__unwrapB7v160006ES5_, symObjAddr: 0x92B58, symBinAddr: 0x100095BFC, symSize: 0x24 }
  - { offsetInCU: 0x42A56, offset: 0x42A56, size: 0x8, addend: 0x0, symName: __ZNSt3__14pairIPPNS_8functionIFvvEEES5_EC1B7v160006IS5_S5_LPv0EEEOT_OT0_, symObjAddr: 0x92B7C, symBinAddr: 0x100095C20, symSize: 0x88 }
  - { offsetInCU: 0x42AB4, offset: 0x42AB4, size: 0x8, addend: 0x0, symName: __ZNSt3__14pairIPPNS_8functionIFvvEEES5_EC2B7v160006IS5_S5_LPv0EEEOT_OT0_, symObjAddr: 0x92C04, symBinAddr: 0x100095CA8, symSize: 0x210 }
  - { offsetInCU: 0x42B12, offset: 0x42B12, size: 0x8, addend: 0x0, symName: __ZNSt3__118__unwrap_iter_implIPPNS_8functionIFvvEEELb1EE8__rewrapB7v160006ES5_S5_, symObjAddr: 0x92E14, symBinAddr: 0x100095EB8, symSize: 0x13C }
  - { offsetInCU: 0x42B4F, offset: 0x42B4F, size: 0x8, addend: 0x0, symName: __ZNSt3__114__split_bufferIPNS_8functionIFvvEEERNS_9allocatorIS4_EEE21_ConstructTransactionC1B7v160006EPPS4_m, symObjAddr: 0x932A0, symBinAddr: 0x100096344, symSize: 0x88 }
  - { offsetInCU: 0x42B95, offset: 0x42B95, size: 0x8, addend: 0x0, symName: __ZNSt3__116allocator_traitsINS_9allocatorIPNS_8functionIFvvEEEEEE9constructB7v160006IS5_JS5_EvEEvRS6_PT_DpOT0_, symObjAddr: 0x93328, symBinAddr: 0x1000963CC, symSize: 0x8C }
  - { offsetInCU: 0x42BEC, offset: 0x42BEC, size: 0x8, addend: 0x0, symName: __ZNSt3__114__split_bufferIPNS_8functionIFvvEEERNS_9allocatorIS4_EEE7__allocB7v160006Ev, symObjAddr: 0x933B4, symBinAddr: 0x100096458, symSize: 0xE4 }
  - { offsetInCU: 0x42C12, offset: 0x42C12, size: 0x8, addend: 0x0, symName: __ZNKSt3__113move_iteratorIPPNS_8functionIFvvEEEEdeB7v160006Ev, symObjAddr: 0x93498, symBinAddr: 0x10009653C, symSize: 0xF4 }
  - { offsetInCU: 0x42C38, offset: 0x42C38, size: 0x8, addend: 0x0, symName: __ZNSt3__113move_iteratorIPPNS_8functionIFvvEEEEppB7v160006Ev, symObjAddr: 0x9358C, symBinAddr: 0x100096630, symSize: 0x1A8 }
  - { offsetInCU: 0x42C5E, offset: 0x42C5E, size: 0x8, addend: 0x0, symName: __ZNSt3__114__split_bufferIPNS_8functionIFvvEEERNS_9allocatorIS4_EEE21_ConstructTransactionD1B7v160006Ev, symObjAddr: 0x93734, symBinAddr: 0x1000967D8, symSize: 0x78 }
  - { offsetInCU: 0x42C88, offset: 0x42C88, size: 0x8, addend: 0x0, symName: __ZNKSt3__113move_iteratorIPPNS_8functionIFvvEEEE4baseB7v160006Ev, symObjAddr: 0x93ABC, symBinAddr: 0x100096B60, symSize: 0xAC }
  - { offsetInCU: 0x42CAE, offset: 0x42CAE, size: 0x8, addend: 0x0, symName: __ZNSt3__114__split_bufferIPNS_8functionIFvvEEERNS_9allocatorIS4_EEE21_ConstructTransactionC2B7v160006EPPS4_m, symObjAddr: 0x93B68, symBinAddr: 0x100096C0C, symSize: 0x324 }
  - { offsetInCU: 0x42CF4, offset: 0x42CF4, size: 0x8, addend: 0x0, symName: __ZNSt3__19allocatorIPNS_8functionIFvvEEEE9constructB7v160006IS4_JS4_EEEvPT_DpOT0_, symObjAddr: 0x93E8C, symBinAddr: 0x100096F30, symSize: 0x168 }
  - { offsetInCU: 0x42D4A, offset: 0x42D4A, size: 0x8, addend: 0x0, symName: __ZNSt3__117__compressed_pairIPPNS_8functionIFvvEEERNS_9allocatorIS4_EEE6secondB7v160006Ev, symObjAddr: 0x93FF4, symBinAddr: 0x100097098, symSize: 0x110 }
  - { offsetInCU: 0x42D70, offset: 0x42D70, size: 0x8, addend: 0x0, symName: __ZNSt3__122__compressed_pair_elemIRNS_9allocatorIPNS_8functionIFvvEEEEELi1ELb0EE5__getB7v160006Ev, symObjAddr: 0x94104, symBinAddr: 0x1000971A8, symSize: 0xD8 }
  - { offsetInCU: 0x42D96, offset: 0x42D96, size: 0x8, addend: 0x0, symName: __ZNSt3__114__split_bufferIPNS_8functionIFvvEEERNS_9allocatorIS4_EEE21_ConstructTransactionD2B7v160006Ev, symObjAddr: 0x941DC, symBinAddr: 0x100097280, symSize: 0x174 }
  - { offsetInCU: 0x42DC0, offset: 0x42DC0, size: 0x8, addend: 0x0, symName: __ZNSt3__113move_iteratorIPPNS_8functionIFvvEEEEC2B7v160006ES5_, symObjAddr: 0x94350, symBinAddr: 0x1000973F4, symSize: 0xC8 }
  - { offsetInCU: 0x42DF8, offset: 0x42DF8, size: 0x8, addend: 0x0, symName: __ZNSt3__19allocatorIPNS_8functionIFvvEEEE9constructB7v160006IS4_JRKS4_EEEvPT_DpOT0_, symObjAddr: 0x94418, symBinAddr: 0x1000974BC, symSize: 0x168 }
  - { offsetInCU: 0x42E4E, offset: 0x42E4E, size: 0x8, addend: 0x0, symName: __ZNSt3__19allocatorINS_8functionIFvvEEEE8allocateB7v160006Em, symObjAddr: 0x94580, symBinAddr: 0x100097624, symSize: 0xCC }
  - { offsetInCU: 0x42E8D, offset: 0x42E8D, size: 0x8, addend: 0x0, symName: __ZNSt3__116allocator_traitsINS_9allocatorINS_8functionIFvvEEEEEE8max_sizeB7v160006IS5_vEEmRKS5_, symObjAddr: 0x9464C, symBinAddr: 0x1000976F0, symSize: 0x24 }
  - { offsetInCU: 0x42EBB, offset: 0x42EBB, size: 0x8, addend: 0x0, symName: __ZNKSt3__19allocatorINS_8functionIFvvEEEE8max_sizeB7v160006Ev, symObjAddr: 0x94670, symBinAddr: 0x100097714, symSize: 0x4C }
  - { offsetInCU: 0x42EEC, offset: 0x42EEC, size: 0x8, addend: 0x0, symName: __ZNKSt3__123__move_backward_trivialclB7v160006IPNS_8functionIFvvEEES5_Li0EEENS_4pairIPT_PT0_EES8_S8_SA_, symObjAddr: 0x953FC, symBinAddr: 0x1000984A0, symSize: 0x25C }
  - { offsetInCU: 0x42F58, offset: 0x42F58, size: 0x8, addend: 0x0, symName: __ZNSt3__14pairIPPNS_8functionIFvvEEES5_EC1B7v160006IRS5_S8_LPv0EEEOT_OT0_, symObjAddr: 0x95DDC, symBinAddr: 0x100098E80, symSize: 0x88 }
  - { offsetInCU: 0x42FB6, offset: 0x42FB6, size: 0x8, addend: 0x0, symName: __ZNSt3__14pairIPPNS_8functionIFvvEEES5_EC2B7v160006IRS5_S8_LPv0EEEOT_OT0_, symObjAddr: 0x95E64, symBinAddr: 0x100098F08, symSize: 0x210 }
  - { offsetInCU: 0x43014, offset: 0x43014, size: 0x8, addend: 0x0, symName: __ZNSt3__114__split_bufferIPNS_8functionIFvvEEERNS_9allocatorIS4_EEEC2EmmS7_, symObjAddr: 0x96074, symBinAddr: 0x100099118, symSize: 0x7D8 }
  - { offsetInCU: 0x4308F, offset: 0x4308F, size: 0x8, addend: 0x0, symName: __ZNSt3__117__compressed_pairIPPNS_8functionIFvvEEERNS_9allocatorIS4_EEEC1B7v160006IDnS8_EEOT_OT0_, symObjAddr: 0x9684C, symBinAddr: 0x1000998F0, symSize: 0x88 }
  - { offsetInCU: 0x430E7, offset: 0x430E7, size: 0x8, addend: 0x0, symName: __ZNSt3__117__compressed_pairIPPNS_8functionIFvvEEERNS_9allocatorIS4_EEEC2B7v160006IDnS8_EEOT_OT0_, symObjAddr: 0x96B60, symBinAddr: 0x100099C04, symSize: 0x198 }
  - { offsetInCU: 0x4313F, offset: 0x4313F, size: 0x8, addend: 0x0, symName: __ZNSt3__122__compressed_pair_elemIRNS_9allocatorIPNS_8functionIFvvEEEEELi1ELb0EEC2B7v160006IS7_vEEOT_, symObjAddr: 0x96CF8, symBinAddr: 0x100099D9C, symSize: 0xEC }
  - { offsetInCU: 0x43181, offset: 0x43181, size: 0x8, addend: 0x0, symName: __ZNSt3__19allocatorIPNS_8functionIFvvEEEE8allocateB7v160006Em, symObjAddr: 0x96DE4, symBinAddr: 0x100099E88, symSize: 0xCC }
  - { offsetInCU: 0x431C0, offset: 0x431C0, size: 0x8, addend: 0x0, symName: __ZNSt3__116allocator_traitsINS_9allocatorIPNS_8functionIFvvEEEEEE8max_sizeB7v160006IS6_vEEmRKS6_, symObjAddr: 0x96EB0, symBinAddr: 0x100099F54, symSize: 0x24 }
  - { offsetInCU: 0x431EE, offset: 0x431EE, size: 0x8, addend: 0x0, symName: __ZNKSt3__19allocatorIPNS_8functionIFvvEEEE8max_sizeB7v160006Ev, symObjAddr: 0x96ED4, symBinAddr: 0x100099F78, symSize: 0x4C }
  - { offsetInCU: 0x43214, offset: 0x43214, size: 0x8, addend: 0x0, symName: __ZNSt3__122__allocator_destructorINS_9allocatorINS_8functionIFvvEEEEEEC2B7v160006ERS5_m, symObjAddr: 0x96F20, symBinAddr: 0x100099FC4, symSize: 0x134 }
  - { offsetInCU: 0x4325A, offset: 0x4325A, size: 0x8, addend: 0x0, symName: __ZNSt3__110unique_ptrIPNS_8functionIFvvEEENS_22__allocator_destructorINS_9allocatorIS3_EEEEEC2B7v160006ILb1EvEES4_NS_16__dependent_typeINS_27__unique_ptr_deleter_sfinaeIS8_EEXT_EE20__good_rval_ref_typeE, symObjAddr: 0x97054, symBinAddr: 0x10009A0F8, symSize: 0x2BC }
  - { offsetInCU: 0x432B1, offset: 0x432B1, size: 0x8, addend: 0x0, symName: __ZNSt3__117__compressed_pairIPNS_8functionIFvvEEENS_22__allocator_destructorINS_9allocatorIS3_EEEEEC1B7v160006IRS4_S8_EEOT_OT0_, symObjAddr: 0x97310, symBinAddr: 0x10009A3B4, symSize: 0x88 }
  - { offsetInCU: 0x43309, offset: 0x43309, size: 0x8, addend: 0x0, symName: __ZNSt3__117__compressed_pairIPNS_8functionIFvvEEENS_22__allocator_destructorINS_9allocatorIS3_EEEEEC2B7v160006IRS4_S8_EEOT_OT0_, symObjAddr: 0x97398, symBinAddr: 0x10009A43C, symSize: 0x1B4 }
  - { offsetInCU: 0x43361, offset: 0x43361, size: 0x8, addend: 0x0, symName: __ZNSt3__122__compressed_pair_elemIPNS_8functionIFvvEEELi0ELb0EEC2B7v160006IRS4_vEEOT_, symObjAddr: 0x9754C, symBinAddr: 0x10009A5F0, symSize: 0x144 }
  - { offsetInCU: 0x433A3, offset: 0x433A3, size: 0x8, addend: 0x0, symName: __ZNSt3__122__compressed_pair_elemINS_22__allocator_destructorINS_9allocatorINS_8functionIFvvEEEEEEELi1ELb0EEC2B7v160006IS7_vEEOT_, symObjAddr: 0x97690, symBinAddr: 0x10009A734, symSize: 0x84 }
  - { offsetInCU: 0x433E5, offset: 0x433E5, size: 0x8, addend: 0x0, symName: __ZNKSt3__117__compressed_pairIPNS_8functionIFvvEEENS_22__allocator_destructorINS_9allocatorIS3_EEEEE5firstB7v160006Ev, symObjAddr: 0x97714, symBinAddr: 0x10009A7B8, symSize: 0x124 }
  - { offsetInCU: 0x4340B, offset: 0x4340B, size: 0x8, addend: 0x0, symName: __ZNKSt3__122__compressed_pair_elemIPNS_8functionIFvvEEELi0ELb0EE5__getB7v160006Ev, symObjAddr: 0x97838, symBinAddr: 0x10009A8DC, symSize: 0xAC }
  - { offsetInCU: 0x43431, offset: 0x43431, size: 0x8, addend: 0x0, symName: __ZNSt3__117__compressed_pairIPNS_8functionIFvvEEENS_22__allocator_destructorINS_9allocatorIS3_EEEEE5firstB7v160006Ev, symObjAddr: 0x978E4, symBinAddr: 0x10009A988, symSize: 0x124 }
  - { offsetInCU: 0x43457, offset: 0x43457, size: 0x8, addend: 0x0, symName: __ZNSt3__122__compressed_pair_elemIPNS_8functionIFvvEEELi0ELb0EE5__getB7v160006Ev, symObjAddr: 0x97A08, symBinAddr: 0x10009AAAC, symSize: 0xAC }
  - { offsetInCU: 0x4347D, offset: 0x4347D, size: 0x8, addend: 0x0, symName: __ZNSt3__117__compressed_pairIPPNS_8functionIFvvEEENS_9allocatorIS4_EEE5firstB7v160006Ev, symObjAddr: 0x97AB4, symBinAddr: 0x10009AB58, symSize: 0x124 }
  - { offsetInCU: 0x434A3, offset: 0x434A3, size: 0x8, addend: 0x0, symName: __ZNSt3__122__compressed_pair_elemIPPNS_8functionIFvvEEELi0ELb0EE5__getB7v160006Ev, symObjAddr: 0x97BD8, symBinAddr: 0x10009AC7C, symSize: 0xAC }
  - { offsetInCU: 0x434C9, offset: 0x434C9, size: 0x8, addend: 0x0, symName: __ZNSt3__117__compressed_pairIPPNS_8functionIFvvEEERNS_9allocatorIS4_EEE5firstB7v160006Ev, symObjAddr: 0x97C84, symBinAddr: 0x10009AD28, symSize: 0x124 }
  - { offsetInCU: 0x434EF, offset: 0x434EF, size: 0x8, addend: 0x0, symName: __ZNSt3__110unique_ptrIPNS_8functionIFvvEEENS_22__allocator_destructorINS_9allocatorIS3_EEEEED2B7v160006Ev, symObjAddr: 0x97DA8, symBinAddr: 0x10009AE4C, symSize: 0x7C }
  - { offsetInCU: 0x43519, offset: 0x43519, size: 0x8, addend: 0x0, symName: __ZNSt3__110unique_ptrIPNS_8functionIFvvEEENS_22__allocator_destructorINS_9allocatorIS3_EEEEE5resetB7v160006ES4_, symObjAddr: 0x97E24, symBinAddr: 0x10009AEC8, symSize: 0x2CC }
  - { offsetInCU: 0x4355D, offset: 0x4355D, size: 0x8, addend: 0x0, symName: __ZNSt3__117__compressed_pairIPNS_8functionIFvvEEENS_22__allocator_destructorINS_9allocatorIS3_EEEEE6secondB7v160006Ev, symObjAddr: 0x980F0, symBinAddr: 0x10009B194, symSize: 0x12C }
  - { offsetInCU: 0x43583, offset: 0x43583, size: 0x8, addend: 0x0, symName: __ZNSt3__122__allocator_destructorINS_9allocatorINS_8functionIFvvEEEEEEclB7v160006EPS4_, symObjAddr: 0x9821C, symBinAddr: 0x10009B2C0, symSize: 0x128 }
  - { offsetInCU: 0x435B7, offset: 0x435B7, size: 0x8, addend: 0x0, symName: __ZNSt3__122__compressed_pair_elemINS_22__allocator_destructorINS_9allocatorINS_8functionIFvvEEEEEEELi1ELb0EE5__getB7v160006Ev, symObjAddr: 0x98344, symBinAddr: 0x10009B3E8, symSize: 0xAC }
  - { offsetInCU: 0x435DD, offset: 0x435DD, size: 0x8, addend: 0x0, symName: __ZNSt3__114__split_bufferIPNS_8functionIFvvEEERNS_9allocatorIS4_EEED2Ev, symObjAddr: 0x983F0, symBinAddr: 0x10009B494, symSize: 0x16C }
  - { offsetInCU: 0x43609, offset: 0x43609, size: 0x8, addend: 0x0, symName: __ZNSt3__114__split_bufferIPNS_8functionIFvvEEERNS_9allocatorIS4_EEE5clearB7v160006Ev, symObjAddr: 0x9855C, symBinAddr: 0x10009B600, symSize: 0xB4 }
  - { offsetInCU: 0x4362F, offset: 0x4362F, size: 0x8, addend: 0x0, symName: __ZNKSt3__114__split_bufferIPNS_8functionIFvvEEERNS_9allocatorIS4_EEE8capacityB7v160006Ev, symObjAddr: 0x98610, symBinAddr: 0x10009B6B4, symSize: 0x144 }
  - { offsetInCU: 0x43655, offset: 0x43655, size: 0x8, addend: 0x0, symName: __ZNSt3__114__split_bufferIPNS_8functionIFvvEEERNS_9allocatorIS4_EEE17__destruct_at_endB7v160006EPS4_, symObjAddr: 0x98754, symBinAddr: 0x10009B7F8, symSize: 0x74 }
  - { offsetInCU: 0x43689, offset: 0x43689, size: 0x8, addend: 0x0, symName: __ZNSt3__114__split_bufferIPNS_8functionIFvvEEERNS_9allocatorIS4_EEE17__destruct_at_endB7v160006EPS4_NS_17integral_constantIbLb0EEE, symObjAddr: 0x987C8, symBinAddr: 0x10009B86C, symSize: 0x224 }
  - { offsetInCU: 0x436C9, offset: 0x436C9, size: 0x8, addend: 0x0, symName: __ZNKSt3__114__split_bufferIPNS_8functionIFvvEEERNS_9allocatorIS4_EEE9__end_capB7v160006Ev, symObjAddr: 0x989EC, symBinAddr: 0x10009BA90, symSize: 0x100 }
  - { offsetInCU: 0x436EF, offset: 0x436EF, size: 0x8, addend: 0x0, symName: __ZNKSt3__117__compressed_pairIPPNS_8functionIFvvEEERNS_9allocatorIS4_EEE5firstB7v160006Ev, symObjAddr: 0x98AEC, symBinAddr: 0x10009BB90, symSize: 0x124 }
  - { offsetInCU: 0x43715, offset: 0x43715, size: 0x8, addend: 0x0, symName: __ZNSt3__19allocatorINS_8functionIFvvEEEE9constructB7v160006IS3_JRKS3_EEEvPT_DpOT0_, symObjAddr: 0x98C10, symBinAddr: 0x10009BCB4, symSize: 0xEC }
  - { offsetInCU: 0x4376B, offset: 0x4376B, size: 0x8, addend: 0x0, symName: __ZNSt3__16vectorINS_6threadENS_9allocatorIS1_EEE11__make_iterB7v160006EPS1_, symObjAddr: 0x98CFC, symBinAddr: 0x10009BDA0, symSize: 0x24C }
  - { offsetInCU: 0x437A2, offset: 0x437A2, size: 0x8, addend: 0x0, symName: __ZNSt3__111__wrap_iterIPNS_6threadEEC1B7v160006EPKvS2_, symObjAddr: 0x98F48, symBinAddr: 0x10009BFEC, symSize: 0x88 }
  - { offsetInCU: 0x437E8, offset: 0x437E8, size: 0x8, addend: 0x0, symName: __ZNSt3__111__wrap_iterIPNS_6threadEEC2B7v160006EPKvS2_, symObjAddr: 0x98FD0, symBinAddr: 0x10009C074, symSize: 0xCC }
  - { offsetInCU: 0x4382E, offset: 0x4382E, size: 0x8, addend: 0x0, symName: __ZNSt3__113unordered_mapIiNS_12basic_stringIcNS_11char_traitsIcEENS_9allocatorIcEEEENS_4hashIiEENS_8equal_toIiEENS4_INS_4pairIKiS6_EEEEEC2ESt16initializer_listISD_E, symObjAddr: 0x9909C, symBinAddr: 0x10009C140, symSize: 0x324 }
  - { offsetInCU: 0x4386E, offset: 0x4386E, size: 0x8, addend: 0x0, symName: __ZNSt3__112__hash_tableINS_17__hash_value_typeIiNS_12basic_stringIcNS_11char_traitsIcEENS_9allocatorIcEEEEEENS_22__unordered_map_hasherIiS8_NS_4hashIiEENS_8equal_toIiEELb1EEENS_21__unordered_map_equalIiS8_SD_SB_Lb1EEENS5_IS8_EEEC1Ev, symObjAddr: 0x993C0, symBinAddr: 0x10009C464, symSize: 0x78 }
  - { offsetInCU: 0x4389A, offset: 0x4389A, size: 0x8, addend: 0x0, symName: __ZNSt3__113unordered_mapIiNS_12basic_stringIcNS_11char_traitsIcEENS_9allocatorIcEEEENS_4hashIiEENS_8equal_toIiEENS4_INS_4pairIKiS6_EEEEE6insertIPKSD_EEvT_SJ_, symObjAddr: 0x99448, symBinAddr: 0x10009C4EC, symSize: 0x390 }
  - { offsetInCU: 0x438EC, offset: 0x438EC, size: 0x8, addend: 0x0, symName: __ZNKSt16initializer_listINSt3__14pairIKiNS0_12basic_stringIcNS0_11char_traitsIcEENS0_9allocatorIcEEEEEEE5beginB7v160006Ev, symObjAddr: 0x997D8, symBinAddr: 0x10009C87C, symSize: 0xAC }
  - { offsetInCU: 0x43912, offset: 0x43912, size: 0x8, addend: 0x0, symName: __ZNKSt16initializer_listINSt3__14pairIKiNS0_12basic_stringIcNS0_11char_traitsIcEENS0_9allocatorIcEEEEEEE3endB7v160006Ev, symObjAddr: 0x99884, symBinAddr: 0x10009C928, symSize: 0x1C0 }
  - { offsetInCU: 0x43938, offset: 0x43938, size: 0x8, addend: 0x0, symName: __ZNSt3__112__hash_tableINS_17__hash_value_typeIiNS_12basic_stringIcNS_11char_traitsIcEENS_9allocatorIcEEEEEENS_22__unordered_map_hasherIiS8_NS_4hashIiEENS_8equal_toIiEELb1EEENS_21__unordered_map_equalIiS8_SD_SB_Lb1EEENS5_IS8_EEED1Ev, symObjAddr: 0x99A44, symBinAddr: 0x10009CAE8, symSize: 0x78 }
  - { offsetInCU: 0x43964, offset: 0x43964, size: 0x8, addend: 0x0, symName: __ZNSt3__112__hash_tableINS_17__hash_value_typeIiNS_12basic_stringIcNS_11char_traitsIcEENS_9allocatorIcEEEEEENS_22__unordered_map_hasherIiS8_NS_4hashIiEENS_8equal_toIiEELb1EEENS_21__unordered_map_equalIiS8_SD_SB_Lb1EEENS5_IS8_EEEC2Ev, symObjAddr: 0x99ABC, symBinAddr: 0x10009CB60, symSize: 0x3E0 }
  - { offsetInCU: 0x43991, offset: 0x43991, size: 0x8, addend: 0x0, symName: __ZNSt3__110unique_ptrIA_PNS_16__hash_node_baseIPNS_11__hash_nodeINS_17__hash_value_typeIiNS_12basic_stringIcNS_11char_traitsIcEENS_9allocatorIcEEEEEEPvEEEENS_25__bucket_list_deallocatorINS7_ISF_EEEEEC1B7v160006ILb1EvEEv, symObjAddr: 0x99E9C, symBinAddr: 0x10009CF40, symSize: 0x78 }
  - { offsetInCU: 0x439C6, offset: 0x439C6, size: 0x8, addend: 0x0, symName: __ZNSt3__117__compressed_pairINS_16__hash_node_baseIPNS_11__hash_nodeINS_17__hash_value_typeIiNS_12basic_stringIcNS_11char_traitsIcEENS_9allocatorIcEEEEEEPvEEEENS7_ISC_EEEC1B7v160006ILb1EvEEv, symObjAddr: 0x99F14, symBinAddr: 0x10009CFB8, symSize: 0x78 }
  - { offsetInCU: 0x439FB, offset: 0x439FB, size: 0x8, addend: 0x0, symName: __ZNSt3__117__compressed_pairImNS_22__unordered_map_hasherIiNS_17__hash_value_typeIiNS_12basic_stringIcNS_11char_traitsIcEENS_9allocatorIcEEEEEENS_4hashIiEENS_8equal_toIiEELb1EEEEC1B7v160006IiNS_18__default_init_tagEEEOT_OT0_, symObjAddr: 0x99F8C, symBinAddr: 0x10009D030, symSize: 0x88 }
  - { offsetInCU: 0x43A53, offset: 0x43A53, size: 0x8, addend: 0x0, symName: __ZNSt3__117__compressed_pairIfNS_21__unordered_map_equalIiNS_17__hash_value_typeIiNS_12basic_stringIcNS_11char_traitsIcEENS_9allocatorIcEEEEEENS_8equal_toIiEENS_4hashIiEELb1EEEEC1B7v160006IfNS_18__default_init_tagEEEOT_OT0_, symObjAddr: 0x9A014, symBinAddr: 0x10009D0B8, symSize: 0x88 }
  - { offsetInCU: 0x43AAB, offset: 0x43AAB, size: 0x8, addend: 0x0, symName: __ZNSt3__110unique_ptrIA_PNS_16__hash_node_baseIPNS_11__hash_nodeINS_17__hash_value_typeIiNS_12basic_stringIcNS_11char_traitsIcEENS_9allocatorIcEEEEEEPvEEEENS_25__bucket_list_deallocatorINS7_ISF_EEEEEC2B7v160006ILb1EvEEv, symObjAddr: 0x9A09C, symBinAddr: 0x10009D140, symSize: 0x268 }
  - { offsetInCU: 0x43AE1, offset: 0x43AE1, size: 0x8, addend: 0x0, symName: __ZNSt3__117__compressed_pairIPPNS_16__hash_node_baseIPNS_11__hash_nodeINS_17__hash_value_typeIiNS_12basic_stringIcNS_11char_traitsIcEENS_9allocatorIcEEEEEEPvEEEENS_25__bucket_list_deallocatorINS7_ISF_EEEEEC1B7v160006INS_16__value_init_tagESM_EEOT_OT0_, symObjAddr: 0x9A304, symBinAddr: 0x10009D3A8, symSize: 0x88 }
  - { offsetInCU: 0x43B39, offset: 0x43B39, size: 0x8, addend: 0x0, symName: __ZNSt3__117__compressed_pairIPPNS_16__hash_node_baseIPNS_11__hash_nodeINS_17__hash_value_typeIiNS_12basic_stringIcNS_11char_traitsIcEENS_9allocatorIcEEEEEEPvEEEENS_25__bucket_list_deallocatorINS7_ISF_EEEEEC2B7v160006INS_16__value_init_tagESM_EEOT_OT0_, symObjAddr: 0x9A38C, symBinAddr: 0x10009D430, symSize: 0x118 }
  - { offsetInCU: 0x43B91, offset: 0x43B91, size: 0x8, addend: 0x0, symName: __ZNSt3__122__compressed_pair_elemIPPNS_16__hash_node_baseIPNS_11__hash_nodeINS_17__hash_value_typeIiNS_12basic_stringIcNS_11char_traitsIcEENS_9allocatorIcEEEEEEPvEEEELi0ELb0EEC2B7v160006ENS_16__value_init_tagE, symObjAddr: 0x9A4A4, symBinAddr: 0x10009D548, symSize: 0xB8 }
  - { offsetInCU: 0x43BC5, offset: 0x43BC5, size: 0x8, addend: 0x0, symName: __ZNSt3__122__compressed_pair_elemINS_25__bucket_list_deallocatorINS_9allocatorIPNS_16__hash_node_baseIPNS_11__hash_nodeINS_17__hash_value_typeIiNS_12basic_stringIcNS_11char_traitsIcEENS2_IcEEEEEEPvEEEEEEEELi1ELb0EEC2B7v160006ENS_16__value_init_tagE, symObjAddr: 0x9A55C, symBinAddr: 0x10009D600, symSize: 0x78 }
  - { offsetInCU: 0x43BF9, offset: 0x43BF9, size: 0x8, addend: 0x0, symName: __ZNSt3__125__bucket_list_deallocatorINS_9allocatorIPNS_16__hash_node_baseIPNS_11__hash_nodeINS_17__hash_value_typeIiNS_12basic_stringIcNS_11char_traitsIcEENS1_IcEEEEEEPvEEEEEEEC1B7v160006Ev, symObjAddr: 0x9A5D4, symBinAddr: 0x10009D678, symSize: 0x78 }
  - { offsetInCU: 0x43C23, offset: 0x43C23, size: 0x8, addend: 0x0, symName: __ZNSt3__125__bucket_list_deallocatorINS_9allocatorIPNS_16__hash_node_baseIPNS_11__hash_nodeINS_17__hash_value_typeIiNS_12basic_stringIcNS_11char_traitsIcEENS1_IcEEEEEEPvEEEEEEEC2B7v160006Ev, symObjAddr: 0x9A64C, symBinAddr: 0x10009D6F0, symSize: 0x2CC }
  - { offsetInCU: 0x43C4E, offset: 0x43C4E, size: 0x8, addend: 0x0, symName: __ZNSt3__117__compressed_pairImNS_9allocatorIPNS_16__hash_node_baseIPNS_11__hash_nodeINS_17__hash_value_typeIiNS_12basic_stringIcNS_11char_traitsIcEENS1_IcEEEEEEPvEEEEEEEC1B7v160006IiNS_18__default_init_tagEEEOT_OT0_, symObjAddr: 0x9A918, symBinAddr: 0x10009D9BC, symSize: 0x88 }
  - { offsetInCU: 0x43CA6, offset: 0x43CA6, size: 0x8, addend: 0x0, symName: __ZNSt3__117__compressed_pairImNS_9allocatorIPNS_16__hash_node_baseIPNS_11__hash_nodeINS_17__hash_value_typeIiNS_12basic_stringIcNS_11char_traitsIcEENS1_IcEEEEEEPvEEEEEEEC2B7v160006IiNS_18__default_init_tagEEEOT_OT0_, symObjAddr: 0x9A9A0, symBinAddr: 0x10009DA44, symSize: 0x140 }
  - { offsetInCU: 0x43CFE, offset: 0x43CFE, size: 0x8, addend: 0x0, symName: __ZNSt3__122__compressed_pair_elemINS_9allocatorIPNS_16__hash_node_baseIPNS_11__hash_nodeINS_17__hash_value_typeIiNS_12basic_stringIcNS_11char_traitsIcEENS1_IcEEEEEEPvEEEEEELi1ELb1EEC2B7v160006ENS_18__default_init_tagE, symObjAddr: 0x9AAE0, symBinAddr: 0x10009DB84, symSize: 0x84 }
  - { offsetInCU: 0x43D32, offset: 0x43D32, size: 0x8, addend: 0x0, symName: __ZNSt3__19allocatorIPNS_16__hash_node_baseIPNS_11__hash_nodeINS_17__hash_value_typeIiNS_12basic_stringIcNS_11char_traitsIcEENS0_IcEEEEEEPvEEEEEC2B7v160006Ev, symObjAddr: 0x9AB64, symBinAddr: 0x10009DC08, symSize: 0x84 }
  - { offsetInCU: 0x43D5C, offset: 0x43D5C, size: 0x8, addend: 0x0, symName: __ZNSt3__116__non_trivial_ifILb1ENS_9allocatorIPNS_16__hash_node_baseIPNS_11__hash_nodeINS_17__hash_value_typeIiNS_12basic_stringIcNS_11char_traitsIcEENS1_IcEEEEEEPvEEEEEEEC2B7v160006Ev, symObjAddr: 0x9ABE8, symBinAddr: 0x10009DC8C, symSize: 0x54 }
  - { offsetInCU: 0x43D86, offset: 0x43D86, size: 0x8, addend: 0x0, symName: __ZNSt3__117__compressed_pairINS_16__hash_node_baseIPNS_11__hash_nodeINS_17__hash_value_typeIiNS_12basic_stringIcNS_11char_traitsIcEENS_9allocatorIcEEEEEEPvEEEENS7_ISC_EEEC2B7v160006ILb1EvEEv, symObjAddr: 0x9AC3C, symBinAddr: 0x10009DCE0, symSize: 0xEC }
  - { offsetInCU: 0x43DBB, offset: 0x43DBB, size: 0x8, addend: 0x0, symName: __ZNSt3__122__compressed_pair_elemINS_16__hash_node_baseIPNS_11__hash_nodeINS_17__hash_value_typeIiNS_12basic_stringIcNS_11char_traitsIcEENS_9allocatorIcEEEEEEPvEEEELi0ELb0EEC2B7v160006ENS_16__value_init_tagE, symObjAddr: 0x9AD28, symBinAddr: 0x10009DDCC, symSize: 0x78 }
  - { offsetInCU: 0x43DEF, offset: 0x43DEF, size: 0x8, addend: 0x0, symName: __ZNSt3__122__compressed_pair_elemINS_9allocatorINS_11__hash_nodeINS_17__hash_value_typeIiNS_12basic_stringIcNS_11char_traitsIcEENS1_IcEEEEEEPvEEEELi1ELb1EEC2B7v160006ENS_16__value_init_tagE, symObjAddr: 0x9ADA0, symBinAddr: 0x10009DE44, symSize: 0x84 }
  - { offsetInCU: 0x43E23, offset: 0x43E23, size: 0x8, addend: 0x0, symName: __ZNSt3__116__hash_node_baseIPNS_11__hash_nodeINS_17__hash_value_typeIiNS_12basic_stringIcNS_11char_traitsIcEENS_9allocatorIcEEEEEEPvEEEC1B7v160006Ev, symObjAddr: 0x9AE24, symBinAddr: 0x10009DEC8, symSize: 0x78 }
  - { offsetInCU: 0x43E4D, offset: 0x43E4D, size: 0x8, addend: 0x0, symName: __ZNSt3__116__hash_node_baseIPNS_11__hash_nodeINS_17__hash_value_typeIiNS_12basic_stringIcNS_11char_traitsIcEENS_9allocatorIcEEEEEEPvEEEC2B7v160006Ev, symObjAddr: 0x9AE9C, symBinAddr: 0x10009DF40, symSize: 0xB8 }
  - { offsetInCU: 0x43E77, offset: 0x43E77, size: 0x8, addend: 0x0, symName: __ZNSt3__19allocatorINS_11__hash_nodeINS_17__hash_value_typeIiNS_12basic_stringIcNS_11char_traitsIcEENS0_IcEEEEEEPvEEEC2B7v160006Ev, symObjAddr: 0x9AF54, symBinAddr: 0x10009DFF8, symSize: 0x84 }
  - { offsetInCU: 0x43EA1, offset: 0x43EA1, size: 0x8, addend: 0x0, symName: __ZNSt3__116__non_trivial_ifILb1ENS_9allocatorINS_11__hash_nodeINS_17__hash_value_typeIiNS_12basic_stringIcNS_11char_traitsIcEENS1_IcEEEEEEPvEEEEEC2B7v160006Ev, symObjAddr: 0x9AFD8, symBinAddr: 0x10009E07C, symSize: 0x54 }
  - { offsetInCU: 0x43ECB, offset: 0x43ECB, size: 0x8, addend: 0x0, symName: __ZNSt3__117__compressed_pairImNS_22__unordered_map_hasherIiNS_17__hash_value_typeIiNS_12basic_stringIcNS_11char_traitsIcEENS_9allocatorIcEEEEEENS_4hashIiEENS_8equal_toIiEELb1EEEEC2B7v160006IiNS_18__default_init_tagEEEOT_OT0_, symObjAddr: 0x9B02C, symBinAddr: 0x10009E0D0, symSize: 0x140 }
  - { offsetInCU: 0x43F23, offset: 0x43F23, size: 0x8, addend: 0x0, symName: __ZNSt3__122__compressed_pair_elemINS_22__unordered_map_hasherIiNS_17__hash_value_typeIiNS_12basic_stringIcNS_11char_traitsIcEENS_9allocatorIcEEEEEENS_4hashIiEENS_8equal_toIiEELb1EEELi1ELb1EEC2B7v160006ENS_18__default_init_tagE, symObjAddr: 0x9B16C, symBinAddr: 0x10009E210, symSize: 0x84 }
  - { offsetInCU: 0x43F57, offset: 0x43F57, size: 0x8, addend: 0x0, symName: __ZNSt3__122__unordered_map_hasherIiNS_17__hash_value_typeIiNS_12basic_stringIcNS_11char_traitsIcEENS_9allocatorIcEEEEEENS_4hashIiEENS_8equal_toIiEELb1EEC2B7v160006Ev, symObjAddr: 0x9B1F0, symBinAddr: 0x10009E294, symSize: 0x54 }
  - { offsetInCU: 0x43F81, offset: 0x43F81, size: 0x8, addend: 0x0, symName: __ZNSt3__117__compressed_pairIfNS_21__unordered_map_equalIiNS_17__hash_value_typeIiNS_12basic_stringIcNS_11char_traitsIcEENS_9allocatorIcEEEEEENS_8equal_toIiEENS_4hashIiEELb1EEEEC2B7v160006IfNS_18__default_init_tagEEEOT_OT0_, symObjAddr: 0x9B244, symBinAddr: 0x10009E2E8, symSize: 0x140 }
  - { offsetInCU: 0x43FD9, offset: 0x43FD9, size: 0x8, addend: 0x0, symName: __ZNSt3__122__compressed_pair_elemINS_21__unordered_map_equalIiNS_17__hash_value_typeIiNS_12basic_stringIcNS_11char_traitsIcEENS_9allocatorIcEEEEEENS_8equal_toIiEENS_4hashIiEELb1EEELi1ELb1EEC2B7v160006ENS_18__default_init_tagE, symObjAddr: 0x9B384, symBinAddr: 0x10009E428, symSize: 0x84 }
  - { offsetInCU: 0x4400D, offset: 0x4400D, size: 0x8, addend: 0x0, symName: __ZNSt3__121__unordered_map_equalIiNS_17__hash_value_typeIiNS_12basic_stringIcNS_11char_traitsIcEENS_9allocatorIcEEEEEENS_8equal_toIiEENS_4hashIiEELb1EEC2B7v160006Ev, symObjAddr: 0x9B408, symBinAddr: 0x10009E4AC, symSize: 0x54 }
  - { offsetInCU: 0x44037, offset: 0x44037, size: 0x8, addend: 0x0, symName: __ZNSt3__112__hash_tableINS_17__hash_value_typeIiNS_12basic_stringIcNS_11char_traitsIcEENS_9allocatorIcEEEEEENS_22__unordered_map_hasherIiS8_NS_4hashIiEENS_8equal_toIiEELb1EEENS_21__unordered_map_equalIiS8_SD_SB_Lb1EEENS5_IS8_EEE15__insert_uniqueB7v160006ERKNS_4pairIKiS7_EE, symObjAddr: 0x9B45C, symBinAddr: 0x10009E500, symSize: 0x34C }
  - { offsetInCU: 0x4406E, offset: 0x4406E, size: 0x8, addend: 0x0, symName: __ZNSt3__112__hash_tableINS_17__hash_value_typeIiNS_12basic_stringIcNS_11char_traitsIcEENS_9allocatorIcEEEEEENS_22__unordered_map_hasherIiS8_NS_4hashIiEENS_8equal_toIiEELb1EEENS_21__unordered_map_equalIiS8_SD_SB_Lb1EEENS5_IS8_EEE25__emplace_unique_key_argsIiJRKNS_4pairIKiS7_EEEEENSK_INS_15__hash_iteratorIPNS_11__hash_nodeIS8_PvEEEEbEERKT_DpOT0_, symObjAddr: 0x9B7A8, symBinAddr: 0x10009E84C, symSize: 0x1CBC }
  - { offsetInCU: 0x44157, offset: 0x44157, size: 0x8, addend: 0x0, symName: __ZNSt3__122__hash_key_value_typesINS_17__hash_value_typeIiNS_12basic_stringIcNS_11char_traitsIcEENS_9allocatorIcEEEEEEE9__get_keyB7v160006ERKNS_4pairIKiS7_EE, symObjAddr: 0x9D464, symBinAddr: 0x1000A0508, symSize: 0x68 }
  - { offsetInCU: 0x4417A, offset: 0x4417A, size: 0x8, addend: 0x0, symName: __ZNSt3__112__hash_tableINS_17__hash_value_typeIiNS_12basic_stringIcNS_11char_traitsIcEENS_9allocatorIcEEEEEENS_22__unordered_map_hasherIiS8_NS_4hashIiEENS_8equal_toIiEELb1EEENS_21__unordered_map_equalIiS8_SD_SB_Lb1EEENS5_IS8_EEE13hash_functionB7v160006Ev, symObjAddr: 0x9D4CC, symBinAddr: 0x1000A0570, symSize: 0xE4 }
  - { offsetInCU: 0x441A0, offset: 0x441A0, size: 0x8, addend: 0x0, symName: __ZNKSt3__122__unordered_map_hasherIiNS_17__hash_value_typeIiNS_12basic_stringIcNS_11char_traitsIcEENS_9allocatorIcEEEEEENS_4hashIiEENS_8equal_toIiEELb1EEclB7v160006ERKi, symObjAddr: 0x9D5B0, symBinAddr: 0x1000A0654, symSize: 0xF0 }
  - { offsetInCU: 0x441D5, offset: 0x441D5, size: 0x8, addend: 0x0, symName: __ZNKSt3__112__hash_tableINS_17__hash_value_typeIiNS_12basic_stringIcNS_11char_traitsIcEENS_9allocatorIcEEEEEENS_22__unordered_map_hasherIiS8_NS_4hashIiEENS_8equal_toIiEELb1EEENS_21__unordered_map_equalIiS8_SD_SB_Lb1EEENS5_IS8_EEE12bucket_countB7v160006Ev, symObjAddr: 0x9D6A0, symBinAddr: 0x1000A0744, symSize: 0xFC }
  - { offsetInCU: 0x441FB, offset: 0x441FB, size: 0x8, addend: 0x0, symName: __ZNKSt3__110unique_ptrIA_PNS_16__hash_node_baseIPNS_11__hash_nodeINS_17__hash_value_typeIiNS_12basic_stringIcNS_11char_traitsIcEENS_9allocatorIcEEEEEEPvEEEENS_25__bucket_list_deallocatorINS7_ISF_EEEEEixB7v160006Em, symObjAddr: 0x9D79C, symBinAddr: 0x1000A0840, symSize: 0x25C }
  - { offsetInCU: 0x44230, offset: 0x44230, size: 0x8, addend: 0x0, symName: __ZNKSt3__116__hash_node_baseIPNS_11__hash_nodeINS_17__hash_value_typeIiNS_12basic_stringIcNS_11char_traitsIcEENS_9allocatorIcEEEEEEPvEEE6__hashB7v160006Ev, symObjAddr: 0x9D9F8, symBinAddr: 0x1000A0A9C, symSize: 0x180 }
  - { offsetInCU: 0x44256, offset: 0x44256, size: 0x8, addend: 0x0, symName: __ZNSt3__112__hash_tableINS_17__hash_value_typeIiNS_12basic_stringIcNS_11char_traitsIcEENS_9allocatorIcEEEEEENS_22__unordered_map_hasherIiS8_NS_4hashIiEENS_8equal_toIiEELb1EEENS_21__unordered_map_equalIiS8_SD_SB_Lb1EEENS5_IS8_EEE6key_eqB7v160006Ev, symObjAddr: 0x9DB78, symBinAddr: 0x1000A0C1C, symSize: 0xE4 }
  - { offsetInCU: 0x4427C, offset: 0x4427C, size: 0x8, addend: 0x0, symName: __ZNKSt3__121__unordered_map_equalIiNS_17__hash_value_typeIiNS_12basic_stringIcNS_11char_traitsIcEENS_9allocatorIcEEEEEENS_8equal_toIiEENS_4hashIiEELb1EEclB7v160006ERKS8_RKi, symObjAddr: 0x9DC5C, symBinAddr: 0x1000A0D00, symSize: 0x190 }
  - { offsetInCU: 0x442C0, offset: 0x442C0, size: 0x8, addend: 0x0, symName: __ZNSt3__116__hash_node_baseIPNS_11__hash_nodeINS_17__hash_value_typeIiNS_12basic_stringIcNS_11char_traitsIcEENS_9allocatorIcEEEEEEPvEEE8__upcastB7v160006Ev, symObjAddr: 0x9DDEC, symBinAddr: 0x1000A0E90, symSize: 0xF8 }
  - { offsetInCU: 0x442E6, offset: 0x442E6, size: 0x8, addend: 0x0, symName: __ZNSt3__112__hash_tableINS_17__hash_value_typeIiNS_12basic_stringIcNS_11char_traitsIcEENS_9allocatorIcEEEEEENS_22__unordered_map_hasherIiS8_NS_4hashIiEENS_8equal_toIiEELb1EEENS_21__unordered_map_equalIiS8_SD_SB_Lb1EEENS5_IS8_EEE21__construct_node_hashIRKNS_4pairIKiS7_EEJEEENS_10unique_ptrINS_11__hash_nodeIS8_PvEENS_22__hash_node_destructorINS5_ISS_EEEEEEmOT_DpOT0_, symObjAddr: 0x9DEE4, symBinAddr: 0x1000A0F88, symSize: 0x8E0 }
  - { offsetInCU: 0x4435E, offset: 0x4435E, size: 0x8, addend: 0x0, symName: __ZNSt3__112__hash_tableINS_17__hash_value_typeIiNS_12basic_stringIcNS_11char_traitsIcEENS_9allocatorIcEEEEEENS_22__unordered_map_hasherIiS8_NS_4hashIiEENS_8equal_toIiEELb1EEENS_21__unordered_map_equalIiS8_SD_SB_Lb1EEENS5_IS8_EEE4sizeB7v160006Ev, symObjAddr: 0x9E7C4, symBinAddr: 0x1000A1868, symSize: 0x100 }
  - { offsetInCU: 0x44384, offset: 0x44384, size: 0x8, addend: 0x0, symName: __ZNSt3__112__hash_tableINS_17__hash_value_typeIiNS_12basic_stringIcNS_11char_traitsIcEENS_9allocatorIcEEEEEENS_22__unordered_map_hasherIiS8_NS_4hashIiEENS_8equal_toIiEELb1EEENS_21__unordered_map_equalIiS8_SD_SB_Lb1EEENS5_IS8_EEE15max_load_factorB7v160006Ev, symObjAddr: 0x9E8C4, symBinAddr: 0x1000A1968, symSize: 0x100 }
  - { offsetInCU: 0x443AA, offset: 0x443AA, size: 0x8, addend: 0x0, symName: __ZNSt3__112__hash_tableINS_17__hash_value_typeIiNS_12basic_stringIcNS_11char_traitsIcEENS_9allocatorIcEEEEEENS_22__unordered_map_hasherIiS8_NS_4hashIiEENS_8equal_toIiEELb1EEENS_21__unordered_map_equalIiS8_SD_SB_Lb1EEENS5_IS8_EEE15__rehash_uniqueB7v160006Em, symObjAddr: 0x9E9C4, symBinAddr: 0x1000A1A68, symSize: 0x74 }
  - { offsetInCU: 0x443DF, offset: 0x443DF, size: 0x8, addend: 0x0, symName: __ZNSt3__117__compressed_pairINS_16__hash_node_baseIPNS_11__hash_nodeINS_17__hash_value_typeIiNS_12basic_stringIcNS_11char_traitsIcEENS_9allocatorIcEEEEEEPvEEEENS7_ISC_EEE5firstB7v160006Ev, symObjAddr: 0x9EA38, symBinAddr: 0x1000A1ADC, symSize: 0x124 }
  - { offsetInCU: 0x44405, offset: 0x44405, size: 0x8, addend: 0x0, symName: __ZNSt3__116__hash_node_baseIPNS_11__hash_nodeINS_17__hash_value_typeIiNS_12basic_stringIcNS_11char_traitsIcEENS_9allocatorIcEEEEEEPvEEE5__ptrB7v160006Ev, symObjAddr: 0x9EB5C, symBinAddr: 0x1000A1C00, symSize: 0xB0 }
  - { offsetInCU: 0x4442B, offset: 0x4442B, size: 0x8, addend: 0x0, symName: __ZNKSt3__110unique_ptrINS_11__hash_nodeINS_17__hash_value_typeIiNS_12basic_stringIcNS_11char_traitsIcEENS_9allocatorIcEEEEEEPvEENS_22__hash_node_destructorINS6_ISB_EEEEEptB7v160006Ev, symObjAddr: 0x9EC0C, symBinAddr: 0x1000A1CB0, symSize: 0x13C }
  - { offsetInCU: 0x44451, offset: 0x44451, size: 0x8, addend: 0x0, symName: __ZNKSt3__110unique_ptrINS_11__hash_nodeINS_17__hash_value_typeIiNS_12basic_stringIcNS_11char_traitsIcEENS_9allocatorIcEEEEEEPvEENS_22__hash_node_destructorINS6_ISB_EEEEE3getB7v160006Ev, symObjAddr: 0x9ED48, symBinAddr: 0x1000A1DEC, symSize: 0x13C }
  - { offsetInCU: 0x44477, offset: 0x44477, size: 0x8, addend: 0x0, symName: __ZNSt3__110unique_ptrINS_11__hash_nodeINS_17__hash_value_typeIiNS_12basic_stringIcNS_11char_traitsIcEENS_9allocatorIcEEEEEEPvEENS_22__hash_node_destructorINS6_ISB_EEEEE7releaseB7v160006Ev, symObjAddr: 0x9EE84, symBinAddr: 0x1000A1F28, symSize: 0x20C }
  - { offsetInCU: 0x444AC, offset: 0x444AC, size: 0x8, addend: 0x0, symName: __ZNSt3__110unique_ptrINS_11__hash_nodeINS_17__hash_value_typeIiNS_12basic_stringIcNS_11char_traitsIcEENS_9allocatorIcEEEEEEPvEENS_22__hash_node_destructorINS6_ISB_EEEEED1B7v160006Ev, symObjAddr: 0x9F090, symBinAddr: 0x1000A2134, symSize: 0x78 }
  - { offsetInCU: 0x444D6, offset: 0x444D6, size: 0x8, addend: 0x0, symName: __ZNSt3__115__hash_iteratorIPNS_11__hash_nodeINS_17__hash_value_typeIiNS_12basic_stringIcNS_11char_traitsIcEENS_9allocatorIcEEEEEEPvEEEC1B7v160006EPNS_16__hash_node_baseISC_EEPKv, symObjAddr: 0x9F108, symBinAddr: 0x1000A21AC, symSize: 0x88 }
  - { offsetInCU: 0x44524, offset: 0x44524, size: 0x8, addend: 0x0, symName: __ZNSt3__14pairINS_15__hash_iteratorIPNS_11__hash_nodeINS_17__hash_value_typeIiNS_12basic_stringIcNS_11char_traitsIcEENS_9allocatorIcEEEEEEPvEEEEbEC1B7v160006ISE_RbLSB_0EEEOT_OT0_, symObjAddr: 0x9F190, symBinAddr: 0x1000A2234, symSize: 0x88 }
  - { offsetInCU: 0x44582, offset: 0x44582, size: 0x8, addend: 0x0, symName: __ZNSt3__117__compressed_pairImNS_22__unordered_map_hasherIiNS_17__hash_value_typeIiNS_12basic_stringIcNS_11char_traitsIcEENS_9allocatorIcEEEEEENS_4hashIiEENS_8equal_toIiEELb1EEEE6secondB7v160006Ev, symObjAddr: 0x9F218, symBinAddr: 0x1000A22BC, symSize: 0x108 }
  - { offsetInCU: 0x445A8, offset: 0x445A8, size: 0x8, addend: 0x0, symName: __ZNSt3__122__compressed_pair_elemINS_22__unordered_map_hasherIiNS_17__hash_value_typeIiNS_12basic_stringIcNS_11char_traitsIcEENS_9allocatorIcEEEEEENS_4hashIiEENS_8equal_toIiEELb1EEELi1ELb1EE5__getB7v160006Ev, symObjAddr: 0x9F320, symBinAddr: 0x1000A23C4, symSize: 0x74 }
  - { offsetInCU: 0x445CE, offset: 0x445CE, size: 0x8, addend: 0x0, symName: __ZNKSt3__14hashIiEclB7v160006Ei, symObjAddr: 0x9F394, symBinAddr: 0x1000A2438, symSize: 0x50 }
  - { offsetInCU: 0x44603, offset: 0x44603, size: 0x8, addend: 0x0, symName: __ZNKSt3__110unique_ptrIA_PNS_16__hash_node_baseIPNS_11__hash_nodeINS_17__hash_value_typeIiNS_12basic_stringIcNS_11char_traitsIcEENS_9allocatorIcEEEEEEPvEEEENS_25__bucket_list_deallocatorINS7_ISF_EEEEE11get_deleterB7v160006Ev, symObjAddr: 0x9F3E4, symBinAddr: 0x1000A2488, symSize: 0xF8 }
  - { offsetInCU: 0x44629, offset: 0x44629, size: 0x8, addend: 0x0, symName: __ZNKSt3__125__bucket_list_deallocatorINS_9allocatorIPNS_16__hash_node_baseIPNS_11__hash_nodeINS_17__hash_value_typeIiNS_12basic_stringIcNS_11char_traitsIcEENS1_IcEEEEEEPvEEEEEEE4sizeB7v160006Ev, symObjAddr: 0x9F4DC, symBinAddr: 0x1000A2580, symSize: 0x13C }
  - { offsetInCU: 0x4464F, offset: 0x4464F, size: 0x8, addend: 0x0, symName: __ZNKSt3__117__compressed_pairIPPNS_16__hash_node_baseIPNS_11__hash_nodeINS_17__hash_value_typeIiNS_12basic_stringIcNS_11char_traitsIcEENS_9allocatorIcEEEEEEPvEEEENS_25__bucket_list_deallocatorINS7_ISF_EEEEE6secondB7v160006Ev, symObjAddr: 0x9F618, symBinAddr: 0x1000A26BC, symSize: 0x12C }
  - { offsetInCU: 0x44675, offset: 0x44675, size: 0x8, addend: 0x0, symName: __ZNKSt3__122__compressed_pair_elemINS_25__bucket_list_deallocatorINS_9allocatorIPNS_16__hash_node_baseIPNS_11__hash_nodeINS_17__hash_value_typeIiNS_12basic_stringIcNS_11char_traitsIcEENS2_IcEEEEEEPvEEEEEEEELi1ELb0EE5__getB7v160006Ev, symObjAddr: 0x9F744, symBinAddr: 0x1000A27E8, symSize: 0xAC }
  - { offsetInCU: 0x4469B, offset: 0x4469B, size: 0x8, addend: 0x0, symName: __ZNKSt3__117__compressed_pairImNS_9allocatorIPNS_16__hash_node_baseIPNS_11__hash_nodeINS_17__hash_value_typeIiNS_12basic_stringIcNS_11char_traitsIcEENS1_IcEEEEEEPvEEEEEEE5firstB7v160006Ev, symObjAddr: 0x9F7F0, symBinAddr: 0x1000A2894, symSize: 0x124 }
  - { offsetInCU: 0x446C1, offset: 0x446C1, size: 0x8, addend: 0x0, symName: __ZNKSt3__117__compressed_pairIPPNS_16__hash_node_baseIPNS_11__hash_nodeINS_17__hash_value_typeIiNS_12basic_stringIcNS_11char_traitsIcEENS_9allocatorIcEEEEEEPvEEEENS_25__bucket_list_deallocatorINS7_ISF_EEEEE5firstB7v160006Ev, symObjAddr: 0x9F914, symBinAddr: 0x1000A29B8, symSize: 0x124 }
  - { offsetInCU: 0x446E7, offset: 0x446E7, size: 0x8, addend: 0x0, symName: __ZNKSt3__122__compressed_pair_elemIPPNS_16__hash_node_baseIPNS_11__hash_nodeINS_17__hash_value_typeIiNS_12basic_stringIcNS_11char_traitsIcEENS_9allocatorIcEEEEEEPvEEEELi0ELb0EE5__getB7v160006Ev, symObjAddr: 0x9FA38, symBinAddr: 0x1000A2ADC, symSize: 0xAC }
  - { offsetInCU: 0x4470D, offset: 0x4470D, size: 0x8, addend: 0x0, symName: __ZNSt3__117__compressed_pairIfNS_21__unordered_map_equalIiNS_17__hash_value_typeIiNS_12basic_stringIcNS_11char_traitsIcEENS_9allocatorIcEEEEEENS_8equal_toIiEENS_4hashIiEELb1EEEE6secondB7v160006Ev, symObjAddr: 0x9FAE4, symBinAddr: 0x1000A2B88, symSize: 0x108 }
  - { offsetInCU: 0x44733, offset: 0x44733, size: 0x8, addend: 0x0, symName: __ZNSt3__122__compressed_pair_elemINS_21__unordered_map_equalIiNS_17__hash_value_typeIiNS_12basic_stringIcNS_11char_traitsIcEENS_9allocatorIcEEEEEENS_8equal_toIiEENS_4hashIiEELb1EEELi1ELb1EE5__getB7v160006Ev, symObjAddr: 0x9FBEC, symBinAddr: 0x1000A2C90, symSize: 0x74 }
  - { offsetInCU: 0x44759, offset: 0x44759, size: 0x8, addend: 0x0, symName: __ZNKSt3__18equal_toIiEclB7v160006ERKiS3_, symObjAddr: 0x9FC60, symBinAddr: 0x1000A2D04, symSize: 0x13C }
  - { offsetInCU: 0x4479D, offset: 0x4479D, size: 0x8, addend: 0x0, symName: __ZNKSt3__117__hash_value_typeIiNS_12basic_stringIcNS_11char_traitsIcEENS_9allocatorIcEEEEE11__get_valueB7v160006Ev, symObjAddr: 0x9FD9C, symBinAddr: 0x1000A2E40, symSize: 0xB4 }
  - { offsetInCU: 0x447C3, offset: 0x447C3, size: 0x8, addend: 0x0, symName: __ZNSt3__114pointer_traitsIPNS_16__hash_node_baseIPNS_11__hash_nodeINS_17__hash_value_typeIiNS_12basic_stringIcNS_11char_traitsIcEENS_9allocatorIcEEEEEEPvEEEEE10pointer_toB7v160006ERSE_, symObjAddr: 0x9FE88, symBinAddr: 0x1000A2F2C, symSize: 0x14 }
  - { offsetInCU: 0x447E6, offset: 0x447E6, size: 0x8, addend: 0x0, symName: __ZNSt3__112__hash_tableINS_17__hash_value_typeIiNS_12basic_stringIcNS_11char_traitsIcEENS_9allocatorIcEEEEEENS_22__unordered_map_hasherIiS8_NS_4hashIiEENS_8equal_toIiEELb1EEENS_21__unordered_map_equalIiS8_SD_SB_Lb1EEENS5_IS8_EEE12__node_allocB7v160006Ev, symObjAddr: 0x9FE9C, symBinAddr: 0x1000A2F40, symSize: 0xE4 }
  - { offsetInCU: 0x4480C, offset: 0x4480C, size: 0x8, addend: 0x0, symName: __ZNSt3__116allocator_traitsINS_9allocatorINS_11__hash_nodeINS_17__hash_value_typeIiNS_12basic_stringIcNS_11char_traitsIcEENS1_IcEEEEEEPvEEEEE8allocateB7v160006ERSC_m, symObjAddr: 0x9FF80, symBinAddr: 0x1000A3024, symSize: 0x2C }
  - { offsetInCU: 0x4483F, offset: 0x4483F, size: 0x8, addend: 0x0, symName: __ZNSt3__122__hash_node_destructorINS_9allocatorINS_11__hash_nodeINS_17__hash_value_typeIiNS_12basic_stringIcNS_11char_traitsIcEENS1_IcEEEEEEPvEEEEEC1B7v160006ERSC_b, symObjAddr: 0x9FFAC, symBinAddr: 0x1000A3050, symSize: 0xCC }
  - { offsetInCU: 0x4488D, offset: 0x4488D, size: 0x8, addend: 0x0, symName: __ZNSt3__110unique_ptrINS_11__hash_nodeINS_17__hash_value_typeIiNS_12basic_stringIcNS_11char_traitsIcEENS_9allocatorIcEEEEEEPvEENS_22__hash_node_destructorINS6_ISB_EEEEEC1B7v160006ILb1EvEEPSB_NS_16__dependent_typeINS_27__unique_ptr_deleter_sfinaeISE_EEXT_EE20__good_rval_ref_typeE, symObjAddr: 0xA0078, symBinAddr: 0x1000A311C, symSize: 0x88 }
  - { offsetInCU: 0x448DE, offset: 0x448DE, size: 0x8, addend: 0x0, symName: __ZNSt3__116allocator_traitsINS_9allocatorINS_11__hash_nodeINS_17__hash_value_typeIiNS_12basic_stringIcNS_11char_traitsIcEENS1_IcEEEEEEPvEEEEE9constructB7v160006INS_4pairIKiS8_EEJRKSH_EvEEvRSC_PT_DpOT0_, symObjAddr: 0xA0100, symBinAddr: 0x1000A31A4, symSize: 0x8C }
  - { offsetInCU: 0x44935, offset: 0x44935, size: 0x8, addend: 0x0, symName: __ZNSt3__122__hash_key_value_typesINS_17__hash_value_typeIiNS_12basic_stringIcNS_11char_traitsIcEENS_9allocatorIcEEEEEEE9__get_ptrB7v160006ERS8_, symObjAddr: 0xA018C, symBinAddr: 0x1000A3230, symSize: 0x50 }
  - { offsetInCU: 0x44958, offset: 0x44958, size: 0x8, addend: 0x0, symName: __ZNSt3__110unique_ptrINS_11__hash_nodeINS_17__hash_value_typeIiNS_12basic_stringIcNS_11char_traitsIcEENS_9allocatorIcEEEEEEPvEENS_22__hash_node_destructorINS6_ISB_EEEEE11get_deleterB7v160006Ev, symObjAddr: 0xA01DC, symBinAddr: 0x1000A3280, symSize: 0xF8 }
  - { offsetInCU: 0x4497E, offset: 0x4497E, size: 0x8, addend: 0x0, symName: __ZNSt3__117__compressed_pairINS_16__hash_node_baseIPNS_11__hash_nodeINS_17__hash_value_typeIiNS_12basic_stringIcNS_11char_traitsIcEENS_9allocatorIcEEEEEEPvEEEENS7_ISC_EEE6secondB7v160006Ev, symObjAddr: 0xA02D4, symBinAddr: 0x1000A3378, symSize: 0x108 }
  - { offsetInCU: 0x449A4, offset: 0x449A4, size: 0x8, addend: 0x0, symName: __ZNSt3__122__compressed_pair_elemINS_9allocatorINS_11__hash_nodeINS_17__hash_value_typeIiNS_12basic_stringIcNS_11char_traitsIcEENS1_IcEEEEEEPvEEEELi1ELb1EE5__getB7v160006Ev, symObjAddr: 0xA03DC, symBinAddr: 0x1000A3480, symSize: 0x74 }
  - { offsetInCU: 0x449CA, offset: 0x449CA, size: 0x8, addend: 0x0, symName: __ZNSt3__19allocatorINS_11__hash_nodeINS_17__hash_value_typeIiNS_12basic_stringIcNS_11char_traitsIcEENS0_IcEEEEEEPvEEE8allocateB7v160006Em, symObjAddr: 0xA0450, symBinAddr: 0x1000A34F4, symSize: 0xD0 }
  - { offsetInCU: 0x44A09, offset: 0x44A09, size: 0x8, addend: 0x0, symName: __ZNSt3__116allocator_traitsINS_9allocatorINS_11__hash_nodeINS_17__hash_value_typeIiNS_12basic_stringIcNS_11char_traitsIcEENS1_IcEEEEEEPvEEEEE8max_sizeB7v160006ISC_vEEmRKSC_, symObjAddr: 0xA0520, symBinAddr: 0x1000A35C4, symSize: 0x24 }
  - { offsetInCU: 0x44A37, offset: 0x44A37, size: 0x8, addend: 0x0, symName: __ZNKSt3__19allocatorINS_11__hash_nodeINS_17__hash_value_typeIiNS_12basic_stringIcNS_11char_traitsIcEENS0_IcEEEEEEPvEEE8max_sizeB7v160006Ev, symObjAddr: 0xA0544, symBinAddr: 0x1000A35E8, symSize: 0x50 }
  - { offsetInCU: 0x44A5D, offset: 0x44A5D, size: 0x8, addend: 0x0, symName: __ZNSt3__122__hash_node_destructorINS_9allocatorINS_11__hash_nodeINS_17__hash_value_typeIiNS_12basic_stringIcNS_11char_traitsIcEENS1_IcEEEEEEPvEEEEEC2B7v160006ERSC_b, symObjAddr: 0xA0594, symBinAddr: 0x1000A3638, symSize: 0x1A0 }
  - { offsetInCU: 0x44AA5, offset: 0x44AA5, size: 0x8, addend: 0x0, symName: __ZNSt3__110unique_ptrINS_11__hash_nodeINS_17__hash_value_typeIiNS_12basic_stringIcNS_11char_traitsIcEENS_9allocatorIcEEEEEEPvEENS_22__hash_node_destructorINS6_ISB_EEEEEC2B7v160006ILb1EvEEPSB_NS_16__dependent_typeINS_27__unique_ptr_deleter_sfinaeISE_EEXT_EE20__good_rval_ref_typeE, symObjAddr: 0xA0734, symBinAddr: 0x1000A37D8, symSize: 0x2BC }
  - { offsetInCU: 0x44AFC, offset: 0x44AFC, size: 0x8, addend: 0x0, symName: __ZNSt3__117__compressed_pairIPNS_11__hash_nodeINS_17__hash_value_typeIiNS_12basic_stringIcNS_11char_traitsIcEENS_9allocatorIcEEEEEEPvEENS_22__hash_node_destructorINS6_ISB_EEEEEC1B7v160006IRSC_SF_EEOT_OT0_, symObjAddr: 0xA09F0, symBinAddr: 0x1000A3A94, symSize: 0x88 }
  - { offsetInCU: 0x44B54, offset: 0x44B54, size: 0x8, addend: 0x0, symName: __ZNSt3__117__compressed_pairIPNS_11__hash_nodeINS_17__hash_value_typeIiNS_12basic_stringIcNS_11char_traitsIcEENS_9allocatorIcEEEEEEPvEENS_22__hash_node_destructorINS6_ISB_EEEEEC2B7v160006IRSC_SF_EEOT_OT0_, symObjAddr: 0xA0A78, symBinAddr: 0x1000A3B1C, symSize: 0x1B4 }
  - { offsetInCU: 0x44BAC, offset: 0x44BAC, size: 0x8, addend: 0x0, symName: __ZNSt3__122__compressed_pair_elemIPNS_11__hash_nodeINS_17__hash_value_typeIiNS_12basic_stringIcNS_11char_traitsIcEENS_9allocatorIcEEEEEEPvEELi0ELb0EEC2B7v160006IRSC_vEEOT_, symObjAddr: 0xA0C2C, symBinAddr: 0x1000A3CD0, symSize: 0x144 }
  - { offsetInCU: 0x44BEE, offset: 0x44BEE, size: 0x8, addend: 0x0, symName: __ZNSt3__122__compressed_pair_elemINS_22__hash_node_destructorINS_9allocatorINS_11__hash_nodeINS_17__hash_value_typeIiNS_12basic_stringIcNS_11char_traitsIcEENS2_IcEEEEEEPvEEEEEELi1ELb0EEC2B7v160006ISE_vEEOT_, symObjAddr: 0xA0D70, symBinAddr: 0x1000A3E14, symSize: 0x84 }
  - { offsetInCU: 0x44C30, offset: 0x44C30, size: 0x8, addend: 0x0, symName: __ZNSt3__19allocatorINS_11__hash_nodeINS_17__hash_value_typeIiNS_12basic_stringIcNS_11char_traitsIcEENS0_IcEEEEEEPvEEE9constructB7v160006INS_4pairIKiS7_EEJRKSF_EEEvPT_DpOT0_, symObjAddr: 0xA0DF4, symBinAddr: 0x1000A3E98, symSize: 0xEC }
  - { offsetInCU: 0x44C86, offset: 0x44C86, size: 0x8, addend: 0x0, symName: __ZNSt3__14pairIKiNS_12basic_stringIcNS_11char_traitsIcEENS_9allocatorIcEEEEEC1ERKS8_, symObjAddr: 0xA0EE0, symBinAddr: 0x1000A3F84, symSize: 0x80 }
  - { offsetInCU: 0x44CBA, offset: 0x44CBA, size: 0x8, addend: 0x0, symName: __ZNSt3__14pairIKiNS_12basic_stringIcNS_11char_traitsIcEENS_9allocatorIcEEEEEC2ERKS8_, symObjAddr: 0xA0F60, symBinAddr: 0x1000A4004, symSize: 0x1DC }
  - { offsetInCU: 0x44CEE, offset: 0x44CEE, size: 0x8, addend: 0x0, symName: __ZNSt3__117__hash_value_typeIiNS_12basic_stringIcNS_11char_traitsIcEENS_9allocatorIcEEEEE11__get_valueB7v160006Ev, symObjAddr: 0xA113C, symBinAddr: 0x1000A41E0, symSize: 0xB4 }
  - { offsetInCU: 0x44D14, offset: 0x44D14, size: 0x8, addend: 0x0, symName: __ZNSt3__117__compressed_pairIPNS_11__hash_nodeINS_17__hash_value_typeIiNS_12basic_stringIcNS_11char_traitsIcEENS_9allocatorIcEEEEEEPvEENS_22__hash_node_destructorINS6_ISB_EEEEE6secondB7v160006Ev, symObjAddr: 0xA1228, symBinAddr: 0x1000A42CC, symSize: 0x12C }
  - { offsetInCU: 0x44D3A, offset: 0x44D3A, size: 0x8, addend: 0x0, symName: __ZNSt3__122__compressed_pair_elemINS_22__hash_node_destructorINS_9allocatorINS_11__hash_nodeINS_17__hash_value_typeIiNS_12basic_stringIcNS_11char_traitsIcEENS2_IcEEEEEEPvEEEEEELi1ELb0EE5__getB7v160006Ev, symObjAddr: 0xA1354, symBinAddr: 0x1000A43F8, symSize: 0xAC }
  - { offsetInCU: 0x44D60, offset: 0x44D60, size: 0x8, addend: 0x0, symName: __ZNSt3__117__compressed_pairImNS_22__unordered_map_hasherIiNS_17__hash_value_typeIiNS_12basic_stringIcNS_11char_traitsIcEENS_9allocatorIcEEEEEENS_4hashIiEENS_8equal_toIiEELb1EEEE5firstB7v160006Ev, symObjAddr: 0xA1400, symBinAddr: 0x1000A44A4, symSize: 0x124 }
  - { offsetInCU: 0x44D86, offset: 0x44D86, size: 0x8, addend: 0x0, symName: __ZNSt3__117__compressed_pairIfNS_21__unordered_map_equalIiNS_17__hash_value_typeIiNS_12basic_stringIcNS_11char_traitsIcEENS_9allocatorIcEEEEEENS_8equal_toIiEENS_4hashIiEELb1EEEE5firstB7v160006Ev, symObjAddr: 0xA1524, symBinAddr: 0x1000A45C8, symSize: 0x124 }
  - { offsetInCU: 0x44DAC, offset: 0x44DAC, size: 0x8, addend: 0x0, symName: __ZNSt3__112__hash_tableINS_17__hash_value_typeIiNS_12basic_stringIcNS_11char_traitsIcEENS_9allocatorIcEEEEEENS_22__unordered_map_hasherIiS8_NS_4hashIiEENS_8equal_toIiEELb1EEENS_21__unordered_map_equalIiS8_SD_SB_Lb1EEENS5_IS8_EEE8__rehashILb1EEEvm, symObjAddr: 0xA1648, symBinAddr: 0x1000A46EC, symSize: 0x9CC }
  - { offsetInCU: 0x44E02, offset: 0x44E02, size: 0x8, addend: 0x0, symName: __ZNSt3__112__hash_tableINS_17__hash_value_typeIiNS_12basic_stringIcNS_11char_traitsIcEENS_9allocatorIcEEEEEENS_22__unordered_map_hasherIiS8_NS_4hashIiEENS_8equal_toIiEELb1EEENS_21__unordered_map_equalIiS8_SD_SB_Lb1EEENS5_IS8_EEE11__do_rehashILb1EEEvm, symObjAddr: 0xA2014, symBinAddr: 0x1000A50B8, symSize: 0x108C }
  - { offsetInCU: 0x44EE7, offset: 0x44EE7, size: 0x8, addend: 0x0, symName: __ZNSt3__110unique_ptrIA_PNS_16__hash_node_baseIPNS_11__hash_nodeINS_17__hash_value_typeIiNS_12basic_stringIcNS_11char_traitsIcEENS_9allocatorIcEEEEEEPvEEEENS_25__bucket_list_deallocatorINS7_ISF_EEEEE11get_deleterB7v160006Ev, symObjAddr: 0xA30B0, symBinAddr: 0x1000A6154, symSize: 0xF8 }
  - { offsetInCU: 0x44F0D, offset: 0x44F0D, size: 0x8, addend: 0x0, symName: __ZNSt3__125__bucket_list_deallocatorINS_9allocatorIPNS_16__hash_node_baseIPNS_11__hash_nodeINS_17__hash_value_typeIiNS_12basic_stringIcNS_11char_traitsIcEENS1_IcEEEEEEPvEEEEEEE7__allocB7v160006Ev, symObjAddr: 0xA31A8, symBinAddr: 0x1000A624C, symSize: 0xDC }
  - { offsetInCU: 0x44F33, offset: 0x44F33, size: 0x8, addend: 0x0, symName: __ZNSt3__110unique_ptrIA_PNS_16__hash_node_baseIPNS_11__hash_nodeINS_17__hash_value_typeIiNS_12basic_stringIcNS_11char_traitsIcEENS_9allocatorIcEEEEEEPvEEEENS_25__bucket_list_deallocatorINS7_ISF_EEEEE5resetB7v160006IPSF_EENS_9enable_ifIXsr28_CheckArrayPointerConversionIT_EE5valueEvE4typeESO_, symObjAddr: 0xA3284, symBinAddr: 0x1000A6328, symSize: 0x2CC }
  - { offsetInCU: 0x44F80, offset: 0x44F80, size: 0x8, addend: 0x0, symName: __ZNSt3__116allocator_traitsINS_9allocatorIPNS_16__hash_node_baseIPNS_11__hash_nodeINS_17__hash_value_typeIiNS_12basic_stringIcNS_11char_traitsIcEENS1_IcEEEEEEPvEEEEEEE8allocateB7v160006ERSG_m, symObjAddr: 0xA3550, symBinAddr: 0x1000A65F4, symSize: 0x2C }
  - { offsetInCU: 0x44FB3, offset: 0x44FB3, size: 0x8, addend: 0x0, symName: __ZNSt3__125__bucket_list_deallocatorINS_9allocatorIPNS_16__hash_node_baseIPNS_11__hash_nodeINS_17__hash_value_typeIiNS_12basic_stringIcNS_11char_traitsIcEENS1_IcEEEEEEPvEEEEEEE4sizeB7v160006Ev, symObjAddr: 0xA357C, symBinAddr: 0x1000A6620, symSize: 0xF8 }
  - { offsetInCU: 0x44FD9, offset: 0x44FD9, size: 0x8, addend: 0x0, symName: __ZNSt3__117__compressed_pairIPPNS_16__hash_node_baseIPNS_11__hash_nodeINS_17__hash_value_typeIiNS_12basic_stringIcNS_11char_traitsIcEENS_9allocatorIcEEEEEEPvEEEENS_25__bucket_list_deallocatorINS7_ISF_EEEEE6secondB7v160006Ev, symObjAddr: 0xA3674, symBinAddr: 0x1000A6718, symSize: 0x12C }
  - { offsetInCU: 0x44FFF, offset: 0x44FFF, size: 0x8, addend: 0x0, symName: __ZNSt3__122__compressed_pair_elemINS_25__bucket_list_deallocatorINS_9allocatorIPNS_16__hash_node_baseIPNS_11__hash_nodeINS_17__hash_value_typeIiNS_12basic_stringIcNS_11char_traitsIcEENS2_IcEEEEEEPvEEEEEEEELi1ELb0EE5__getB7v160006Ev, symObjAddr: 0xA37A0, symBinAddr: 0x1000A6844, symSize: 0xAC }
  - { offsetInCU: 0x45025, offset: 0x45025, size: 0x8, addend: 0x0, symName: __ZNSt3__117__compressed_pairImNS_9allocatorIPNS_16__hash_node_baseIPNS_11__hash_nodeINS_17__hash_value_typeIiNS_12basic_stringIcNS_11char_traitsIcEENS1_IcEEEEEEPvEEEEEEE6secondB7v160006Ev, symObjAddr: 0xA384C, symBinAddr: 0x1000A68F0, symSize: 0x108 }
  - { offsetInCU: 0x4504B, offset: 0x4504B, size: 0x8, addend: 0x0, symName: __ZNSt3__122__compressed_pair_elemINS_9allocatorIPNS_16__hash_node_baseIPNS_11__hash_nodeINS_17__hash_value_typeIiNS_12basic_stringIcNS_11char_traitsIcEENS1_IcEEEEEEPvEEEEEELi1ELb1EE5__getB7v160006Ev, symObjAddr: 0xA3954, symBinAddr: 0x1000A69F8, symSize: 0x74 }
  - { offsetInCU: 0x45071, offset: 0x45071, size: 0x8, addend: 0x0, symName: __ZNSt3__117__compressed_pairIPPNS_16__hash_node_baseIPNS_11__hash_nodeINS_17__hash_value_typeIiNS_12basic_stringIcNS_11char_traitsIcEENS_9allocatorIcEEEEEEPvEEEENS_25__bucket_list_deallocatorINS7_ISF_EEEEE5firstB7v160006Ev, symObjAddr: 0xA39C8, symBinAddr: 0x1000A6A6C, symSize: 0x124 }
  - { offsetInCU: 0x45097, offset: 0x45097, size: 0x8, addend: 0x0, symName: __ZNSt3__125__bucket_list_deallocatorINS_9allocatorIPNS_16__hash_node_baseIPNS_11__hash_nodeINS_17__hash_value_typeIiNS_12basic_stringIcNS_11char_traitsIcEENS1_IcEEEEEEPvEEEEEEEclB7v160006EPSF_, symObjAddr: 0xA3AEC, symBinAddr: 0x1000A6B90, symSize: 0x140 }
  - { offsetInCU: 0x450CC, offset: 0x450CC, size: 0x8, addend: 0x0, symName: __ZNSt3__122__compressed_pair_elemIPPNS_16__hash_node_baseIPNS_11__hash_nodeINS_17__hash_value_typeIiNS_12basic_stringIcNS_11char_traitsIcEENS_9allocatorIcEEEEEEPvEEEELi0ELb0EE5__getB7v160006Ev, symObjAddr: 0xA3C2C, symBinAddr: 0x1000A6CD0, symSize: 0xAC }
  - { offsetInCU: 0x450F2, offset: 0x450F2, size: 0x8, addend: 0x0, symName: __ZNSt3__116allocator_traitsINS_9allocatorIPNS_16__hash_node_baseIPNS_11__hash_nodeINS_17__hash_value_typeIiNS_12basic_stringIcNS_11char_traitsIcEENS1_IcEEEEEEPvEEEEEEE10deallocateB7v160006ERSG_PSF_m, symObjAddr: 0xA3CD8, symBinAddr: 0x1000A6D7C, symSize: 0x34 }
  - { offsetInCU: 0x45134, offset: 0x45134, size: 0x8, addend: 0x0, symName: __ZNSt3__19allocatorIPNS_16__hash_node_baseIPNS_11__hash_nodeINS_17__hash_value_typeIiNS_12basic_stringIcNS_11char_traitsIcEENS0_IcEEEEEEPvEEEEE10deallocateB7v160006EPSE_m, symObjAddr: 0xA3D0C, symBinAddr: 0x1000A6DB0, symSize: 0x78 }
  - { offsetInCU: 0x45176, offset: 0x45176, size: 0x8, addend: 0x0, symName: __ZNSt3__19allocatorIPNS_16__hash_node_baseIPNS_11__hash_nodeINS_17__hash_value_typeIiNS_12basic_stringIcNS_11char_traitsIcEENS0_IcEEEEEEPvEEEEE8allocateB7v160006Em, symObjAddr: 0xA3D84, symBinAddr: 0x1000A6E28, symSize: 0xCC }
  - { offsetInCU: 0x451B5, offset: 0x451B5, size: 0x8, addend: 0x0, symName: __ZNSt3__116allocator_traitsINS_9allocatorIPNS_16__hash_node_baseIPNS_11__hash_nodeINS_17__hash_value_typeIiNS_12basic_stringIcNS_11char_traitsIcEENS1_IcEEEEEEPvEEEEEEE8max_sizeB7v160006ISG_vEEmRKSG_, symObjAddr: 0xA3E50, symBinAddr: 0x1000A6EF4, symSize: 0x24 }
  - { offsetInCU: 0x451E3, offset: 0x451E3, size: 0x8, addend: 0x0, symName: __ZNKSt3__19allocatorIPNS_16__hash_node_baseIPNS_11__hash_nodeINS_17__hash_value_typeIiNS_12basic_stringIcNS_11char_traitsIcEENS0_IcEEEEEEPvEEEEE8max_sizeB7v160006Ev, symObjAddr: 0xA3E74, symBinAddr: 0x1000A6F18, symSize: 0x4C }
  - { offsetInCU: 0x45209, offset: 0x45209, size: 0x8, addend: 0x0, symName: __ZNSt3__117__compressed_pairImNS_9allocatorIPNS_16__hash_node_baseIPNS_11__hash_nodeINS_17__hash_value_typeIiNS_12basic_stringIcNS_11char_traitsIcEENS1_IcEEEEEEPvEEEEEEE5firstB7v160006Ev, symObjAddr: 0xA3EC0, symBinAddr: 0x1000A6F64, symSize: 0x124 }
  - { offsetInCU: 0x4522F, offset: 0x4522F, size: 0x8, addend: 0x0, symName: __ZNSt3__122__compressed_pair_elemINS_16__hash_node_baseIPNS_11__hash_nodeINS_17__hash_value_typeIiNS_12basic_stringIcNS_11char_traitsIcEENS_9allocatorIcEEEEEEPvEEEELi0ELb0EE5__getB7v160006Ev, symObjAddr: 0xA3FE4, symBinAddr: 0x1000A7088, symSize: 0xAC }
  - { offsetInCU: 0x45255, offset: 0x45255, size: 0x8, addend: 0x0, symName: __ZNKSt3__117__compressed_pairIPNS_11__hash_nodeINS_17__hash_value_typeIiNS_12basic_stringIcNS_11char_traitsIcEENS_9allocatorIcEEEEEEPvEENS_22__hash_node_destructorINS6_ISB_EEEEE5firstB7v160006Ev, symObjAddr: 0xA4090, symBinAddr: 0x1000A7134, symSize: 0x124 }
  - { offsetInCU: 0x4527B, offset: 0x4527B, size: 0x8, addend: 0x0, symName: __ZNKSt3__122__compressed_pair_elemIPNS_11__hash_nodeINS_17__hash_value_typeIiNS_12basic_stringIcNS_11char_traitsIcEENS_9allocatorIcEEEEEEPvEELi0ELb0EE5__getB7v160006Ev, symObjAddr: 0xA41B4, symBinAddr: 0x1000A7258, symSize: 0xAC }
  - { offsetInCU: 0x452A1, offset: 0x452A1, size: 0x8, addend: 0x0, symName: __ZNSt3__117__compressed_pairIPNS_11__hash_nodeINS_17__hash_value_typeIiNS_12basic_stringIcNS_11char_traitsIcEENS_9allocatorIcEEEEEEPvEENS_22__hash_node_destructorINS6_ISB_EEEEE5firstB7v160006Ev, symObjAddr: 0xA4260, symBinAddr: 0x1000A7304, symSize: 0x124 }
  - { offsetInCU: 0x452C7, offset: 0x452C7, size: 0x8, addend: 0x0, symName: __ZNSt3__122__compressed_pair_elemIPNS_11__hash_nodeINS_17__hash_value_typeIiNS_12basic_stringIcNS_11char_traitsIcEENS_9allocatorIcEEEEEEPvEELi0ELb0EE5__getB7v160006Ev, symObjAddr: 0xA4384, symBinAddr: 0x1000A7428, symSize: 0xAC }
  - { offsetInCU: 0x452ED, offset: 0x452ED, size: 0x8, addend: 0x0, symName: __ZNSt3__110unique_ptrINS_11__hash_nodeINS_17__hash_value_typeIiNS_12basic_stringIcNS_11char_traitsIcEENS_9allocatorIcEEEEEEPvEENS_22__hash_node_destructorINS6_ISB_EEEEED2B7v160006Ev, symObjAddr: 0xA4430, symBinAddr: 0x1000A74D4, symSize: 0x7C }
  - { offsetInCU: 0x45317, offset: 0x45317, size: 0x8, addend: 0x0, symName: __ZNSt3__110unique_ptrINS_11__hash_nodeINS_17__hash_value_typeIiNS_12basic_stringIcNS_11char_traitsIcEENS_9allocatorIcEEEEEEPvEENS_22__hash_node_destructorINS6_ISB_EEEEE5resetB7v160006EPSB_, symObjAddr: 0xA44AC, symBinAddr: 0x1000A7550, symSize: 0x2CC }
  - { offsetInCU: 0x4535B, offset: 0x4535B, size: 0x8, addend: 0x0, symName: __ZNSt3__122__hash_node_destructorINS_9allocatorINS_11__hash_nodeINS_17__hash_value_typeIiNS_12basic_stringIcNS_11char_traitsIcEENS1_IcEEEEEEPvEEEEEclB7v160006EPSB_, symObjAddr: 0xA4778, symBinAddr: 0x1000A781C, symSize: 0x2C0 }
  - { offsetInCU: 0x45390, offset: 0x45390, size: 0x8, addend: 0x0, symName: __ZNSt3__116allocator_traitsINS_9allocatorINS_11__hash_nodeINS_17__hash_value_typeIiNS_12basic_stringIcNS_11char_traitsIcEENS1_IcEEEEEEPvEEEEE7destroyB7v160006INS_4pairIKiS8_EEvvEEvRSC_PT_, symObjAddr: 0xA4A38, symBinAddr: 0x1000A7ADC, symSize: 0x70 }
  - { offsetInCU: 0x453CB, offset: 0x453CB, size: 0x8, addend: 0x0, symName: __ZNSt3__116allocator_traitsINS_9allocatorINS_11__hash_nodeINS_17__hash_value_typeIiNS_12basic_stringIcNS_11char_traitsIcEENS1_IcEEEEEEPvEEEEE10deallocateB7v160006ERSC_PSB_m, symObjAddr: 0xA4AA8, symBinAddr: 0x1000A7B4C, symSize: 0x34 }
  - { offsetInCU: 0x4540D, offset: 0x4540D, size: 0x8, addend: 0x0, symName: __ZNSt3__19allocatorINS_11__hash_nodeINS_17__hash_value_typeIiNS_12basic_stringIcNS_11char_traitsIcEENS0_IcEEEEEEPvEEE10deallocateB7v160006EPSA_m, symObjAddr: 0xA4ADC, symBinAddr: 0x1000A7B80, symSize: 0x7C }
  - { offsetInCU: 0x4544F, offset: 0x4544F, size: 0x8, addend: 0x0, symName: __ZNSt3__115__hash_iteratorIPNS_11__hash_nodeINS_17__hash_value_typeIiNS_12basic_stringIcNS_11char_traitsIcEENS_9allocatorIcEEEEEEPvEEEC2B7v160006EPNS_16__hash_node_baseISC_EEPKv, symObjAddr: 0xA4B58, symBinAddr: 0x1000A7BFC, symSize: 0xCC }
  - { offsetInCU: 0x45497, offset: 0x45497, size: 0x8, addend: 0x0, symName: __ZNSt3__14pairINS_15__hash_iteratorIPNS_11__hash_nodeINS_17__hash_value_typeIiNS_12basic_stringIcNS_11char_traitsIcEENS_9allocatorIcEEEEEEPvEEEEbEC2B7v160006ISE_RbLSB_0EEEOT_OT0_, symObjAddr: 0xA4C24, symBinAddr: 0x1000A7CC8, symSize: 0x1C8 }
  - { offsetInCU: 0x454F5, offset: 0x454F5, size: 0x8, addend: 0x0, symName: __ZNSt3__112__hash_tableINS_17__hash_value_typeIiNS_12basic_stringIcNS_11char_traitsIcEENS_9allocatorIcEEEEEENS_22__unordered_map_hasherIiS8_NS_4hashIiEENS_8equal_toIiEELb1EEENS_21__unordered_map_equalIiS8_SD_SB_Lb1EEENS5_IS8_EEED2Ev, symObjAddr: 0xA4DEC, symBinAddr: 0x1000A7E90, symSize: 0x1C0 }
  - { offsetInCU: 0x45521, offset: 0x45521, size: 0x8, addend: 0x0, symName: __ZNSt3__112__hash_tableINS_17__hash_value_typeIiNS_12basic_stringIcNS_11char_traitsIcEENS_9allocatorIcEEEEEENS_22__unordered_map_hasherIiS8_NS_4hashIiEENS_8equal_toIiEELb1EEENS_21__unordered_map_equalIiS8_SD_SB_Lb1EEENS5_IS8_EEE17__deallocate_nodeEPNS_16__hash_node_baseIPNS_11__hash_nodeIS8_PvEEEE, symObjAddr: 0xA4FAC, symBinAddr: 0x1000A8050, symSize: 0x318 }
  - { offsetInCU: 0x4558B, offset: 0x4558B, size: 0x8, addend: 0x0, symName: __ZNSt3__110unique_ptrIA_PNS_16__hash_node_baseIPNS_11__hash_nodeINS_17__hash_value_typeIiNS_12basic_stringIcNS_11char_traitsIcEENS_9allocatorIcEEEEEEPvEEEENS_25__bucket_list_deallocatorINS7_ISF_EEEEED1B7v160006Ev, symObjAddr: 0xA52D4, symBinAddr: 0x1000A8378, symSize: 0x78 }
  - { offsetInCU: 0x455B5, offset: 0x455B5, size: 0x8, addend: 0x0, symName: __ZNSt3__110unique_ptrIA_PNS_16__hash_node_baseIPNS_11__hash_nodeINS_17__hash_value_typeIiNS_12basic_stringIcNS_11char_traitsIcEENS_9allocatorIcEEEEEEPvEEEENS_25__bucket_list_deallocatorINS7_ISF_EEEEED2B7v160006Ev, symObjAddr: 0xA534C, symBinAddr: 0x1000A83F0, symSize: 0x7C }
  - { offsetInCU: 0x455DF, offset: 0x455DF, size: 0x8, addend: 0x0, symName: __ZNSt3__110unique_ptrIA_PNS_16__hash_node_baseIPNS_11__hash_nodeINS_17__hash_value_typeIiNS_12basic_stringIcNS_11char_traitsIcEENS_9allocatorIcEEEEEEPvEEEENS_25__bucket_list_deallocatorINS7_ISF_EEEEE5resetB7v160006EDn, symObjAddr: 0xA53C8, symBinAddr: 0x1000A846C, symSize: 0x2C0 }
  - { offsetInCU: 0x45620, offset: 0x45620, size: 0x8, addend: 0x0, symName: __ZNSt3__113unordered_mapIiNS_12basic_stringIcNS_11char_traitsIcEENS_9allocatorIcEEEENS_4hashIiEENS_8equal_toIiEENS4_INS_4pairIKiS6_EEEEED2B7v160006Ev, symObjAddr: 0xA5688, symBinAddr: 0x1000A872C, symSize: 0x78 }
  - { offsetInCU: 0x4564A, offset: 0x4564A, size: 0x8, addend: 0x0, symName: __ZNSt3__16vectorI4CardNS_9allocatorIS1_EEED2B7v160006Ev, symObjAddr: 0xA5700, symBinAddr: 0x1000A87A4, symSize: 0x298 }
  - { offsetInCU: 0x45675, offset: 0x45675, size: 0x8, addend: 0x0, symName: __ZNSt3__16vectorI4CardNS_9allocatorIS1_EEE16__destroy_vectorC1ERS4_, symObjAddr: 0xA5998, symBinAddr: 0x1000A8A3C, symSize: 0x80 }
  - { offsetInCU: 0x456AE, offset: 0x456AE, size: 0x8, addend: 0x0, symName: __ZNSt3__16vectorI4CardNS_9allocatorIS1_EEE16__destroy_vectorclB7v160006Ev, symObjAddr: 0xA5A18, symBinAddr: 0x1000A8ABC, symSize: 0x478 }
  - { offsetInCU: 0x456D4, offset: 0x456D4, size: 0x8, addend: 0x0, symName: __ZNSt3__16vectorI4CardNS_9allocatorIS1_EEE16__destroy_vectorC2ERS4_, symObjAddr: 0xA5E90, symBinAddr: 0x1000A8F34, symSize: 0x108 }
  - { offsetInCU: 0x4570D, offset: 0x4570D, size: 0x8, addend: 0x0, symName: __ZNSt3__16vectorI4CardNS_9allocatorIS1_EEE7__clearB7v160006Ev, symObjAddr: 0xA5FA8, symBinAddr: 0x1000A904C, symSize: 0xB0 }
  - { offsetInCU: 0x45733, offset: 0x45733, size: 0x8, addend: 0x0, symName: __ZNSt3__16vectorI4CardNS_9allocatorIS1_EEE22__base_destruct_at_endB7v160006EPS1_, symObjAddr: 0xA6058, symBinAddr: 0x1000A90FC, symSize: 0x1FC }
  - { offsetInCU: 0x45777, offset: 0x45777, size: 0x8, addend: 0x0, symName: __ZNSt3__16vectorI4CardNS_9allocatorIS1_EEE11__make_iterB7v160006EPS1_, symObjAddr: 0xA6254, symBinAddr: 0x1000A92F8, symSize: 0x24C }
  - { offsetInCU: 0x457AE, offset: 0x457AE, size: 0x8, addend: 0x0, symName: __ZNSt3__111__wrap_iterIP4CardEC1B7v160006EPKvS2_, symObjAddr: 0xA64A0, symBinAddr: 0x1000A9544, symSize: 0x88 }
  - { offsetInCU: 0x457F4, offset: 0x457F4, size: 0x8, addend: 0x0, symName: __ZNSt3__111__wrap_iterIP4CardEC2B7v160006EPKvS2_, symObjAddr: 0xA6528, symBinAddr: 0x1000A95CC, symSize: 0xCC }
  - { offsetInCU: 0x4583A, offset: 0x4583A, size: 0x8, addend: 0x0, symName: __ZNSt3__112__hash_tableINS_17__hash_value_typeI5ValueiEENS_22__unordered_map_hasherIS2_S3_NS_4hashIS2_EENS_8equal_toIS2_EELb1EEENS_21__unordered_map_equalIS2_S3_S8_S6_Lb1EEENS_9allocatorIS3_EEE25__emplace_unique_key_argsIS2_JRKNS_21piecewise_construct_tENS_5tupleIJRKS2_EEENSJ_IJEEEEEENS_4pairINS_15__hash_iteratorIPNS_11__hash_nodeIS3_PvEEEEbEERKT_DpOT0_, symObjAddr: 0xA65F4, symBinAddr: 0x1000A9698, symSize: 0x1D24 }
  - { offsetInCU: 0x4594D, offset: 0x4594D, size: 0x8, addend: 0x0, symName: __ZNKSt3__115__hash_iteratorIPNS_11__hash_nodeINS_17__hash_value_typeI5ValueiEEPvEEEptB7v160006Ev, symObjAddr: 0xA855C, symBinAddr: 0x1000AB600, symSize: 0x190 }
  - { offsetInCU: 0x45973, offset: 0x45973, size: 0x8, addend: 0x0, symName: __ZNSt3__112__hash_tableINS_17__hash_value_typeI5ValueiEENS_22__unordered_map_hasherIS2_S3_NS_4hashIS2_EENS_8equal_toIS2_EELb1EEENS_21__unordered_map_equalIS2_S3_S8_S6_Lb1EEENS_9allocatorIS3_EEE13hash_functionB7v160006Ev, symObjAddr: 0xA86EC, symBinAddr: 0x1000AB790, symSize: 0xE4 }
  - { offsetInCU: 0x45999, offset: 0x45999, size: 0x8, addend: 0x0, symName: __ZNKSt3__122__unordered_map_hasherI5ValueNS_17__hash_value_typeIS1_iEENS_4hashIS1_EENS_8equal_toIS1_EELb1EEclB7v160006ERKS1_, symObjAddr: 0xA87D0, symBinAddr: 0x1000AB874, symSize: 0xF0 }
  - { offsetInCU: 0x459CE, offset: 0x459CE, size: 0x8, addend: 0x0, symName: __ZNKSt3__112__hash_tableINS_17__hash_value_typeI5ValueiEENS_22__unordered_map_hasherIS2_S3_NS_4hashIS2_EENS_8equal_toIS2_EELb1EEENS_21__unordered_map_equalIS2_S3_S8_S6_Lb1EEENS_9allocatorIS3_EEE12bucket_countB7v160006Ev, symObjAddr: 0xA88C0, symBinAddr: 0x1000AB964, symSize: 0xFC }
  - { offsetInCU: 0x459F4, offset: 0x459F4, size: 0x8, addend: 0x0, symName: __ZNKSt3__110unique_ptrIA_PNS_16__hash_node_baseIPNS_11__hash_nodeINS_17__hash_value_typeI5ValueiEEPvEEEENS_25__bucket_list_deallocatorINS_9allocatorISA_EEEEEixB7v160006Em, symObjAddr: 0xA89BC, symBinAddr: 0x1000ABA60, symSize: 0x25C }
  - { offsetInCU: 0x45A29, offset: 0x45A29, size: 0x8, addend: 0x0, symName: __ZNKSt3__116__hash_node_baseIPNS_11__hash_nodeINS_17__hash_value_typeI5ValueiEEPvEEE6__hashB7v160006Ev, symObjAddr: 0xA8C18, symBinAddr: 0x1000ABCBC, symSize: 0x180 }
  - { offsetInCU: 0x45A4F, offset: 0x45A4F, size: 0x8, addend: 0x0, symName: __ZNSt3__112__hash_tableINS_17__hash_value_typeI5ValueiEENS_22__unordered_map_hasherIS2_S3_NS_4hashIS2_EENS_8equal_toIS2_EELb1EEENS_21__unordered_map_equalIS2_S3_S8_S6_Lb1EEENS_9allocatorIS3_EEE6key_eqB7v160006Ev, symObjAddr: 0xA8D98, symBinAddr: 0x1000ABE3C, symSize: 0xE4 }
  - { offsetInCU: 0x45A75, offset: 0x45A75, size: 0x8, addend: 0x0, symName: __ZNKSt3__121__unordered_map_equalI5ValueNS_17__hash_value_typeIS1_iEENS_8equal_toIS1_EENS_4hashIS1_EELb1EEclB7v160006ERKS3_RKS1_, symObjAddr: 0xA8E7C, symBinAddr: 0x1000ABF20, symSize: 0x190 }
  - { offsetInCU: 0x45AB9, offset: 0x45AB9, size: 0x8, addend: 0x0, symName: __ZNSt3__112__hash_tableINS_17__hash_value_typeI5ValueiEENS_22__unordered_map_hasherIS2_S3_NS_4hashIS2_EENS_8equal_toIS2_EELb1EEENS_21__unordered_map_equalIS2_S3_S8_S6_Lb1EEENS_9allocatorIS3_EEE21__construct_node_hashIRKNS_21piecewise_construct_tEJNS_5tupleIJRKS2_EEENSJ_IJEEEEEENS_10unique_ptrINS_11__hash_nodeIS3_PvEENS_22__hash_node_destructorINSC_ISR_EEEEEEmOT_DpOT0_, symObjAddr: 0xA900C, symBinAddr: 0x1000AC0B0, symSize: 0x948 }
  - { offsetInCU: 0x45B5C, offset: 0x45B5C, size: 0x8, addend: 0x0, symName: __ZNSt3__112__hash_tableINS_17__hash_value_typeI5ValueiEENS_22__unordered_map_hasherIS2_S3_NS_4hashIS2_EENS_8equal_toIS2_EELb1EEENS_21__unordered_map_equalIS2_S3_S8_S6_Lb1EEENS_9allocatorIS3_EEE4sizeB7v160006Ev, symObjAddr: 0xA9954, symBinAddr: 0x1000AC9F8, symSize: 0x100 }
  - { offsetInCU: 0x45B82, offset: 0x45B82, size: 0x8, addend: 0x0, symName: __ZNSt3__112__hash_tableINS_17__hash_value_typeI5ValueiEENS_22__unordered_map_hasherIS2_S3_NS_4hashIS2_EENS_8equal_toIS2_EELb1EEENS_21__unordered_map_equalIS2_S3_S8_S6_Lb1EEENS_9allocatorIS3_EEE15max_load_factorB7v160006Ev, symObjAddr: 0xA9A54, symBinAddr: 0x1000ACAF8, symSize: 0x100 }
  - { offsetInCU: 0x45BA8, offset: 0x45BA8, size: 0x8, addend: 0x0, symName: __ZNSt3__112__hash_tableINS_17__hash_value_typeI5ValueiEENS_22__unordered_map_hasherIS2_S3_NS_4hashIS2_EENS_8equal_toIS2_EELb1EEENS_21__unordered_map_equalIS2_S3_S8_S6_Lb1EEENS_9allocatorIS3_EEE15__rehash_uniqueB7v160006Em, symObjAddr: 0xA9B54, symBinAddr: 0x1000ACBF8, symSize: 0x74 }
  - { offsetInCU: 0x45BDD, offset: 0x45BDD, size: 0x8, addend: 0x0, symName: __ZNSt3__116__hash_node_baseIPNS_11__hash_nodeINS_17__hash_value_typeI5ValueiEEPvEEE5__ptrB7v160006Ev, symObjAddr: 0xA9BC8, symBinAddr: 0x1000ACC6C, symSize: 0xB0 }
  - { offsetInCU: 0x45C03, offset: 0x45C03, size: 0x8, addend: 0x0, symName: __ZNKSt3__110unique_ptrINS_11__hash_nodeINS_17__hash_value_typeI5ValueiEEPvEENS_22__hash_node_destructorINS_9allocatorIS6_EEEEEptB7v160006Ev, symObjAddr: 0xA9C78, symBinAddr: 0x1000ACD1C, symSize: 0x13C }
  - { offsetInCU: 0x45C29, offset: 0x45C29, size: 0x8, addend: 0x0, symName: __ZNKSt3__110unique_ptrINS_11__hash_nodeINS_17__hash_value_typeI5ValueiEEPvEENS_22__hash_node_destructorINS_9allocatorIS6_EEEEE3getB7v160006Ev, symObjAddr: 0xA9DB4, symBinAddr: 0x1000ACE58, symSize: 0x13C }
  - { offsetInCU: 0x45C4F, offset: 0x45C4F, size: 0x8, addend: 0x0, symName: __ZNSt3__110unique_ptrINS_11__hash_nodeINS_17__hash_value_typeI5ValueiEEPvEENS_22__hash_node_destructorINS_9allocatorIS6_EEEEE7releaseB7v160006Ev, symObjAddr: 0xA9EF0, symBinAddr: 0x1000ACF94, symSize: 0x20C }
  - { offsetInCU: 0x45C84, offset: 0x45C84, size: 0x8, addend: 0x0, symName: __ZNSt3__110unique_ptrINS_11__hash_nodeINS_17__hash_value_typeI5ValueiEEPvEENS_22__hash_node_destructorINS_9allocatorIS6_EEEEED1B7v160006Ev, symObjAddr: 0xAA0FC, symBinAddr: 0x1000AD1A0, symSize: 0x78 }
  - { offsetInCU: 0x45CAE, offset: 0x45CAE, size: 0x8, addend: 0x0, symName: __ZNSt3__115__hash_iteratorIPNS_11__hash_nodeINS_17__hash_value_typeI5ValueiEEPvEEEC1B7v160006EPNS_16__hash_node_baseIS7_EEPKv, symObjAddr: 0xAA174, symBinAddr: 0x1000AD218, symSize: 0x88 }
  - { offsetInCU: 0x45CFC, offset: 0x45CFC, size: 0x8, addend: 0x0, symName: __ZNSt3__14pairINS_15__hash_iteratorIPNS_11__hash_nodeINS_17__hash_value_typeI5ValueiEEPvEEEEbEC1B7v160006IS9_RbLS6_0EEEOT_OT0_, symObjAddr: 0xAA1FC, symBinAddr: 0x1000AD2A0, symSize: 0x88 }
  - { offsetInCU: 0x45D5A, offset: 0x45D5A, size: 0x8, addend: 0x0, symName: __ZNSt3__117__compressed_pairImNS_22__unordered_map_hasherI5ValueNS_17__hash_value_typeIS2_iEENS_4hashIS2_EENS_8equal_toIS2_EELb1EEEE6secondB7v160006Ev, symObjAddr: 0xAA284, symBinAddr: 0x1000AD328, symSize: 0x108 }
  - { offsetInCU: 0x45D80, offset: 0x45D80, size: 0x8, addend: 0x0, symName: __ZNSt3__122__compressed_pair_elemINS_22__unordered_map_hasherI5ValueNS_17__hash_value_typeIS2_iEENS_4hashIS2_EENS_8equal_toIS2_EELb1EEELi1ELb1EE5__getB7v160006Ev, symObjAddr: 0xAA38C, symBinAddr: 0x1000AD430, symSize: 0x74 }
  - { offsetInCU: 0x45DA6, offset: 0x45DA6, size: 0x8, addend: 0x0, symName: __ZNKSt3__110unique_ptrIA_PNS_16__hash_node_baseIPNS_11__hash_nodeINS_17__hash_value_typeI5ValueiEEPvEEEENS_25__bucket_list_deallocatorINS_9allocatorISA_EEEEE11get_deleterB7v160006Ev, symObjAddr: 0xAA614, symBinAddr: 0x1000AD6B8, symSize: 0xF8 }
  - { offsetInCU: 0x45DCC, offset: 0x45DCC, size: 0x8, addend: 0x0, symName: __ZNKSt3__125__bucket_list_deallocatorINS_9allocatorIPNS_16__hash_node_baseIPNS_11__hash_nodeINS_17__hash_value_typeI5ValueiEEPvEEEEEEE4sizeB7v160006Ev, symObjAddr: 0xAA70C, symBinAddr: 0x1000AD7B0, symSize: 0x13C }
  - { offsetInCU: 0x45DF2, offset: 0x45DF2, size: 0x8, addend: 0x0, symName: __ZNKSt3__117__compressed_pairIPPNS_16__hash_node_baseIPNS_11__hash_nodeINS_17__hash_value_typeI5ValueiEEPvEEEENS_25__bucket_list_deallocatorINS_9allocatorISA_EEEEE6secondB7v160006Ev, symObjAddr: 0xAA848, symBinAddr: 0x1000AD8EC, symSize: 0x12C }
  - { offsetInCU: 0x45E18, offset: 0x45E18, size: 0x8, addend: 0x0, symName: __ZNKSt3__122__compressed_pair_elemINS_25__bucket_list_deallocatorINS_9allocatorIPNS_16__hash_node_baseIPNS_11__hash_nodeINS_17__hash_value_typeI5ValueiEEPvEEEEEEEELi1ELb0EE5__getB7v160006Ev, symObjAddr: 0xAA974, symBinAddr: 0x1000ADA18, symSize: 0xAC }
  - { offsetInCU: 0x45E3E, offset: 0x45E3E, size: 0x8, addend: 0x0, symName: __ZNKSt3__117__compressed_pairImNS_9allocatorIPNS_16__hash_node_baseIPNS_11__hash_nodeINS_17__hash_value_typeI5ValueiEEPvEEEEEEE5firstB7v160006Ev, symObjAddr: 0xAAA20, symBinAddr: 0x1000ADAC4, symSize: 0x124 }
  - { offsetInCU: 0x45E64, offset: 0x45E64, size: 0x8, addend: 0x0, symName: __ZNKSt3__117__compressed_pairIPPNS_16__hash_node_baseIPNS_11__hash_nodeINS_17__hash_value_typeI5ValueiEEPvEEEENS_25__bucket_list_deallocatorINS_9allocatorISA_EEEEE5firstB7v160006Ev, symObjAddr: 0xAAB44, symBinAddr: 0x1000ADBE8, symSize: 0x124 }
  - { offsetInCU: 0x45E8A, offset: 0x45E8A, size: 0x8, addend: 0x0, symName: __ZNKSt3__122__compressed_pair_elemIPPNS_16__hash_node_baseIPNS_11__hash_nodeINS_17__hash_value_typeI5ValueiEEPvEEEELi0ELb0EE5__getB7v160006Ev, symObjAddr: 0xAAC68, symBinAddr: 0x1000ADD0C, symSize: 0xAC }
  - { offsetInCU: 0x45EB0, offset: 0x45EB0, size: 0x8, addend: 0x0, symName: __ZNSt3__117__compressed_pairIfNS_21__unordered_map_equalI5ValueNS_17__hash_value_typeIS2_iEENS_8equal_toIS2_EENS_4hashIS2_EELb1EEEE6secondB7v160006Ev, symObjAddr: 0xAAD14, symBinAddr: 0x1000ADDB8, symSize: 0x108 }
  - { offsetInCU: 0x45ED6, offset: 0x45ED6, size: 0x8, addend: 0x0, symName: __ZNSt3__122__compressed_pair_elemINS_21__unordered_map_equalI5ValueNS_17__hash_value_typeIS2_iEENS_8equal_toIS2_EENS_4hashIS2_EELb1EEELi1ELb1EE5__getB7v160006Ev, symObjAddr: 0xAAE1C, symBinAddr: 0x1000ADEC0, symSize: 0x74 }
  - { offsetInCU: 0x45EFC, offset: 0x45EFC, size: 0x8, addend: 0x0, symName: __ZNKSt3__18equal_toI5ValueEclB7v160006ERKS1_S4_, symObjAddr: 0xAAE90, symBinAddr: 0x1000ADF34, symSize: 0x13C }
  - { offsetInCU: 0x45F40, offset: 0x45F40, size: 0x8, addend: 0x0, symName: __ZNKSt3__117__hash_value_typeI5ValueiE11__get_valueB7v160006Ev, symObjAddr: 0xAAFCC, symBinAddr: 0x1000AE070, symSize: 0xB4 }
  - { offsetInCU: 0x45F66, offset: 0x45F66, size: 0x8, addend: 0x0, symName: __ZNSt3__116allocator_traitsINS_9allocatorINS_11__hash_nodeINS_17__hash_value_typeI5ValueiEEPvEEEEE8allocateB7v160006ERS8_m, symObjAddr: 0xAB0B8, symBinAddr: 0x1000AE15C, symSize: 0x2C }
  - { offsetInCU: 0x45F99, offset: 0x45F99, size: 0x8, addend: 0x0, symName: __ZNSt3__122__hash_node_destructorINS_9allocatorINS_11__hash_nodeINS_17__hash_value_typeI5ValueiEEPvEEEEEC1B7v160006ERS8_b, symObjAddr: 0xAB0E4, symBinAddr: 0x1000AE188, symSize: 0xCC }
  - { offsetInCU: 0x45FE7, offset: 0x45FE7, size: 0x8, addend: 0x0, symName: __ZNSt3__110unique_ptrINS_11__hash_nodeINS_17__hash_value_typeI5ValueiEEPvEENS_22__hash_node_destructorINS_9allocatorIS6_EEEEEC1B7v160006ILb1EvEEPS6_NS_16__dependent_typeINS_27__unique_ptr_deleter_sfinaeISA_EEXT_EE20__good_rval_ref_typeE, symObjAddr: 0xAB1B0, symBinAddr: 0x1000AE254, symSize: 0x88 }
  - { offsetInCU: 0x46038, offset: 0x46038, size: 0x8, addend: 0x0, symName: __ZNSt3__116allocator_traitsINS_9allocatorINS_11__hash_nodeINS_17__hash_value_typeI5ValueiEEPvEEEEE9constructB7v160006INS_4pairIKS4_iEEJRKNS_21piecewise_construct_tENS_5tupleIJRSC_EEENSH_IJEEEEvEEvRS8_PT_DpOT0_, symObjAddr: 0xAB238, symBinAddr: 0x1000AE2DC, symSize: 0xF4 }
  - { offsetInCU: 0x460B7, offset: 0x460B7, size: 0x8, addend: 0x0, symName: __ZNSt3__110unique_ptrINS_11__hash_nodeINS_17__hash_value_typeI5ValueiEEPvEENS_22__hash_node_destructorINS_9allocatorIS6_EEEEE11get_deleterB7v160006Ev, symObjAddr: 0xAB32C, symBinAddr: 0x1000AE3D0, symSize: 0xF8 }
  - { offsetInCU: 0x460DD, offset: 0x460DD, size: 0x8, addend: 0x0, symName: __ZNSt3__19allocatorINS_11__hash_nodeINS_17__hash_value_typeI5ValueiEEPvEEE8allocateB7v160006Em, symObjAddr: 0xAB424, symBinAddr: 0x1000AE4C8, symSize: 0xD0 }
  - { offsetInCU: 0x4611C, offset: 0x4611C, size: 0x8, addend: 0x0, symName: __ZNSt3__116allocator_traitsINS_9allocatorINS_11__hash_nodeINS_17__hash_value_typeI5ValueiEEPvEEEEE8max_sizeB7v160006IS8_vEEmRKS8_, symObjAddr: 0xAB4F4, symBinAddr: 0x1000AE598, symSize: 0x24 }
  - { offsetInCU: 0x4614A, offset: 0x4614A, size: 0x8, addend: 0x0, symName: __ZNKSt3__19allocatorINS_11__hash_nodeINS_17__hash_value_typeI5ValueiEEPvEEE8max_sizeB7v160006Ev, symObjAddr: 0xAB518, symBinAddr: 0x1000AE5BC, symSize: 0x50 }
  - { offsetInCU: 0x46170, offset: 0x46170, size: 0x8, addend: 0x0, symName: __ZNSt3__122__hash_node_destructorINS_9allocatorINS_11__hash_nodeINS_17__hash_value_typeI5ValueiEEPvEEEEEC2B7v160006ERS8_b, symObjAddr: 0xAB568, symBinAddr: 0x1000AE60C, symSize: 0x1A0 }
  - { offsetInCU: 0x461B8, offset: 0x461B8, size: 0x8, addend: 0x0, symName: __ZNSt3__110unique_ptrINS_11__hash_nodeINS_17__hash_value_typeI5ValueiEEPvEENS_22__hash_node_destructorINS_9allocatorIS6_EEEEEC2B7v160006ILb1EvEEPS6_NS_16__dependent_typeINS_27__unique_ptr_deleter_sfinaeISA_EEXT_EE20__good_rval_ref_typeE, symObjAddr: 0xAB708, symBinAddr: 0x1000AE7AC, symSize: 0x2BC }
  - { offsetInCU: 0x4620F, offset: 0x4620F, size: 0x8, addend: 0x0, symName: __ZNSt3__117__compressed_pairIPNS_11__hash_nodeINS_17__hash_value_typeI5ValueiEEPvEENS_22__hash_node_destructorINS_9allocatorIS6_EEEEEC1B7v160006IRS7_SB_EEOT_OT0_, symObjAddr: 0xAB9C4, symBinAddr: 0x1000AEA68, symSize: 0x88 }
  - { offsetInCU: 0x46267, offset: 0x46267, size: 0x8, addend: 0x0, symName: __ZNSt3__117__compressed_pairIPNS_11__hash_nodeINS_17__hash_value_typeI5ValueiEEPvEENS_22__hash_node_destructorINS_9allocatorIS6_EEEEEC2B7v160006IRS7_SB_EEOT_OT0_, symObjAddr: 0xABA4C, symBinAddr: 0x1000AEAF0, symSize: 0x1B4 }
  - { offsetInCU: 0x462BF, offset: 0x462BF, size: 0x8, addend: 0x0, symName: __ZNSt3__122__compressed_pair_elemIPNS_11__hash_nodeINS_17__hash_value_typeI5ValueiEEPvEELi0ELb0EEC2B7v160006IRS7_vEEOT_, symObjAddr: 0xABC00, symBinAddr: 0x1000AECA4, symSize: 0x144 }
  - { offsetInCU: 0x46301, offset: 0x46301, size: 0x8, addend: 0x0, symName: __ZNSt3__122__compressed_pair_elemINS_22__hash_node_destructorINS_9allocatorINS_11__hash_nodeINS_17__hash_value_typeI5ValueiEEPvEEEEEELi1ELb0EEC2B7v160006ISA_vEEOT_, symObjAddr: 0xABD44, symBinAddr: 0x1000AEDE8, symSize: 0x84 }
  - { offsetInCU: 0x46343, offset: 0x46343, size: 0x8, addend: 0x0, symName: __ZNSt3__19allocatorINS_11__hash_nodeINS_17__hash_value_typeI5ValueiEEPvEEE9constructB7v160006INS_4pairIKS3_iEEJRKNS_21piecewise_construct_tENS_5tupleIJRSA_EEENSF_IJEEEEEEvPT_DpOT0_, symObjAddr: 0xABDC8, symBinAddr: 0x1000AEE6C, symSize: 0x284 }
  - { offsetInCU: 0x463C4, offset: 0x463C4, size: 0x8, addend: 0x0, symName: __ZNSt3__14pairIK5ValueiEC1B7v160006IJRS2_EJEEENS_21piecewise_construct_tENS_5tupleIJDpT_EEENS7_IJDpT0_EEE, symObjAddr: 0xAC04C, symBinAddr: 0x1000AF0F0, symSize: 0x2A0 }
  - { offsetInCU: 0x46435, offset: 0x46435, size: 0x8, addend: 0x0, symName: __ZNSt3__14pairIK5ValueiEC1B7v160006IJRS2_EJEJLm0EEJEEENS_21piecewise_construct_tERNS_5tupleIJDpT_EEERNS7_IJDpT0_EEENS_15__tuple_indicesIJXspT1_EEEENSG_IJXspT2_EEEE, symObjAddr: 0xAC2EC, symBinAddr: 0x1000AF390, symSize: 0x88 }
  - { offsetInCU: 0x464C5, offset: 0x464C5, size: 0x8, addend: 0x0, symName: __ZNSt3__14pairIK5ValueiEC2B7v160006IJRS2_EJEJLm0EEJEEENS_21piecewise_construct_tERNS_5tupleIJDpT_EEERNS7_IJDpT0_EEENS_15__tuple_indicesIJXspT1_EEEENSG_IJXspT2_EEEE, symObjAddr: 0xAC374, symBinAddr: 0x1000AF418, symSize: 0x244 }
  - { offsetInCU: 0x46555, offset: 0x46555, size: 0x8, addend: 0x0, symName: __ZNSt3__112__tuple_leafILm0ERK5ValueLb0EE3getB7v160006Ev, symObjAddr: 0xAC698, symBinAddr: 0x1000AF73C, symSize: 0xF4 }
  - { offsetInCU: 0x4657B, offset: 0x4657B, size: 0x8, addend: 0x0, symName: __ZNSt3__117__compressed_pairIPNS_11__hash_nodeINS_17__hash_value_typeI5ValueiEEPvEENS_22__hash_node_destructorINS_9allocatorIS6_EEEEE6secondB7v160006Ev, symObjAddr: 0xAC78C, symBinAddr: 0x1000AF830, symSize: 0x12C }
  - { offsetInCU: 0x465A1, offset: 0x465A1, size: 0x8, addend: 0x0, symName: __ZNSt3__122__compressed_pair_elemINS_22__hash_node_destructorINS_9allocatorINS_11__hash_nodeINS_17__hash_value_typeI5ValueiEEPvEEEEEELi1ELb0EE5__getB7v160006Ev, symObjAddr: 0xAC8B8, symBinAddr: 0x1000AF95C, symSize: 0xAC }
  - { offsetInCU: 0x465C7, offset: 0x465C7, size: 0x8, addend: 0x0, symName: __ZNSt3__117__compressed_pairImNS_22__unordered_map_hasherI5ValueNS_17__hash_value_typeIS2_iEENS_4hashIS2_EENS_8equal_toIS2_EELb1EEEE5firstB7v160006Ev, symObjAddr: 0xAC964, symBinAddr: 0x1000AFA08, symSize: 0x124 }
  - { offsetInCU: 0x465ED, offset: 0x465ED, size: 0x8, addend: 0x0, symName: __ZNSt3__117__compressed_pairIfNS_21__unordered_map_equalI5ValueNS_17__hash_value_typeIS2_iEENS_8equal_toIS2_EENS_4hashIS2_EELb1EEEE5firstB7v160006Ev, symObjAddr: 0xACA88, symBinAddr: 0x1000AFB2C, symSize: 0x124 }
  - { offsetInCU: 0x46613, offset: 0x46613, size: 0x8, addend: 0x0, symName: __ZNSt3__112__hash_tableINS_17__hash_value_typeI5ValueiEENS_22__unordered_map_hasherIS2_S3_NS_4hashIS2_EENS_8equal_toIS2_EELb1EEENS_21__unordered_map_equalIS2_S3_S8_S6_Lb1EEENS_9allocatorIS3_EEE8__rehashILb1EEEvm, symObjAddr: 0xACBAC, symBinAddr: 0x1000AFC50, symSize: 0x9CC }
  - { offsetInCU: 0x46669, offset: 0x46669, size: 0x8, addend: 0x0, symName: __ZNSt3__112__hash_tableINS_17__hash_value_typeI5ValueiEENS_22__unordered_map_hasherIS2_S3_NS_4hashIS2_EENS_8equal_toIS2_EELb1EEENS_21__unordered_map_equalIS2_S3_S8_S6_Lb1EEENS_9allocatorIS3_EEE11__do_rehashILb1EEEvm, symObjAddr: 0xAD578, symBinAddr: 0x1000B061C, symSize: 0x108C }
  - { offsetInCU: 0x4674E, offset: 0x4674E, size: 0x8, addend: 0x0, symName: __ZNSt3__110unique_ptrIA_PNS_16__hash_node_baseIPNS_11__hash_nodeINS_17__hash_value_typeI5ValueiEEPvEEEENS_25__bucket_list_deallocatorINS_9allocatorISA_EEEEE11get_deleterB7v160006Ev, symObjAddr: 0xAE614, symBinAddr: 0x1000B16B8, symSize: 0xF8 }
  - { offsetInCU: 0x46774, offset: 0x46774, size: 0x8, addend: 0x0, symName: __ZNSt3__110unique_ptrIA_PNS_16__hash_node_baseIPNS_11__hash_nodeINS_17__hash_value_typeI5ValueiEEPvEEEENS_25__bucket_list_deallocatorINS_9allocatorISA_EEEEE5resetB7v160006IPSA_EENS_9enable_ifIXsr28_CheckArrayPointerConversionIT_EE5valueEvE4typeESK_, symObjAddr: 0xAE70C, symBinAddr: 0x1000B17B0, symSize: 0x2CC }
  - { offsetInCU: 0x467C1, offset: 0x467C1, size: 0x8, addend: 0x0, symName: __ZNSt3__116allocator_traitsINS_9allocatorIPNS_16__hash_node_baseIPNS_11__hash_nodeINS_17__hash_value_typeI5ValueiEEPvEEEEEEE8allocateB7v160006ERSC_m, symObjAddr: 0xAE9D8, symBinAddr: 0x1000B1A7C, symSize: 0x2C }
  - { offsetInCU: 0x467F4, offset: 0x467F4, size: 0x8, addend: 0x0, symName: __ZNSt3__19allocatorIPNS_16__hash_node_baseIPNS_11__hash_nodeINS_17__hash_value_typeI5ValueiEEPvEEEEE8allocateB7v160006Em, symObjAddr: 0xAEA04, symBinAddr: 0x1000B1AA8, symSize: 0xCC }
  - { offsetInCU: 0x46833, offset: 0x46833, size: 0x8, addend: 0x0, symName: __ZNSt3__116allocator_traitsINS_9allocatorIPNS_16__hash_node_baseIPNS_11__hash_nodeINS_17__hash_value_typeI5ValueiEEPvEEEEEEE8max_sizeB7v160006ISC_vEEmRKSC_, symObjAddr: 0xAEAD0, symBinAddr: 0x1000B1B74, symSize: 0x24 }
  - { offsetInCU: 0x46861, offset: 0x46861, size: 0x8, addend: 0x0, symName: __ZNKSt3__19allocatorIPNS_16__hash_node_baseIPNS_11__hash_nodeINS_17__hash_value_typeI5ValueiEEPvEEEEE8max_sizeB7v160006Ev, symObjAddr: 0xAEAF4, symBinAddr: 0x1000B1B98, symSize: 0x4C }
  - { offsetInCU: 0x46887, offset: 0x46887, size: 0x8, addend: 0x0, symName: __ZNKSt3__117__compressed_pairIPNS_11__hash_nodeINS_17__hash_value_typeI5ValueiEEPvEENS_22__hash_node_destructorINS_9allocatorIS6_EEEEE5firstB7v160006Ev, symObjAddr: 0xAEB40, symBinAddr: 0x1000B1BE4, symSize: 0x124 }
  - { offsetInCU: 0x468AD, offset: 0x468AD, size: 0x8, addend: 0x0, symName: __ZNKSt3__122__compressed_pair_elemIPNS_11__hash_nodeINS_17__hash_value_typeI5ValueiEEPvEELi0ELb0EE5__getB7v160006Ev, symObjAddr: 0xAEC64, symBinAddr: 0x1000B1D08, symSize: 0xAC }
  - { offsetInCU: 0x468D3, offset: 0x468D3, size: 0x8, addend: 0x0, symName: __ZNSt3__117__compressed_pairIPNS_11__hash_nodeINS_17__hash_value_typeI5ValueiEEPvEENS_22__hash_node_destructorINS_9allocatorIS6_EEEEE5firstB7v160006Ev, symObjAddr: 0xAED10, symBinAddr: 0x1000B1DB4, symSize: 0x124 }
  - { offsetInCU: 0x468F9, offset: 0x468F9, size: 0x8, addend: 0x0, symName: __ZNSt3__122__compressed_pair_elemIPNS_11__hash_nodeINS_17__hash_value_typeI5ValueiEEPvEELi0ELb0EE5__getB7v160006Ev, symObjAddr: 0xAEE34, symBinAddr: 0x1000B1ED8, symSize: 0xAC }
  - { offsetInCU: 0x4691F, offset: 0x4691F, size: 0x8, addend: 0x0, symName: __ZNSt3__110unique_ptrINS_11__hash_nodeINS_17__hash_value_typeI5ValueiEEPvEENS_22__hash_node_destructorINS_9allocatorIS6_EEEEED2B7v160006Ev, symObjAddr: 0xAEEE0, symBinAddr: 0x1000B1F84, symSize: 0x7C }
  - { offsetInCU: 0x46949, offset: 0x46949, size: 0x8, addend: 0x0, symName: __ZNSt3__110unique_ptrINS_11__hash_nodeINS_17__hash_value_typeI5ValueiEEPvEENS_22__hash_node_destructorINS_9allocatorIS6_EEEEE5resetB7v160006EPS6_, symObjAddr: 0xAEF5C, symBinAddr: 0x1000B2000, symSize: 0x2CC }
  - { offsetInCU: 0x4698D, offset: 0x4698D, size: 0x8, addend: 0x0, symName: __ZNSt3__122__hash_node_destructorINS_9allocatorINS_11__hash_nodeINS_17__hash_value_typeI5ValueiEEPvEEEEEclB7v160006EPS7_, symObjAddr: 0xAF228, symBinAddr: 0x1000B22CC, symSize: 0x2BC }
  - { offsetInCU: 0x469C2, offset: 0x469C2, size: 0x8, addend: 0x0, symName: __ZNSt3__115__hash_iteratorIPNS_11__hash_nodeINS_17__hash_value_typeI5ValueiEEPvEEEC2B7v160006EPNS_16__hash_node_baseIS7_EEPKv, symObjAddr: 0xAF4E4, symBinAddr: 0x1000B2588, symSize: 0xCC }
  - { offsetInCU: 0x46A0A, offset: 0x46A0A, size: 0x8, addend: 0x0, symName: __ZNSt3__14pairINS_15__hash_iteratorIPNS_11__hash_nodeINS_17__hash_value_typeI5ValueiEEPvEEEEbEC2B7v160006IS9_RbLS6_0EEEOT_OT0_, symObjAddr: 0xAF5B0, symBinAddr: 0x1000B2654, symSize: 0x1C8 }
  - { offsetInCU: 0x46A68, offset: 0x46A68, size: 0x8, addend: 0x0, symName: __ZNSt3__15tupleIJRK5ValueEEC1B7v160006INS_4_AndELi0EEES3_, symObjAddr: 0xAF778, symBinAddr: 0x1000B281C, symSize: 0x80 }
  - { offsetInCU: 0x46AB0, offset: 0x46AB0, size: 0x8, addend: 0x0, symName: __ZNSt3__15tupleIJRK5ValueEEC2B7v160006INS_4_AndELi0EEES3_, symObjAddr: 0xAF7F8, symBinAddr: 0x1000B289C, symSize: 0xC8 }
  - { offsetInCU: 0x46AF8, offset: 0x46AF8, size: 0x8, addend: 0x0, symName: __ZNSt3__112__tuple_implINS_15__tuple_indicesIJLm0EEEEJRK5ValueEEC1B7v160006IJLm0EEJS5_EJEJEJS5_EEENS1_IJXspT_EEEENS_13__tuple_typesIJDpT0_EEENS1_IJXspT1_EEEENS9_IJDpT2_EEEDpOT3_, symObjAddr: 0xAF8C0, symBinAddr: 0x1000B2964, symSize: 0x80 }
  - { offsetInCU: 0x46B8D, offset: 0x46B8D, size: 0x8, addend: 0x0, symName: __ZNSt3__112__tuple_implINS_15__tuple_indicesIJLm0EEEEJRK5ValueEEC2B7v160006IJLm0EEJS5_EJEJEJS5_EEENS1_IJXspT_EEEENS_13__tuple_typesIJDpT0_EEENS1_IJXspT1_EEEENS9_IJDpT2_EEEDpOT3_, symObjAddr: 0xAF940, symBinAddr: 0x1000B29E4, symSize: 0x10C }
  - { offsetInCU: 0x46C22, offset: 0x46C22, size: 0x8, addend: 0x0, symName: __ZNSt3__112__tuple_leafILm0ERK5ValueLb0EEC2B7v160006IS3_vEEOT_, symObjAddr: 0xAFA4C, symBinAddr: 0x1000B2AF0, symSize: 0x108 }
  - { offsetInCU: 0x46C65, offset: 0x46C65, size: 0x8, addend: 0x0, symName: __ZNSt3__114pointer_traitsIPNS_17__hash_value_typeI5ValueiEEE10pointer_toB7v160006ERS3_, symObjAddr: 0xAFB54, symBinAddr: 0x1000B2BF8, symSize: 0x14 }
  - { offsetInCU: 0x46C88, offset: 0x46C88, size: 0x8, addend: 0x0, symName: __ZNSt3__16vectorI4CardNS_9allocatorIS1_EEE22__construct_one_at_endB7v160006IJRKS1_EEEvDpOT_, symObjAddr: 0xAFB68, symBinAddr: 0x1000B2C0C, symSize: 0x550 }
  - { offsetInCU: 0x46CDD, offset: 0x46CDD, size: 0x8, addend: 0x0, symName: __ZNSt3__16vectorI4CardNS_9allocatorIS1_EEE21__push_back_slow_pathIRKS1_EEvOT_, symObjAddr: 0xB00B8, symBinAddr: 0x1000B315C, symSize: 0x5B0 }
  - { offsetInCU: 0x46D42, offset: 0x46D42, size: 0x8, addend: 0x0, symName: __ZNSt3__116allocator_traitsINS_9allocatorI4CardEEE9constructB7v160006IS2_JRKS2_EvEEvRS3_PT_DpOT0_, symObjAddr: 0xB0668, symBinAddr: 0x1000B370C, symSize: 0x8C }
  - { offsetInCU: 0x46D99, offset: 0x46D99, size: 0x8, addend: 0x0, symName: __ZNSt3__19allocatorI4CardE9constructB7v160006IS1_JRKS1_EEEvPT_DpOT0_, symObjAddr: 0xB06F4, symBinAddr: 0x1000B3798, symSize: 0xA8 }
  - { offsetInCU: 0x46DEF, offset: 0x46DEF, size: 0x8, addend: 0x0, symName: __ZNSt3__16vectorI4CardNS_9allocatorIS1_EEE4swapERS4_, symObjAddr: 0xB079C, symBinAddr: 0x1000B3840, symSize: 0x32C }
  - { offsetInCU: 0x46E26, offset: 0x46E26, size: 0x8, addend: 0x0, symName: __ZNSt3__16vectorI4CardNS_9allocatorIS1_EEE17__destruct_at_endB7v160006EPS1_, symObjAddr: 0xB0AF0, symBinAddr: 0x1000B3B94, symSize: 0xB0 }
  - { offsetInCU: 0x46E6A, offset: 0x46E6A, size: 0x8, addend: 0x0, symName: __ZNSt3__16vectorI4CardNS_9allocatorIS1_EEE27__invalidate_iterators_pastB7v160006EPS1_, symObjAddr: 0xB0BA0, symBinAddr: 0x1000B3C44, symSize: 0x64 }
  - { offsetInCU: 0x46EA1, offset: 0x46EA1, size: 0x8, addend: 0x0, symName: __ZNSt3__16vectorI4CardNS_9allocatorIS1_EEEC2ERKS4_, symObjAddr: 0xB0C04, symBinAddr: 0x1000B3CA8, symSize: 0x6A4 }
  - { offsetInCU: 0x46F07, offset: 0x46F07, size: 0x8, addend: 0x0, symName: __ZNSt3__116allocator_traitsINS_9allocatorI4CardEEE37select_on_container_copy_constructionB7v160006IS3_vvEES3_RKS3_, symObjAddr: 0xB12A8, symBinAddr: 0x1000B434C, symSize: 0x10 }
  - { offsetInCU: 0x46F3C, offset: 0x46F3C, size: 0x8, addend: 0x0, symName: __ZNSt3__117__compressed_pairIP4CardNS_9allocatorIS1_EEEC1B7v160006IDnS4_EEOT_OT0_, symObjAddr: 0xB12B8, symBinAddr: 0x1000B435C, symSize: 0x88 }
  - { offsetInCU: 0x46F94, offset: 0x46F94, size: 0x8, addend: 0x0, symName: __ZNSt3__16vectorI4CardNS_9allocatorIS1_EEE11__vallocateB7v160006Em, symObjAddr: 0xB15FC, symBinAddr: 0x1000B46A0, symSize: 0x5E8 }
  - { offsetInCU: 0x46FDE, offset: 0x46FDE, size: 0x8, addend: 0x0, symName: __ZNSt3__16vectorI4CardNS_9allocatorIS1_EEE18__construct_at_endIPS1_Li0EEEvT_S7_m, symObjAddr: 0xB1BE4, symBinAddr: 0x1000B4C88, symSize: 0x494 }
  - { offsetInCU: 0x47059, offset: 0x47059, size: 0x8, addend: 0x0, symName: __ZNSt3__128__exception_guard_exceptionsINS_6vectorI4CardNS_9allocatorIS2_EEE16__destroy_vectorEE10__completeB7v160006Ev, symObjAddr: 0xB2078, symBinAddr: 0x1000B511C, symSize: 0xD8 }
  - { offsetInCU: 0x4707F, offset: 0x4707F, size: 0x8, addend: 0x0, symName: __ZNSt3__128__exception_guard_exceptionsINS_6vectorI4CardNS_9allocatorIS2_EEE16__destroy_vectorEED1B7v160006Ev, symObjAddr: 0xB2150, symBinAddr: 0x1000B51F4, symSize: 0x78 }
  - { offsetInCU: 0x470A9, offset: 0x470A9, size: 0x8, addend: 0x0, symName: __ZNSt3__117__compressed_pairIP4CardNS_9allocatorIS1_EEEC2B7v160006IDnS4_EEOT_OT0_, symObjAddr: 0xB21C8, symBinAddr: 0x1000B526C, symSize: 0x170 }
  - { offsetInCU: 0x47101, offset: 0x47101, size: 0x8, addend: 0x0, symName: __ZNSt3__122__compressed_pair_elemINS_9allocatorI4CardEELi1ELb1EEC2B7v160006IS3_vEEOT_, symObjAddr: 0xB2338, symBinAddr: 0x1000B53DC, symSize: 0x58 }
  - { offsetInCU: 0x47143, offset: 0x47143, size: 0x8, addend: 0x0, symName: __ZNSt3__128__exception_guard_exceptionsINS_6vectorI4CardNS_9allocatorIS2_EEE16__destroy_vectorEEC1B7v160006ES6_, symObjAddr: 0xB2390, symBinAddr: 0x1000B5434, symSize: 0x28C }
  - { offsetInCU: 0x47180, offset: 0x47180, size: 0x8, addend: 0x0, symName: __ZNSt3__128__exception_guard_exceptionsINS_6vectorI4CardNS_9allocatorIS2_EEE16__destroy_vectorEEC2B7v160006ES6_, symObjAddr: 0xB261C, symBinAddr: 0x1000B56C0, symSize: 0x2BC }
  - { offsetInCU: 0x471BD, offset: 0x471BD, size: 0x8, addend: 0x0, symName: __ZNSt3__129_AllocatorDestroyRangeReverseINS_9allocatorI4CardEEPS2_EC1B7v160006ERS3_RS4_S7_, symObjAddr: 0xB3200, symBinAddr: 0x1000B62A4, symSize: 0x90 }
  - { offsetInCU: 0x47214, offset: 0x47214, size: 0x8, addend: 0x0, symName: __ZNSt3__116allocator_traitsINS_9allocatorI4CardEEE9constructB7v160006IS2_JRS2_EvEEvRS3_PT_DpOT0_, symObjAddr: 0xB3290, symBinAddr: 0x1000B6334, symSize: 0x8C }
  - { offsetInCU: 0x4726B, offset: 0x4726B, size: 0x8, addend: 0x0, symName: __ZNSt3__128__exception_guard_exceptionsINS_29_AllocatorDestroyRangeReverseINS_9allocatorI4CardEEPS3_EEE10__completeB7v160006Ev, symObjAddr: 0xB331C, symBinAddr: 0x1000B63C0, symSize: 0xD8 }
  - { offsetInCU: 0x47291, offset: 0x47291, size: 0x8, addend: 0x0, symName: __ZNSt3__128__exception_guard_exceptionsINS_29_AllocatorDestroyRangeReverseINS_9allocatorI4CardEEPS3_EEED1B7v160006Ev, symObjAddr: 0xB33F4, symBinAddr: 0x1000B6498, symSize: 0x78 }
  - { offsetInCU: 0x472BB, offset: 0x472BB, size: 0x8, addend: 0x0, symName: __ZNSt3__128__exception_guard_exceptionsINS_29_AllocatorDestroyRangeReverseINS_9allocatorI4CardEEPS3_EEEC1B7v160006ES6_, symObjAddr: 0xB346C, symBinAddr: 0x1000B6510, symSize: 0x84 }
  - { offsetInCU: 0x472F4, offset: 0x472F4, size: 0x8, addend: 0x0, symName: __ZNSt3__128__exception_guard_exceptionsINS_29_AllocatorDestroyRangeReverseINS_9allocatorI4CardEEPS3_EEEC2B7v160006ES6_, symObjAddr: 0xB34F0, symBinAddr: 0x1000B6594, symSize: 0xF8 }
  - { offsetInCU: 0x4732D, offset: 0x4732D, size: 0x8, addend: 0x0, symName: __ZNSt3__129_AllocatorDestroyRangeReverseINS_9allocatorI4CardEEPS2_EC2B7v160006ERS3_RS4_S7_, symObjAddr: 0xB35E8, symBinAddr: 0x1000B668C, symSize: 0x20C }
  - { offsetInCU: 0x47384, offset: 0x47384, size: 0x8, addend: 0x0, symName: __ZNSt3__19allocatorI4CardE9constructB7v160006IS1_JRS1_EEEvPT_DpOT0_, symObjAddr: 0xB37F4, symBinAddr: 0x1000B6898, symSize: 0xA8 }
  - { offsetInCU: 0x473DA, offset: 0x473DA, size: 0x8, addend: 0x0, symName: __ZNSt3__128__exception_guard_exceptionsINS_29_AllocatorDestroyRangeReverseINS_9allocatorI4CardEEPS3_EEED2B7v160006Ev, symObjAddr: 0xB389C, symBinAddr: 0x1000B6940, symSize: 0x17C }
  - { offsetInCU: 0x47404, offset: 0x47404, size: 0x8, addend: 0x0, symName: __ZNKSt3__129_AllocatorDestroyRangeReverseINS_9allocatorI4CardEEPS2_EclB7v160006Ev, symObjAddr: 0xB3A18, symBinAddr: 0x1000B6ABC, symSize: 0x40C }
  - { offsetInCU: 0x47431, offset: 0x47431, size: 0x8, addend: 0x0, symName: __ZNSt3__119__to_address_helperINS_16reverse_iteratorIP4CardEEvE6__callB7v160006ERKS4_, symObjAddr: 0xB416C, symBinAddr: 0x1000B7210, symSize: 0x70 }
  - { offsetInCU: 0x47454, offset: 0x47454, size: 0x8, addend: 0x0, symName: __ZNKSt3__116reverse_iteratorIP4CardEptB7v160006Ev, symObjAddr: 0xB41DC, symBinAddr: 0x1000B7280, symSize: 0x6C }
  - { offsetInCU: 0x4747A, offset: 0x4747A, size: 0x8, addend: 0x0, symName: __ZNSt3__128__exception_guard_exceptionsINS_6vectorI4CardNS_9allocatorIS2_EEE16__destroy_vectorEED2B7v160006Ev, symObjAddr: 0xB4248, symBinAddr: 0x1000B72EC, symSize: 0x17C }
  - { offsetInCU: 0x474AF, offset: 0x474AF, size: 0x8, addend: 0x0, symName: '__ZZN8CheckWin13StraightFlushER5ValueENK3$_1clER4Card', symObjAddr: 0xB52BC, symBinAddr: 0x1000B8360, symSize: 0x218 }
  - { offsetInCU: 0x474E7, offset: 0x474E7, size: 0x8, addend: 0x0, symName: __ZNSt3__111__wrap_iterIP4CardEmmB7v160006Ev, symObjAddr: 0xB54D4, symBinAddr: 0x1000B8578, symSize: 0x1A8 }
  - { offsetInCU: 0x4750D, offset: 0x4750D, size: 0x8, addend: 0x0, symName: __ZNSt3__18_IterOpsINS_17_ClassicAlgPolicyEE8distanceB7v160006INS_11__wrap_iterIP4CardEEEENS_15iterator_traitsIT_E15difference_typeES9_S9_, symObjAddr: 0xB567C, symBinAddr: 0x1000B8720, symSize: 0x350 }
  - { offsetInCU: 0x47577, offset: 0x47577, size: 0x8, addend: 0x0, symName: __ZNSt3__14pairIP4CardlEC1B7v160006ILb1ELPv0EEERKS2_RKl, symObjAddr: 0xB59CC, symBinAddr: 0x1000B8A70, symSize: 0x88 }
  - { offsetInCU: 0x47640, offset: 0x47640, size: 0x8, addend: 0x0, symName: __ZNSt3__110unique_ptrI4CardNS_25__return_temporary_bufferEEC1B7v160006ILb1EvEEv, symObjAddr: 0xB5A54, symBinAddr: 0x1000B8AF8, symSize: 0x78 }
  - { offsetInCU: 0x47675, offset: 0x47675, size: 0x8, addend: 0x0, symName: __ZNSt3__14pairIP4CardlEaSB7v160006EOS3_, symObjAddr: 0xB5F60, symBinAddr: 0x1000B9004, symSize: 0x248 }
  - { offsetInCU: 0x476AA, offset: 0x476AA, size: 0x8, addend: 0x0, symName: __ZNSt3__110unique_ptrI4CardNS_25__return_temporary_bufferEE5resetB7v160006EPS1_, symObjAddr: 0xB61A8, symBinAddr: 0x1000B924C, symSize: 0x2C4 }
  - { offsetInCU: 0x476EE, offset: 0x476EE, size: 0x8, addend: 0x0, symName: __ZNSt3__110unique_ptrI4CardNS_25__return_temporary_bufferEED1B7v160006Ev, symObjAddr: 0xB7C6C, symBinAddr: 0x1000BAD10, symSize: 0x78 }
  - { offsetInCU: 0x47718, offset: 0x47718, size: 0x8, addend: 0x0, symName: __ZNSt3__14pairIP4CardlEC2B7v160006ILb1ELPv0EEERKS2_RKl, symObjAddr: 0xB8344, symBinAddr: 0x1000BB3E8, symSize: 0x188 }
  - { offsetInCU: 0x4776E, offset: 0x4776E, size: 0x8, addend: 0x0, symName: __ZNSt3__110unique_ptrI4CardNS_25__return_temporary_bufferEEC2B7v160006ILb1EvEEv, symObjAddr: 0xB84CC, symBinAddr: 0x1000BB570, symSize: 0x268 }
  - { offsetInCU: 0x477A4, offset: 0x477A4, size: 0x8, addend: 0x0, symName: __ZNSt3__117__compressed_pairIP4CardNS_25__return_temporary_bufferEEC1B7v160006INS_16__value_init_tagES6_EEOT_OT0_, symObjAddr: 0xB8734, symBinAddr: 0x1000BB7D8, symSize: 0x88 }
  - { offsetInCU: 0x477FC, offset: 0x477FC, size: 0x8, addend: 0x0, symName: __ZNSt3__117__compressed_pairIP4CardNS_25__return_temporary_bufferEEC2B7v160006INS_16__value_init_tagES6_EEOT_OT0_, symObjAddr: 0xB87BC, symBinAddr: 0x1000BB860, symSize: 0xF4 }
  - { offsetInCU: 0x47854, offset: 0x47854, size: 0x8, addend: 0x0, symName: __ZNSt3__122__compressed_pair_elemIP4CardLi0ELb0EEC2B7v160006ENS_16__value_init_tagE, symObjAddr: 0xB88B0, symBinAddr: 0x1000BB954, symSize: 0xB8 }
  - { offsetInCU: 0x47888, offset: 0x47888, size: 0x8, addend: 0x0, symName: __ZNSt3__122__compressed_pair_elemINS_25__return_temporary_bufferELi1ELb1EEC2B7v160006ENS_16__value_init_tagE, symObjAddr: 0xB8968, symBinAddr: 0x1000BBA0C, symSize: 0x54 }
  - { offsetInCU: 0x478BC, offset: 0x478BC, size: 0x8, addend: 0x0, symName: __ZNSt3__117__compressed_pairIP4CardNS_25__return_temporary_bufferEE5firstB7v160006Ev, symObjAddr: 0xB89BC, symBinAddr: 0x1000BBA60, symSize: 0x124 }
  - { offsetInCU: 0x478E2, offset: 0x478E2, size: 0x8, addend: 0x0, symName: __ZNSt3__117__compressed_pairIP4CardNS_25__return_temporary_bufferEE6secondB7v160006Ev, symObjAddr: 0xB8AE0, symBinAddr: 0x1000BBB84, symSize: 0x108 }
  - { offsetInCU: 0x4790E, offset: 0x4790E, size: 0x8, addend: 0x0, symName: __ZNKSt3__125__return_temporary_bufferclB7v160006I4CardEEvPT_, symObjAddr: 0xB8BE8, symBinAddr: 0x1000BBC8C, symSize: 0x54 }
  - { offsetInCU: 0x4794B, offset: 0x4794B, size: 0x8, addend: 0x0, symName: __ZNSt3__122__compressed_pair_elemINS_25__return_temporary_bufferELi1ELb1EE5__getB7v160006Ev, symObjAddr: 0xB8C3C, symBinAddr: 0x1000BBCE0, symSize: 0x74 }
  - { offsetInCU: 0x47971, offset: 0x47971, size: 0x8, addend: 0x0, symName: __ZNSt3__18_IterOpsINS_17_ClassicAlgPolicyEE9iter_swapB7v160006IRNS_11__wrap_iterIP4CardEES8_EEvOT_OT0_, symObjAddr: 0xB8D40, symBinAddr: 0x1000BBDE4, symSize: 0x290 }
  - { offsetInCU: 0x479BC, offset: 0x479BC, size: 0x8, addend: 0x0, symName: __ZNSt3__112__destruct_nC1B7v160006Em, symObjAddr: 0xB8FD0, symBinAddr: 0x1000BC074, symSize: 0x80 }
  - { offsetInCU: 0x47A4B, offset: 0x47A4B, size: 0x8, addend: 0x0, symName: __ZNSt3__110unique_ptrI4CardRNS_12__destruct_nEEC1B7v160006ILb1EvEEPS1_NS_16__dependent_typeINS_27__unique_ptr_deleter_sfinaeIS3_EEXT_EE15__lval_ref_typeE, symObjAddr: 0xB9050, symBinAddr: 0x1000BC0F4, symSize: 0x88 }
  - { offsetInCU: 0x47A9C, offset: 0x47A9C, size: 0x8, addend: 0x0, symName: __ZNSt3__18_IterOpsINS_17_ClassicAlgPolicyEE11__iter_moveB7v160006IRNS_11__wrap_iterIP4CardEEEENS_9enable_ifIXsr12is_referenceIDTdeclsr3stdE7declvalIRT_EEEEE5valueEDTclsr3stdE4movedeclsr3stdE7declvalISB_EEEEE4typeEOSA_, symObjAddr: 0xB90D8, symBinAddr: 0x1000BC17C, symSize: 0xB8 }
  - { offsetInCU: 0x47AC8, offset: 0x47AC8, size: 0x8, addend: 0x0, symName: __ZNSt3__112__destruct_n6__incrB7v160006I4CardEEvv, symObjAddr: 0xB9190, symBinAddr: 0x1000BC234, symSize: 0x6C }
  - { offsetInCU: 0x47AF7, offset: 0x47AF7, size: 0x8, addend: 0x0, symName: __ZNSt3__110unique_ptrI4CardRNS_12__destruct_nEED1B7v160006Ev, symObjAddr: 0xB91FC, symBinAddr: 0x1000BC2A0, symSize: 0x78 }
  - { offsetInCU: 0x47B21, offset: 0x47B21, size: 0x8, addend: 0x0, symName: __ZNSt3__18_IterOpsINS_17_ClassicAlgPolicyEE7advanceB7v160006INS_11__wrap_iterIP4CardEElEEvRT_T0_, symObjAddr: 0xB9274, symBinAddr: 0x1000BC318, symSize: 0x74 }
  - { offsetInCU: 0x47B64, offset: 0x47B64, size: 0x8, addend: 0x0, symName: __ZNSt3__112__destruct_nC2B7v160006Em, symObjAddr: 0xB9C60, symBinAddr: 0x1000BCD04, symSize: 0xC8 }
  - { offsetInCU: 0x47B9C, offset: 0x47B9C, size: 0x8, addend: 0x0, symName: __ZNSt3__110unique_ptrI4CardRNS_12__destruct_nEEC2B7v160006ILb1EvEEPS1_NS_16__dependent_typeINS_27__unique_ptr_deleter_sfinaeIS3_EEXT_EE15__lval_ref_typeE, symObjAddr: 0xB9D28, symBinAddr: 0x1000BCDCC, symSize: 0x2BC }
  - { offsetInCU: 0x47BF3, offset: 0x47BF3, size: 0x8, addend: 0x0, symName: __ZNSt3__117__compressed_pairIP4CardRNS_12__destruct_nEEC1B7v160006IRS2_S4_EEOT_OT0_, symObjAddr: 0xB9FE4, symBinAddr: 0x1000BD088, symSize: 0x88 }
  - { offsetInCU: 0x47C4B, offset: 0x47C4B, size: 0x8, addend: 0x0, symName: __ZNSt3__117__compressed_pairIP4CardRNS_12__destruct_nEEC2B7v160006IRS2_S4_EEOT_OT0_, symObjAddr: 0xBA06C, symBinAddr: 0x1000BD110, symSize: 0x1B4 }
  - { offsetInCU: 0x47CA3, offset: 0x47CA3, size: 0x8, addend: 0x0, symName: __ZNSt3__122__compressed_pair_elemIP4CardLi0ELb0EEC2B7v160006IRS2_vEEOT_, symObjAddr: 0xBA220, symBinAddr: 0x1000BD2C4, symSize: 0x144 }
  - { offsetInCU: 0x47CE5, offset: 0x47CE5, size: 0x8, addend: 0x0, symName: __ZNSt3__122__compressed_pair_elemIRNS_12__destruct_nELi1ELb0EEC2B7v160006IS2_vEEOT_, symObjAddr: 0xBA364, symBinAddr: 0x1000BD408, symSize: 0x108 }
  - { offsetInCU: 0x47D27, offset: 0x47D27, size: 0x8, addend: 0x0, symName: __ZNSt3__18_IterOpsINS_17_ClassicAlgPolicyEE25__validate_iter_referenceB7v160006IRNS_11__wrap_iterIP4CardEEEEvv, symObjAddr: 0xBA46C, symBinAddr: 0x1000BD510, symSize: 0x4 }
  - { offsetInCU: 0x47D45, offset: 0x47D45, size: 0x8, addend: 0x0, symName: __ZNSt3__112__destruct_n6__incrB7v160006ENS_17integral_constantIbLb1EEE, symObjAddr: 0xBA470, symBinAddr: 0x1000BD514, symSize: 0x60 }
  - { offsetInCU: 0x47D75, offset: 0x47D75, size: 0x8, addend: 0x0, symName: __ZNSt3__110unique_ptrI4CardRNS_12__destruct_nEED2B7v160006Ev, symObjAddr: 0xBA4D0, symBinAddr: 0x1000BD574, symSize: 0x7C }
  - { offsetInCU: 0x47D9F, offset: 0x47D9F, size: 0x8, addend: 0x0, symName: __ZNSt3__110unique_ptrI4CardRNS_12__destruct_nEE5resetB7v160006EPS1_, symObjAddr: 0xBA54C, symBinAddr: 0x1000BD5F0, symSize: 0x2CC }
  - { offsetInCU: 0x47DE3, offset: 0x47DE3, size: 0x8, addend: 0x0, symName: __ZNSt3__117__compressed_pairIP4CardRNS_12__destruct_nEE5firstB7v160006Ev, symObjAddr: 0xBA818, symBinAddr: 0x1000BD8BC, symSize: 0x124 }
  - { offsetInCU: 0x47E09, offset: 0x47E09, size: 0x8, addend: 0x0, symName: __ZNSt3__117__compressed_pairIP4CardRNS_12__destruct_nEE6secondB7v160006Ev, symObjAddr: 0xBA93C, symBinAddr: 0x1000BD9E0, symSize: 0x12C }
  - { offsetInCU: 0x47E2F, offset: 0x47E2F, size: 0x8, addend: 0x0, symName: __ZNSt3__112__destruct_nclB7v160006I4CardEEvPT_, symObjAddr: 0xBAA68, symBinAddr: 0x1000BDB0C, symSize: 0x74 }
  - { offsetInCU: 0x47E6C, offset: 0x47E6C, size: 0x8, addend: 0x0, symName: __ZNSt3__122__compressed_pair_elemIRNS_12__destruct_nELi1ELb0EE5__getB7v160006Ev, symObjAddr: 0xBAADC, symBinAddr: 0x1000BDB80, symSize: 0xF4 }
  - { offsetInCU: 0x47E92, offset: 0x47E92, size: 0x8, addend: 0x0, symName: __ZNSt3__112__destruct_n9__processB7v160006I4CardEEvPT_NS_17integral_constantIbLb1EEE, symObjAddr: 0xBABD0, symBinAddr: 0x1000BDC74, symSize: 0x64 }
  - { offsetInCU: 0x47ED5, offset: 0x47ED5, size: 0x8, addend: 0x0, symName: __ZNSt3__111__wrap_iterIP4CardEpLB7v160006El, symObjAddr: 0xBAD5C, symBinAddr: 0x1000BDE00, symSize: 0x228 }
  - { offsetInCU: 0x47F09, offset: 0x47F09, size: 0x8, addend: 0x0, symName: __ZNSt3__18_IterOpsINS_17_ClassicAlgPolicyEE4nextB7v160006INS_11__wrap_iterIP4CardEEEET_S8_S8_, symObjAddr: 0xBAF84, symBinAddr: 0x1000BE028, symSize: 0x2D4 }
  - { offsetInCU: 0x47F64, offset: 0x47F64, size: 0x8, addend: 0x0, symName: __ZNSt3__14pairINS_11__wrap_iterIP4CardEES4_EC1B7v160006IRS4_S7_LPv0EEEOT_OT0_, symObjAddr: 0xBB258, symBinAddr: 0x1000BE2FC, symSize: 0x88 }
  - { offsetInCU: 0x47FC8, offset: 0x47FC8, size: 0x8, addend: 0x0, symName: __ZNSt3__14pairINS_11__wrap_iterIP4CardEES4_EC1B7v160006IS4_S4_LPv0EEEOT_OT0_, symObjAddr: 0xBB2E0, symBinAddr: 0x1000BE384, symSize: 0x88 }
  - { offsetInCU: 0x48026, offset: 0x48026, size: 0x8, addend: 0x0, symName: __ZNSt3__14pairINS_11__wrap_iterIP4CardEES4_EC2B7v160006IRS4_S7_LPv0EEEOT_OT0_, symObjAddr: 0xBBB18, symBinAddr: 0x1000BEBBC, symSize: 0xA0 }
  - { offsetInCU: 0x48084, offset: 0x48084, size: 0x8, addend: 0x0, symName: __ZNSt3__14pairINS_11__wrap_iterIP4CardEES4_EC2B7v160006IS4_S4_LPv0EEEOT_OT0_, symObjAddr: 0xBBBB8, symBinAddr: 0x1000BEC5C, symSize: 0xA0 }
  - { offsetInCU: 0x480E2, offset: 0x480E2, size: 0x8, addend: 0x0, symName: __ZNSt3__18_IterOpsINS_17_ClassicAlgPolicyEE4nextB7v160006IRNS_11__wrap_iterIP4CardEEEEu14__remove_cvrefIT_EOS9_NS_15iterator_traitsISA_E15difference_typeE, symObjAddr: 0xBBC58, symBinAddr: 0x1000BECFC, symSize: 0x2C4 }
  - { offsetInCU: 0x4813B, offset: 0x4813B, size: 0x8, addend: 0x0, symName: __ZNKSt3__114__move_trivialclB7v160006I4CardS2_Li0EEENS_4pairIPT_PT0_EES5_S5_S7_, symObjAddr: 0xBED68, symBinAddr: 0x1000C1E0C, symSize: 0x25C }
  - { offsetInCU: 0x481AD, offset: 0x481AD, size: 0x8, addend: 0x0, symName: __ZNSt3__14pairIP4CardS2_EC1B7v160006IS2_S2_LPv0EEEOT_OT0_, symObjAddr: 0xBFB60, symBinAddr: 0x1000C2C04, symSize: 0x88 }
  - { offsetInCU: 0x4820B, offset: 0x4820B, size: 0x8, addend: 0x0, symName: __ZNSt3__14pairIP4CardS2_EC2B7v160006IS2_S2_LPv0EEEOT_OT0_, symObjAddr: 0xBFBE8, symBinAddr: 0x1000C2C8C, symSize: 0x210 }
  - { offsetInCU: 0x48269, offset: 0x48269, size: 0x8, addend: 0x0, symName: __ZNSt3__14pairIP4CardS2_EC1B7v160006IRS2_S2_LPv0EEEOT_OT0_, symObjAddr: 0xC051C, symBinAddr: 0x1000C35C0, symSize: 0x88 }
  - { offsetInCU: 0x482C7, offset: 0x482C7, size: 0x8, addend: 0x0, symName: __ZNSt3__14pairIP4CardS2_EC2B7v160006IRS2_S2_LPv0EEEOT_OT0_, symObjAddr: 0xC05A4, symBinAddr: 0x1000C3648, symSize: 0x210 }
  - { offsetInCU: 0x48325, offset: 0x48325, size: 0x8, addend: 0x0, symName: __ZNSt3__118__unwrap_iter_implINS_11__wrap_iterIP4CardEELb1EE8__rewrapB7v160006ES4_S3_, symObjAddr: 0xC07B4, symBinAddr: 0x1000C3858, symSize: 0x2D4 }
  - { offsetInCU: 0x4835B, offset: 0x4835B, size: 0x8, addend: 0x0, symName: __ZNKSt3__111__wrap_iterIP4CardEplB7v160006El, symObjAddr: 0xC0A88, symBinAddr: 0x1000C3B2C, symSize: 0x258 }
  - { offsetInCU: 0x483A3, offset: 0x483A3, size: 0x8, addend: 0x0, symName: __ZNSt3__18_IterOpsINS_17_ClassicAlgPolicyEE4prevB7v160006IRNS_11__wrap_iterIP4CardEEEEu14__remove_cvrefIT_EOS9_NS_15iterator_traitsISA_E15difference_typeE, symObjAddr: 0xC0CE0, symBinAddr: 0x1000C3D84, symSize: 0x2C4 }
  - { offsetInCU: 0x483DF, offset: 0x483DF, size: 0x8, addend: 0x0, symName: __ZNKSt3__123__move_backward_trivialclB7v160006I4CardS2_Li0EEENS_4pairIPT_PT0_EES5_S5_S7_, symObjAddr: 0xC2478, symBinAddr: 0x1000C551C, symSize: 0x25C }
  - { offsetInCU: 0x4844B, offset: 0x4844B, size: 0x8, addend: 0x0, symName: __ZNSt3__14pairIP4CardS2_EC1B7v160006IRS2_S5_LPv0EEEOT_OT0_, symObjAddr: 0xC2E58, symBinAddr: 0x1000C5EFC, symSize: 0x88 }
  - { offsetInCU: 0x484A9, offset: 0x484A9, size: 0x8, addend: 0x0, symName: __ZNSt3__14pairIP4CardS2_EC2B7v160006IRS2_S5_LPv0EEEOT_OT0_, symObjAddr: 0xC2EE0, symBinAddr: 0x1000C5F84, symSize: 0x210 }
  - { offsetInCU: 0x48507, offset: 0x48507, size: 0x8, addend: 0x0, symName: __ZNSt3__110unique_ptrI4CardNS_25__return_temporary_bufferEED2B7v160006Ev, symObjAddr: 0xC35BC, symBinAddr: 0x1000C6660, symSize: 0x7C }
  - { offsetInCU: 0x48531, offset: 0x48531, size: 0x8, addend: 0x0, symName: __ZNSt3__16vectorI4CardNS_9allocatorIS1_EEE19__copy_assign_allocB7v160006ERKS4_, symObjAddr: 0xC3638, symBinAddr: 0x1000C66DC, symSize: 0xBC }
  - { offsetInCU: 0x48566, offset: 0x48566, size: 0x8, addend: 0x0, symName: __ZNSt3__16vectorI4CardNS_9allocatorIS1_EEE6assignIPS1_Li0EEEvT_S7_, symObjAddr: 0xC36F4, symBinAddr: 0x1000C6798, symSize: 0x4B4 }
  - { offsetInCU: 0x48607, offset: 0x48607, size: 0x8, addend: 0x0, symName: __ZNSt3__16vectorI4CardNS_9allocatorIS1_EEE19__copy_assign_allocB7v160006ERKS4_NS_17integral_constantIbLb0EEE, symObjAddr: 0xC3BA8, symBinAddr: 0x1000C6C4C, symSize: 0x64 }
  - { offsetInCU: 0x48645, offset: 0x48645, size: 0x8, addend: 0x0, symName: __ZNSt3__16vectorI4CardNS_9allocatorIS1_EEE13__vdeallocateEv, symObjAddr: 0xC3F84, symBinAddr: 0x1000C7028, symSize: 0x23C }
  - { offsetInCU: 0x48678, offset: 0x48678, size: 0x8, addend: 0x0, symName: __ZNKSt3__114__copy_trivialclB7v160006I4CardS2_Li0EEENS_4pairIPT_PT0_EES5_S5_S7_, symObjAddr: 0xC5174, symBinAddr: 0x1000C8218, symSize: 0x25C }
  - { offsetInCU: 0x486E4, offset: 0x486E4, size: 0x8, addend: 0x0, symName: __ZNSt3__118__unwrap_iter_implIP4CardLb1EE8__unwrapB7v160006ES2_, symObjAddr: 0xC5468, symBinAddr: 0x1000C850C, symSize: 0x24 }
  - { offsetInCU: 0x48707, offset: 0x48707, size: 0x8, addend: 0x0, symName: __ZNSt3__118__unwrap_iter_implIP4CardLb1EE8__rewrapB7v160006ES2_S2_, symObjAddr: 0xC548C, symBinAddr: 0x1000C8530, symSize: 0x13C }
  - { offsetInCU: 0x48738, offset: 0x48738, size: 0x8, addend: 0x0, symName: __ZNSt3__112__hash_tableINS_17__hash_value_typeI5ValueiEENS_22__unordered_map_hasherIS2_S3_NS_4hashIS2_EENS_8equal_toIS2_EELb1EEENS_21__unordered_map_equalIS2_S3_S8_S6_Lb1EEENS_9allocatorIS3_EEE5beginEv, symObjAddr: 0xC55C8, symBinAddr: 0x1000C866C, symSize: 0x358 }
  - { offsetInCU: 0x48761, offset: 0x48761, size: 0x8, addend: 0x0, symName: __ZNSt3__119__hash_map_iteratorINS_15__hash_iteratorIPNS_11__hash_nodeINS_17__hash_value_typeI5ValueiEEPvEEEEEC1B7v160006ES9_, symObjAddr: 0xC5920, symBinAddr: 0x1000C89C4, symSize: 0x28C }
  - { offsetInCU: 0x4879F, offset: 0x4879F, size: 0x8, addend: 0x0, symName: __ZNSt3__119__hash_map_iteratorINS_15__hash_iteratorIPNS_11__hash_nodeINS_17__hash_value_typeI5ValueiEEPvEEEEEC2B7v160006ES9_, symObjAddr: 0xC5BAC, symBinAddr: 0x1000C8C50, symSize: 0x25C }
  - { offsetInCU: 0x487DD, offset: 0x487DD, size: 0x8, addend: 0x0, symName: __ZNSt3__112__hash_tableINS_17__hash_value_typeI5ValueiEENS_22__unordered_map_hasherIS2_S3_NS_4hashIS2_EENS_8equal_toIS2_EELb1EEENS_21__unordered_map_equalIS2_S3_S8_S6_Lb1EEENS_9allocatorIS3_EEE3endEv, symObjAddr: 0xC5E08, symBinAddr: 0x1000C8EAC, symSize: 0x248 }
  - { offsetInCU: 0x48806, offset: 0x48806, size: 0x8, addend: 0x0, symName: __ZNSt3__115__hash_iteratorIPNS_11__hash_nodeINS_17__hash_value_typeI5ValueiEEPvEEEppB7v160006Ev, symObjAddr: 0xC6228, symBinAddr: 0x1000C92CC, symSize: 0x1F0 }
  - { offsetInCU: 0x4882C, offset: 0x4882C, size: 0x8, addend: 0x0, symName: __ZNSt3__112__hash_tableINS_17__hash_value_typeI5ValueiEENS_22__unordered_map_hasherIS2_S3_NS_4hashIS2_EENS_8equal_toIS2_EELb1EEENS_21__unordered_map_equalIS2_S3_S8_S6_Lb1EEENS_9allocatorIS3_EEE25__emplace_unique_key_argsIS2_JRKNS_21piecewise_construct_tENS_5tupleIJOS2_EEENSJ_IJEEEEEENS_4pairINS_15__hash_iteratorIPNS_11__hash_nodeIS3_PvEEEEbEERKT_DpOT0_, symObjAddr: 0xC6418, symBinAddr: 0x1000C94BC, symSize: 0x1D00 }
  - { offsetInCU: 0x4893F, offset: 0x4893F, size: 0x8, addend: 0x0, symName: __ZNSt3__112__hash_tableINS_17__hash_value_typeI5ValueiEENS_22__unordered_map_hasherIS2_S3_NS_4hashIS2_EENS_8equal_toIS2_EELb1EEENS_21__unordered_map_equalIS2_S3_S8_S6_Lb1EEENS_9allocatorIS3_EEE21__construct_node_hashIRKNS_21piecewise_construct_tEJNS_5tupleIJOS2_EEENSJ_IJEEEEEENS_10unique_ptrINS_11__hash_nodeIS3_PvEENS_22__hash_node_destructorINSC_ISQ_EEEEEEmOT_DpOT0_, symObjAddr: 0xC835C, symBinAddr: 0x1000CB400, symSize: 0x948 }
  - { offsetInCU: 0x489E2, offset: 0x489E2, size: 0x8, addend: 0x0, symName: __ZNSt3__116allocator_traitsINS_9allocatorINS_11__hash_nodeINS_17__hash_value_typeI5ValueiEEPvEEEEE9constructB7v160006INS_4pairIKS4_iEEJRKNS_21piecewise_construct_tENS_5tupleIJOS4_EEENSH_IJEEEEvEEvRS8_PT_DpOT0_, symObjAddr: 0xC8CA4, symBinAddr: 0x1000CBD48, symSize: 0xF4 }
  - { offsetInCU: 0x48A61, offset: 0x48A61, size: 0x8, addend: 0x0, symName: __ZNSt3__19allocatorINS_11__hash_nodeINS_17__hash_value_typeI5ValueiEEPvEEE9constructB7v160006INS_4pairIKS3_iEEJRKNS_21piecewise_construct_tENS_5tupleIJOS3_EEENSF_IJEEEEEEvPT_DpOT0_, symObjAddr: 0xC8D98, symBinAddr: 0x1000CBE3C, symSize: 0x284 }
  - { offsetInCU: 0x48AE2, offset: 0x48AE2, size: 0x8, addend: 0x0, symName: __ZNSt3__14pairIK5ValueiEC1B7v160006IJOS1_EJEEENS_21piecewise_construct_tENS_5tupleIJDpT_EEENS7_IJDpT0_EEE, symObjAddr: 0xC901C, symBinAddr: 0x1000CC0C0, symSize: 0x2A0 }
  - { offsetInCU: 0x48B53, offset: 0x48B53, size: 0x8, addend: 0x0, symName: __ZNSt3__14pairIK5ValueiEC1B7v160006IJOS1_EJEJLm0EEJEEENS_21piecewise_construct_tERNS_5tupleIJDpT_EEERNS7_IJDpT0_EEENS_15__tuple_indicesIJXspT1_EEEENSG_IJXspT2_EEEE, symObjAddr: 0xC92BC, symBinAddr: 0x1000CC360, symSize: 0x88 }
  - { offsetInCU: 0x48BE3, offset: 0x48BE3, size: 0x8, addend: 0x0, symName: __ZNSt3__14pairIK5ValueiEC2B7v160006IJOS1_EJEJLm0EEJEEENS_21piecewise_construct_tERNS_5tupleIJDpT_EEERNS7_IJDpT0_EEENS_15__tuple_indicesIJXspT1_EEEENSG_IJXspT2_EEEE, symObjAddr: 0xC9344, symBinAddr: 0x1000CC3E8, symSize: 0x244 }
  - { offsetInCU: 0x48C73, offset: 0x48C73, size: 0x8, addend: 0x0, symName: __ZNSt3__112__tuple_leafILm0EO5ValueLb0EE3getB7v160006Ev, symObjAddr: 0xC9668, symBinAddr: 0x1000CC70C, symSize: 0xF4 }
  - { offsetInCU: 0x48C99, offset: 0x48C99, size: 0x8, addend: 0x0, symName: __ZNSt3__15tupleIJO5ValueEEC1B7v160006IJS1_ELi0EEEDpOT_, symObjAddr: 0xC975C, symBinAddr: 0x1000CC800, symSize: 0x80 }
  - { offsetInCU: 0x48CE3, offset: 0x48CE3, size: 0x8, addend: 0x0, symName: __ZNSt3__15tupleIJO5ValueEEC2B7v160006IJS1_ELi0EEEDpOT_, symObjAddr: 0xC97DC, symBinAddr: 0x1000CC880, symSize: 0xC8 }
  - { offsetInCU: 0x48D2D, offset: 0x48D2D, size: 0x8, addend: 0x0, symName: __ZNSt3__112__tuple_implINS_15__tuple_indicesIJLm0EEEEJO5ValueEEC1B7v160006IJLm0EEJS4_EJEJEJS3_EEENS1_IJXspT_EEEENS_13__tuple_typesIJDpT0_EEENS1_IJXspT1_EEEENS8_IJDpT2_EEEDpOT3_, symObjAddr: 0xC98A4, symBinAddr: 0x1000CC948, symSize: 0x80 }
  - { offsetInCU: 0x48DC2, offset: 0x48DC2, size: 0x8, addend: 0x0, symName: __ZNSt3__112__tuple_implINS_15__tuple_indicesIJLm0EEEEJO5ValueEEC2B7v160006IJLm0EEJS4_EJEJEJS3_EEENS1_IJXspT_EEEENS_13__tuple_typesIJDpT0_EEENS1_IJXspT1_EEEENS8_IJDpT2_EEEDpOT3_, symObjAddr: 0xC9924, symBinAddr: 0x1000CC9C8, symSize: 0x10C }
  - { offsetInCU: 0x48E57, offset: 0x48E57, size: 0x8, addend: 0x0, symName: __ZNSt3__112__tuple_leafILm0EO5ValueLb0EEC2B7v160006IS1_vEEOT_, symObjAddr: 0xC9A30, symBinAddr: 0x1000CCAD4, symSize: 0x108 }
  - { offsetInCU: 0x48E9A, offset: 0x48E9A, size: 0x8, addend: 0x0, symName: __ZNSt3__16vectorINS_4pairI4CardS2_EENS_9allocatorIS3_EEE9__end_capB7v160006Ev, symObjAddr: 0xC9B38, symBinAddr: 0x1000CCBDC, symSize: 0x100 }
  - { offsetInCU: 0x48EC0, offset: 0x48EC0, size: 0x8, addend: 0x0, symName: __ZNSt3__16vectorINS_4pairI4CardS2_EENS_9allocatorIS3_EEE22__construct_one_at_endB7v160006IJS3_EEEvDpOT_, symObjAddr: 0xC9C38, symBinAddr: 0x1000CCCDC, symSize: 0x550 }
  - { offsetInCU: 0x48F15, offset: 0x48F15, size: 0x8, addend: 0x0, symName: __ZNSt3__16vectorINS_4pairI4CardS2_EENS_9allocatorIS3_EEE21__push_back_slow_pathIS3_EEvOT_, symObjAddr: 0xCA188, symBinAddr: 0x1000CD22C, symSize: 0x5B0 }
  - { offsetInCU: 0x48F7A, offset: 0x48F7A, size: 0x8, addend: 0x0, symName: __ZNSt3__117__compressed_pairIPNS_4pairI4CardS2_EENS_9allocatorIS3_EEE5firstB7v160006Ev, symObjAddr: 0xCA738, symBinAddr: 0x1000CD7DC, symSize: 0x124 }
  - { offsetInCU: 0x48FA0, offset: 0x48FA0, size: 0x8, addend: 0x0, symName: __ZNSt3__122__compressed_pair_elemIPNS_4pairI4CardS2_EELi0ELb0EE5__getB7v160006Ev, symObjAddr: 0xCA85C, symBinAddr: 0x1000CD900, symSize: 0xAC }
  - { offsetInCU: 0x48FE2, offset: 0x48FE2, size: 0x8, addend: 0x0, symName: __ZNSt3__16vectorINS_4pairI4CardS2_EENS_9allocatorIS3_EEE21_ConstructTransactionC1B7v160006ERS6_m, symObjAddr: 0xCA908, symBinAddr: 0x1000CD9AC, symSize: 0x88 }
  - { offsetInCU: 0x4902A, offset: 0x4902A, size: 0x8, addend: 0x0, symName: __ZNSt3__116allocator_traitsINS_9allocatorINS_4pairI4CardS3_EEEEE9constructB7v160006IS4_JS4_EvEEvRS5_PT_DpOT0_, symObjAddr: 0xCA990, symBinAddr: 0x1000CDA34, symSize: 0x8C }
  - { offsetInCU: 0x49081, offset: 0x49081, size: 0x8, addend: 0x0, symName: __ZNSt3__16vectorINS_4pairI4CardS2_EENS_9allocatorIS3_EEE7__allocB7v160006Ev, symObjAddr: 0xCAA1C, symBinAddr: 0x1000CDAC0, symSize: 0xE4 }
  - { offsetInCU: 0x490A7, offset: 0x490A7, size: 0x8, addend: 0x0, symName: __ZNSt3__16vectorINS_4pairI4CardS2_EENS_9allocatorIS3_EEE21_ConstructTransactionD1B7v160006Ev, symObjAddr: 0xCAB14, symBinAddr: 0x1000CDBB8, symSize: 0x78 }
  - { offsetInCU: 0x490D1, offset: 0x490D1, size: 0x8, addend: 0x0, symName: __ZNSt3__16vectorINS_4pairI4CardS2_EENS_9allocatorIS3_EEE21_ConstructTransactionC2B7v160006ERS6_m, symObjAddr: 0xCAB8C, symBinAddr: 0x1000CDC30, symSize: 0x3D8 }
  - { offsetInCU: 0x49119, offset: 0x49119, size: 0x8, addend: 0x0, symName: __ZNKSt3__16vectorINS_4pairI4CardS2_EENS_9allocatorIS3_EEE19__annotate_increaseB7v160006Em, symObjAddr: 0xCAF64, symBinAddr: 0x1000CE008, symSize: 0x44C }
  - { offsetInCU: 0x4914E, offset: 0x4914E, size: 0x8, addend: 0x0, symName: __ZNKSt3__16vectorINS_4pairI4CardS2_EENS_9allocatorIS3_EEE31__annotate_contiguous_containerEPKvS8_S8_S8_, symObjAddr: 0xCB3B0, symBinAddr: 0x1000CE454, symSize: 0x9C }
  - { offsetInCU: 0x491B0, offset: 0x491B0, size: 0x8, addend: 0x0, symName: __ZNKSt3__16vectorINS_4pairI4CardS2_EENS_9allocatorIS3_EEE4dataB7v160006Ev, symObjAddr: 0xCB44C, symBinAddr: 0x1000CE4F0, symSize: 0xB0 }
  - { offsetInCU: 0x491D6, offset: 0x491D6, size: 0x8, addend: 0x0, symName: __ZNKSt3__16vectorINS_4pairI4CardS2_EENS_9allocatorIS3_EEE8capacityB7v160006Ev, symObjAddr: 0xCB4FC, symBinAddr: 0x1000CE5A0, symSize: 0x144 }
  - { offsetInCU: 0x491FC, offset: 0x491FC, size: 0x8, addend: 0x0, symName: __ZNKSt3__16vectorINS_4pairI4CardS2_EENS_9allocatorIS3_EEE4sizeB7v160006Ev, symObjAddr: 0xCB640, symBinAddr: 0x1000CE6E4, symSize: 0xF8 }
  - { offsetInCU: 0x49222, offset: 0x49222, size: 0x8, addend: 0x0, symName: __ZNKSt3__16vectorINS_4pairI4CardS2_EENS_9allocatorIS3_EEE9__end_capB7v160006Ev, symObjAddr: 0xCB738, symBinAddr: 0x1000CE7DC, symSize: 0x100 }
  - { offsetInCU: 0x49248, offset: 0x49248, size: 0x8, addend: 0x0, symName: __ZNKSt3__117__compressed_pairIPNS_4pairI4CardS2_EENS_9allocatorIS3_EEE5firstB7v160006Ev, symObjAddr: 0xCB838, symBinAddr: 0x1000CE8DC, symSize: 0x124 }
  - { offsetInCU: 0x4926E, offset: 0x4926E, size: 0x8, addend: 0x0, symName: __ZNKSt3__122__compressed_pair_elemIPNS_4pairI4CardS2_EELi0ELb0EE5__getB7v160006Ev, symObjAddr: 0xCB95C, symBinAddr: 0x1000CEA00, symSize: 0xAC }
  - { offsetInCU: 0x49294, offset: 0x49294, size: 0x8, addend: 0x0, symName: __ZNSt3__19allocatorINS_4pairI4CardS2_EEE9constructB7v160006IS3_JS3_EEEvPT_DpOT0_, symObjAddr: 0xCBA08, symBinAddr: 0x1000CEAAC, symSize: 0xA8 }
  - { offsetInCU: 0x492EA, offset: 0x492EA, size: 0x8, addend: 0x0, symName: __ZNSt3__117__compressed_pairIPNS_4pairI4CardS2_EENS_9allocatorIS3_EEE6secondB7v160006Ev, symObjAddr: 0xCBAB0, symBinAddr: 0x1000CEB54, symSize: 0x108 }
  - { offsetInCU: 0x49310, offset: 0x49310, size: 0x8, addend: 0x0, symName: __ZNSt3__122__compressed_pair_elemINS_9allocatorINS_4pairI4CardS3_EEEELi1ELb1EE5__getB7v160006Ev, symObjAddr: 0xCBBB8, symBinAddr: 0x1000CEC5C, symSize: 0x74 }
  - { offsetInCU: 0x49336, offset: 0x49336, size: 0x8, addend: 0x0, symName: __ZNSt3__16vectorINS_4pairI4CardS2_EENS_9allocatorIS3_EEE21_ConstructTransactionD2B7v160006Ev, symObjAddr: 0xCBC2C, symBinAddr: 0x1000CECD0, symSize: 0x390 }
  - { offsetInCU: 0x49360, offset: 0x49360, size: 0x8, addend: 0x0, symName: __ZNKSt3__16vectorINS_4pairI4CardS2_EENS_9allocatorIS3_EEE17__annotate_shrinkB7v160006Em, symObjAddr: 0xCBFBC, symBinAddr: 0x1000CF060, symSize: 0x360 }
  - { offsetInCU: 0x49395, offset: 0x49395, size: 0x8, addend: 0x0, symName: __ZNKSt3__16vectorINS_4pairI4CardS2_EENS_9allocatorIS3_EEE11__recommendB7v160006Em, symObjAddr: 0xCC31C, symBinAddr: 0x1000CF3C0, symSize: 0x45C }
  - { offsetInCU: 0x493F1, offset: 0x493F1, size: 0x8, addend: 0x0, symName: __ZNSt3__114__split_bufferINS_4pairI4CardS2_EERNS_9allocatorIS3_EEEC1EmmS6_, symObjAddr: 0xCC778, symBinAddr: 0x1000CF81C, symSize: 0x90 }
  - { offsetInCU: 0x49447, offset: 0x49447, size: 0x8, addend: 0x0, symName: __ZNSt3__114__split_bufferINS_4pairI4CardS2_EERNS_9allocatorIS3_EEED1Ev, symObjAddr: 0xCD06C, symBinAddr: 0x1000D0110, symSize: 0x78 }
  - { offsetInCU: 0x49473, offset: 0x49473, size: 0x8, addend: 0x0, symName: __ZNKSt3__16vectorINS_4pairI4CardS2_EENS_9allocatorIS3_EEE8max_sizeEv, symObjAddr: 0xCD0E4, symBinAddr: 0x1000D0188, symSize: 0x3B8 }
  - { offsetInCU: 0x4949C, offset: 0x4949C, size: 0x8, addend: 0x0, symName: __ZNKSt3__16vectorINS_4pairI4CardS2_EENS_9allocatorIS3_EEE20__throw_length_errorB7v160006Ev, symObjAddr: 0xCD49C, symBinAddr: 0x1000D0540, symSize: 0x80 }
  - { offsetInCU: 0x494CD, offset: 0x494CD, size: 0x8, addend: 0x0, symName: __ZNSt3__116allocator_traitsINS_9allocatorINS_4pairI4CardS3_EEEEE8max_sizeB7v160006IS5_vEEmRKS5_, symObjAddr: 0xCD51C, symBinAddr: 0x1000D05C0, symSize: 0x24 }
  - { offsetInCU: 0x494FB, offset: 0x494FB, size: 0x8, addend: 0x0, symName: __ZNKSt3__16vectorINS_4pairI4CardS2_EENS_9allocatorIS3_EEE7__allocB7v160006Ev, symObjAddr: 0xCD540, symBinAddr: 0x1000D05E4, symSize: 0xE4 }
  - { offsetInCU: 0x49521, offset: 0x49521, size: 0x8, addend: 0x0, symName: __ZNKSt3__19allocatorINS_4pairI4CardS2_EEE8max_sizeB7v160006Ev, symObjAddr: 0xCD624, symBinAddr: 0x1000D06C8, symSize: 0x4C }
  - { offsetInCU: 0x49547, offset: 0x49547, size: 0x8, addend: 0x0, symName: __ZNKSt3__117__compressed_pairIPNS_4pairI4CardS2_EENS_9allocatorIS3_EEE6secondB7v160006Ev, symObjAddr: 0xCD670, symBinAddr: 0x1000D0714, symSize: 0x108 }
  - { offsetInCU: 0x4956D, offset: 0x4956D, size: 0x8, addend: 0x0, symName: __ZNKSt3__122__compressed_pair_elemINS_9allocatorINS_4pairI4CardS3_EEEELi1ELb1EE5__getB7v160006Ev, symObjAddr: 0xCD778, symBinAddr: 0x1000D081C, symSize: 0x74 }
  - { offsetInCU: 0x49593, offset: 0x49593, size: 0x8, addend: 0x0, symName: __ZNSt3__114__split_bufferINS_4pairI4CardS2_EERNS_9allocatorIS3_EEEC2EmmS6_, symObjAddr: 0xCD7EC, symBinAddr: 0x1000D0890, symSize: 0x7D8 }
  - { offsetInCU: 0x4960E, offset: 0x4960E, size: 0x8, addend: 0x0, symName: __ZNSt3__117__compressed_pairIPNS_4pairI4CardS2_EERNS_9allocatorIS3_EEEC1B7v160006IDnS7_EEOT_OT0_, symObjAddr: 0xCDFC4, symBinAddr: 0x1000D1068, symSize: 0x88 }
  - { offsetInCU: 0x49666, offset: 0x49666, size: 0x8, addend: 0x0, symName: __ZNSt3__114__split_bufferINS_4pairI4CardS2_EERNS_9allocatorIS3_EEE7__allocB7v160006Ev, symObjAddr: 0xCE2D8, symBinAddr: 0x1000D137C, symSize: 0xE4 }
  - { offsetInCU: 0x4968C, offset: 0x4968C, size: 0x8, addend: 0x0, symName: __ZNSt3__114__split_bufferINS_4pairI4CardS2_EERNS_9allocatorIS3_EEE9__end_capB7v160006Ev, symObjAddr: 0xCE3BC, symBinAddr: 0x1000D1460, symSize: 0x100 }
  - { offsetInCU: 0x496B2, offset: 0x496B2, size: 0x8, addend: 0x0, symName: __ZNSt3__117__compressed_pairIPNS_4pairI4CardS2_EERNS_9allocatorIS3_EEEC2B7v160006IDnS7_EEOT_OT0_, symObjAddr: 0xCE4BC, symBinAddr: 0x1000D1560, symSize: 0x198 }
  - { offsetInCU: 0x4970A, offset: 0x4970A, size: 0x8, addend: 0x0, symName: __ZNSt3__122__compressed_pair_elemIPNS_4pairI4CardS2_EELi0ELb0EEC2B7v160006IDnvEEOT_, symObjAddr: 0xCE654, symBinAddr: 0x1000D16F8, symSize: 0xBC }
  - { offsetInCU: 0x4974C, offset: 0x4974C, size: 0x8, addend: 0x0, symName: __ZNSt3__122__compressed_pair_elemIRNS_9allocatorINS_4pairI4CardS3_EEEELi1ELb0EEC2B7v160006IS6_vEEOT_, symObjAddr: 0xCE710, symBinAddr: 0x1000D17B4, symSize: 0xEC }
  - { offsetInCU: 0x4978E, offset: 0x4978E, size: 0x8, addend: 0x0, symName: __ZNSt3__19allocatorINS_4pairI4CardS2_EEE8allocateB7v160006Em, symObjAddr: 0xCE7FC, symBinAddr: 0x1000D18A0, symSize: 0xCC }
  - { offsetInCU: 0x497C2, offset: 0x497C2, size: 0x8, addend: 0x0, symName: __ZNSt3__117__compressed_pairIPNS_4pairI4CardS2_EERNS_9allocatorIS3_EEE6secondB7v160006Ev, symObjAddr: 0xCE8C8, symBinAddr: 0x1000D196C, symSize: 0x110 }
  - { offsetInCU: 0x497E8, offset: 0x497E8, size: 0x8, addend: 0x0, symName: __ZNSt3__122__compressed_pair_elemIRNS_9allocatorINS_4pairI4CardS3_EEEELi1ELb0EE5__getB7v160006Ev, symObjAddr: 0xCE9D8, symBinAddr: 0x1000D1A7C, symSize: 0xD8 }
  - { offsetInCU: 0x4980E, offset: 0x4980E, size: 0x8, addend: 0x0, symName: __ZNSt3__117__compressed_pairIPNS_4pairI4CardS2_EERNS_9allocatorIS3_EEE5firstB7v160006Ev, symObjAddr: 0xCEAB0, symBinAddr: 0x1000D1B54, symSize: 0x124 }
  - { offsetInCU: 0x49834, offset: 0x49834, size: 0x8, addend: 0x0, symName: __ZNKSt3__16vectorINS_4pairI4CardS2_EENS_9allocatorIS3_EEE17__annotate_deleteB7v160006Ev, symObjAddr: 0xCEBD4, symBinAddr: 0x1000D1C78, symSize: 0x370 }
  - { offsetInCU: 0x4985A, offset: 0x4985A, size: 0x8, addend: 0x0, symName: __ZNSt3__116reverse_iteratorIPNS_4pairI4CardS2_EEEC1B7v160006ES4_, symObjAddr: 0xCF51C, symBinAddr: 0x1000D25C0, symSize: 0x80 }
  - { offsetInCU: 0x49892, offset: 0x49892, size: 0x8, addend: 0x0, symName: __ZNKSt3__116reverse_iteratorIPNS_4pairI4CardS2_EEE4baseB7v160006Ev, symObjAddr: 0xCF59C, symBinAddr: 0x1000D2640, symSize: 0xB0 }
  - { offsetInCU: 0x498B8, offset: 0x498B8, size: 0x8, addend: 0x0, symName: __ZNKSt3__16vectorINS_4pairI4CardS2_EENS_9allocatorIS3_EEE14__annotate_newB7v160006Em, symObjAddr: 0xCF80C, symBinAddr: 0x1000D28B0, symSize: 0x360 }
  - { offsetInCU: 0x498ED, offset: 0x498ED, size: 0x8, addend: 0x0, symName: __ZNSt3__129_AllocatorDestroyRangeReverseINS_9allocatorINS_4pairI4CardS3_EEEENS_16reverse_iteratorIPS4_EEEC1B7v160006ERS5_RS8_SB_, symObjAddr: 0xCFDB8, symBinAddr: 0x1000D2E5C, symSize: 0x90 }
  - { offsetInCU: 0x49944, offset: 0x49944, size: 0x8, addend: 0x0, symName: __ZNKSt3__116reverse_iteratorIPNS_4pairI4CardS2_EEEdeB7v160006Ev, symObjAddr: 0xCFF50, symBinAddr: 0x1000D2FF4, symSize: 0x184 }
  - { offsetInCU: 0x49978, offset: 0x49978, size: 0x8, addend: 0x0, symName: __ZNSt3__116reverse_iteratorIPNS_4pairI4CardS2_EEEppB7v160006Ev, symObjAddr: 0xD00D4, symBinAddr: 0x1000D3178, symSize: 0x1B0 }
  - { offsetInCU: 0x4999E, offset: 0x4999E, size: 0x8, addend: 0x0, symName: __ZNSt3__128__exception_guard_exceptionsINS_29_AllocatorDestroyRangeReverseINS_9allocatorINS_4pairI4CardS4_EEEENS_16reverse_iteratorIPS5_EEEEE10__completeB7v160006Ev, symObjAddr: 0xD0284, symBinAddr: 0x1000D3328, symSize: 0xD8 }
  - { offsetInCU: 0x499C4, offset: 0x499C4, size: 0x8, addend: 0x0, symName: __ZNSt3__128__exception_guard_exceptionsINS_29_AllocatorDestroyRangeReverseINS_9allocatorINS_4pairI4CardS4_EEEENS_16reverse_iteratorIPS5_EEEEED1B7v160006Ev, symObjAddr: 0xD035C, symBinAddr: 0x1000D3400, symSize: 0x78 }
  - { offsetInCU: 0x499EE, offset: 0x499EE, size: 0x8, addend: 0x0, symName: __ZNSt3__128__exception_guard_exceptionsINS_29_AllocatorDestroyRangeReverseINS_9allocatorINS_4pairI4CardS4_EEEENS_16reverse_iteratorIPS5_EEEEEC1B7v160006ESA_, symObjAddr: 0xD03D4, symBinAddr: 0x1000D3478, symSize: 0x84 }
  - { offsetInCU: 0x49A27, offset: 0x49A27, size: 0x8, addend: 0x0, symName: __ZNSt3__128__exception_guard_exceptionsINS_29_AllocatorDestroyRangeReverseINS_9allocatorINS_4pairI4CardS4_EEEENS_16reverse_iteratorIPS5_EEEEEC2B7v160006ESA_, symObjAddr: 0xD0458, symBinAddr: 0x1000D34FC, symSize: 0xF8 }
  - { offsetInCU: 0x49A60, offset: 0x49A60, size: 0x8, addend: 0x0, symName: __ZNSt3__129_AllocatorDestroyRangeReverseINS_9allocatorINS_4pairI4CardS3_EEEENS_16reverse_iteratorIPS4_EEEC2B7v160006ERS5_RS8_SB_, symObjAddr: 0xD0550, symBinAddr: 0x1000D35F4, symSize: 0x20C }
  - { offsetInCU: 0x49ABD, offset: 0x49ABD, size: 0x8, addend: 0x0, symName: __ZNSt3__119__to_address_helperINS_16reverse_iteratorIPNS_4pairI4CardS3_EEEEvE6__callB7v160006ERKS6_, symObjAddr: 0xD075C, symBinAddr: 0x1000D3800, symSize: 0x70 }
  - { offsetInCU: 0x49AE0, offset: 0x49AE0, size: 0x8, addend: 0x0, symName: __ZNKSt3__116reverse_iteratorIPNS_4pairI4CardS2_EEEptB7v160006Ev, symObjAddr: 0xD07CC, symBinAddr: 0x1000D3870, symSize: 0x6C }
  - { offsetInCU: 0x49B06, offset: 0x49B06, size: 0x8, addend: 0x0, symName: __ZNSt3__128__exception_guard_exceptionsINS_29_AllocatorDestroyRangeReverseINS_9allocatorINS_4pairI4CardS4_EEEENS_16reverse_iteratorIPS5_EEEEED2B7v160006Ev, symObjAddr: 0xD0838, symBinAddr: 0x1000D38DC, symSize: 0x17C }
  - { offsetInCU: 0x49B30, offset: 0x49B30, size: 0x8, addend: 0x0, symName: __ZNKSt3__129_AllocatorDestroyRangeReverseINS_9allocatorINS_4pairI4CardS3_EEEENS_16reverse_iteratorIPS4_EEEclB7v160006Ev, symObjAddr: 0xD09B4, symBinAddr: 0x1000D3A58, symSize: 0x418 }
  - { offsetInCU: 0x49B57, offset: 0x49B57, size: 0x8, addend: 0x0, symName: __ZNSt3__116reverse_iteratorINS0_IPNS_4pairI4CardS2_EEEEEC1B7v160006ES5_, symObjAddr: 0xD0F70, symBinAddr: 0x1000D4014, symSize: 0x29C }
  - { offsetInCU: 0x49B94, offset: 0x49B94, size: 0x8, addend: 0x0, symName: __ZNSt3__116allocator_traitsINS_9allocatorINS_4pairI4CardS3_EEEEE7destroyB7v160006IS4_vEEvRS5_PT_, symObjAddr: 0xD1530, symBinAddr: 0x1000D45D4, symSize: 0x2C }
  - { offsetInCU: 0x49BD1, offset: 0x49BD1, size: 0x8, addend: 0x0, symName: __ZNSt3__116reverse_iteratorINS0_IPNS_4pairI4CardS2_EEEEEppB7v160006Ev, symObjAddr: 0xD15C8, symBinAddr: 0x1000D466C, symSize: 0x100 }
  - { offsetInCU: 0x49BF7, offset: 0x49BF7, size: 0x8, addend: 0x0, symName: __ZNKSt3__116reverse_iteratorINS0_IPNS_4pairI4CardS2_EEEEE4baseB7v160006Ev, symObjAddr: 0xD16C8, symBinAddr: 0x1000D476C, symSize: 0x258 }
  - { offsetInCU: 0x49C1E, offset: 0x49C1E, size: 0x8, addend: 0x0, symName: __ZNSt3__19allocatorINS_4pairI4CardS2_EEE7destroyB7v160006EPS3_, symObjAddr: 0xD1920, symBinAddr: 0x1000D49C4, symSize: 0x4C }
  - { offsetInCU: 0x49C58, offset: 0x49C58, size: 0x8, addend: 0x0, symName: __ZNSt3__119__to_address_helperINS_16reverse_iteratorINS1_IPNS_4pairI4CardS3_EEEEEEvE6__callB7v160006ERKS7_, symObjAddr: 0xD196C, symBinAddr: 0x1000D4A10, symSize: 0x70 }
  - { offsetInCU: 0x49C7B, offset: 0x49C7B, size: 0x8, addend: 0x0, symName: __ZNKSt3__116reverse_iteratorINS0_IPNS_4pairI4CardS2_EEEEEptB7v160006Ev, symObjAddr: 0xD19DC, symBinAddr: 0x1000D4A80, symSize: 0x6C }
  - { offsetInCU: 0x49CA1, offset: 0x49CA1, size: 0x8, addend: 0x0, symName: __ZNKSt3__116reverse_iteratorINS0_IPNS_4pairI4CardS2_EEEEEdeB7v160006Ev, symObjAddr: 0xD1A48, symBinAddr: 0x1000D4AEC, symSize: 0x2C4 }
  - { offsetInCU: 0x49CDA, offset: 0x49CDA, size: 0x8, addend: 0x0, symName: __ZNSt3__116reverse_iteratorIPNS_4pairI4CardS2_EEEmmB7v160006Ev, symObjAddr: 0xD1D0C, symBinAddr: 0x1000D4DB0, symSize: 0x1B0 }
  - { offsetInCU: 0x49D00, offset: 0x49D00, size: 0x8, addend: 0x0, symName: __ZNSt3__116reverse_iteratorINS0_IPNS_4pairI4CardS2_EEEEEC2B7v160006ES5_, symObjAddr: 0xD1EBC, symBinAddr: 0x1000D4F60, symSize: 0x284 }
  - { offsetInCU: 0x49D3D, offset: 0x49D3D, size: 0x8, addend: 0x0, symName: __ZNSt3__116reverse_iteratorIPNS_4pairI4CardS2_EEEC2B7v160006ES4_, symObjAddr: 0xD2140, symBinAddr: 0x1000D51E4, symSize: 0x10C }
  - { offsetInCU: 0x49D75, offset: 0x49D75, size: 0x8, addend: 0x0, symName: __ZNSt3__114__split_bufferINS_4pairI4CardS2_EERNS_9allocatorIS3_EEED2Ev, symObjAddr: 0xD224C, symBinAddr: 0x1000D52F0, symSize: 0x16C }
  - { offsetInCU: 0x49DA1, offset: 0x49DA1, size: 0x8, addend: 0x0, symName: __ZNSt3__114__split_bufferINS_4pairI4CardS2_EERNS_9allocatorIS3_EEE5clearB7v160006Ev, symObjAddr: 0xD23B8, symBinAddr: 0x1000D545C, symSize: 0xB4 }
  - { offsetInCU: 0x49DC7, offset: 0x49DC7, size: 0x8, addend: 0x0, symName: __ZNSt3__116allocator_traitsINS_9allocatorINS_4pairI4CardS3_EEEEE10deallocateB7v160006ERS5_PS4_m, symObjAddr: 0xD246C, symBinAddr: 0x1000D5510, symSize: 0x34 }
  - { offsetInCU: 0x49E09, offset: 0x49E09, size: 0x8, addend: 0x0, symName: __ZNKSt3__114__split_bufferINS_4pairI4CardS2_EERNS_9allocatorIS3_EEE8capacityB7v160006Ev, symObjAddr: 0xD24A0, symBinAddr: 0x1000D5544, symSize: 0x144 }
  - { offsetInCU: 0x49E2F, offset: 0x49E2F, size: 0x8, addend: 0x0, symName: __ZNSt3__114__split_bufferINS_4pairI4CardS2_EERNS_9allocatorIS3_EEE17__destruct_at_endB7v160006EPS3_, symObjAddr: 0xD25E4, symBinAddr: 0x1000D5688, symSize: 0x74 }
  - { offsetInCU: 0x49E63, offset: 0x49E63, size: 0x8, addend: 0x0, symName: __ZNSt3__114__split_bufferINS_4pairI4CardS2_EERNS_9allocatorIS3_EEE17__destruct_at_endB7v160006EPS3_NS_17integral_constantIbLb0EEE, symObjAddr: 0xD2658, symBinAddr: 0x1000D56FC, symSize: 0x224 }
  - { offsetInCU: 0x49EA3, offset: 0x49EA3, size: 0x8, addend: 0x0, symName: __ZNSt3__19allocatorINS_4pairI4CardS2_EEE10deallocateB7v160006EPS3_m, symObjAddr: 0xD287C, symBinAddr: 0x1000D5920, symSize: 0x78 }
  - { offsetInCU: 0x49EE5, offset: 0x49EE5, size: 0x8, addend: 0x0, symName: __ZNKSt3__114__split_bufferINS_4pairI4CardS2_EERNS_9allocatorIS3_EEE9__end_capB7v160006Ev, symObjAddr: 0xD28F4, symBinAddr: 0x1000D5998, symSize: 0x100 }
